(dp1
S'Levels\\Sempridge2.script'
p2
S'9361fc189b52bc44f49a7c55350db153389e47d9'
p3
sS'Levels/Entarya2.script'
p4
S'5f11ab6e8b488626dad0b500fcb8e19798064a53'
p5
sS'Levels/SempridgeBoss.script'
p6
S'3140048381d04a38ce01c42d4fc559010c9ff192'
p7
sS'Levels\\Entarya4.npcs'
p8
S'ca94ea5e2885555afb73ee6f8663a2f05ebc9720'
p9
sS'Levels\\Snodom5'
p10
S'dd9a0adb3c4d098323afdae40ed14db7218e30c1'
p11
sS'Levels\\Snodom4'
p12
S'd3daa5ad2063ae58c3f10856939d16614a1a1677'
p13
sS'Levels\\Snodom6'
p14
S'78547f6915f48a1754d1c26e48715f9cf5052b62'
p15
sS'Levels\\Snodom1'
p16
S'962a9a0d7e617d114de724caaf2bfa788357d279'
p17
sS'Levels\\Snodom3'
p18
S'2b469f0d69c7a8ad95bd4fe546da34652553780d'
p19
sS'Levels\\Snodom2'
p20
S'de90032f135550db3513ae1a82b19fbaea24ef4e'
p21
sS'Levels/bonus1.script'
p22
S'd81a35b20b95522e7cd52a67f5f56c779d286d9d'
p23
sS'Levels\\SempridgeBoss.script'
p24
S'3140048381d04a38ce01c42d4fc559010c9ff192'
p25
sS'Levels\\Snodom2.script'
p26
S'7c6d55ae39c8edf1cea6cf6ee9d2e98af9406ce6'
p27
sS'Base/monsters.db'
p28
S'aae26e4729eb79459a67ff9362930caa6b6e2d86'
p29
sS'Levels/Sempridge2.script'
p30
S'9361fc189b52bc44f49a7c55350db153389e47d9'
p31
sS'enemyai.py'
p32
S'25f9ab39a22926c3e3372b41e6e504dfa78cc002'
p33
sS'Base\\monsters.db'
p34
S'aae26e4729eb79459a67ff9362930caa6b6e2d86'
p35
sS'Levels\\Snodom1.script'
p36
S'0bd1c261b3c72ca3d319cc57f2591f03c9bf7408'
p37
sS'Levels\\bonus3'
p38
S'3d70938b0027846a2122e0d901cbfcac3958a370'
p39
sS'Levels\\Entarya2.script'
p40
S'5f11ab6e8b488626dad0b500fcb8e19798064a53'
p41
sS'Levels/Sempridge5.npcs'
p42
S'a44ee676dabe0a1a7a8e611c25915f8c7801ce89'
p43
sS'Levels/Sempridge1.script'
p44
S'eb35d8bb0c54457f2b503b919f0b78f5fc71ba1d'
p45
sS'Levels/Snodom6.script'
p46
S'db9049cbb7fd7127be8acfc36c9f27d6598b4512'
p47
sS'Levels\\Snodom4.script'
p48
S'298e5b0b4db209da352eb143bab76b97217cb698'
p49
sS'play_level.py'
p50
S'd3b866f5b69d40132200484638451a7f8531ced4'
p51
sS'Levels/Sempridge5'
p52
S'20f90836864126101b75a57b0744ae97589259d7'
p53
sS'Levels/Sempridge4'
p54
S'8e5c790b3dd6d7bffef10d287aa08e8e734077ff'
p55
sS'Levels/Sempridge1'
p56
S'd0ab836d33e3165a59e4843d0366c68976462f8c'
p57
sS'Levels/Sempridge3'
p58
S'f617dfbd90cbf26243af220bb7f09dd3746bac32'
p59
sS'Base\\items.db~'
p60
S'c86e4c5db1dc6c5f43e661bbdaf3097ff3a78dda'
p61
sS'Levels\\bonus4'
p62
S'e3da6f299349134bf4c12c0bb41dfdb032c36bc4'
p63
sS'Levels/Entarya5'
p64
S'8d881f7d1deacc07c1f34f05a6c1cb75ef8cb72a'
p65
sS'Levels/Entarya4'
p66
S'21088cbe2b7e9006e43e6385f9a386ae3a506feb'
p67
sS'Levels/Entarya3'
p68
S'dded7f46925b99c13fb4c2ffb0aae9a7745903c4'
p69
sS'Levels/Entarya2'
p70
S'f0f7a8d0bb186a947ae7046770fd7dad0337eb59'
p71
sS'ardentryst.py'
p72
S'd2e166f27df0bcd3e52f6d0fc647182292d9fb33'
p73
sS'Levels/Snodom5.script'
p74
S'498ed4d50a5e90f669fe127f319c4d561da632fb'
p75
sS'Levels\\SnodomBoss.script'
p76
S'381f11aa1f9767d4637a9da4a8512141bc55f2c6'
p77
sS'Levels/EntaryaBoss'
p78
S'99fa433993cb5f425e43e33c62d8b005f5f3360a'
p79
sS'Levels\\Entarya1.npcs'
p80
S'4d50e3afc839996cf260454e918c1ec72c1de1ea'
p81
sS'Levels/Sempridge4.script'
p82
S'707c2230b40766985e471440216d9d6ff895c7d4'
p83
sS'Levels\\bonus1.script'
p84
S'd81a35b20b95522e7cd52a67f5f56c779d286d9d'
p85
sS'Levels/Entarya1.script'
p86
S'40b595aba81545e8843d894aa7e092721b0a7d44'
p87
sS'Levels\\Entarya3.script'
p88
S'e584d1337c0060ebf81c77752643b2f428f2c6ed'
p89
sS'Levels\\Sempridge4'
p90
S'8e5c790b3dd6d7bffef10d287aa08e8e734077ff'
p91
sS'Levels\\Sempridge5'
p92
S'20f90836864126101b75a57b0744ae97589259d7'
p93
sS'Levels\\Sempridge2'
p94
S'4de730de1c9f7b6aee9b76838e457acbb62e6b48'
p95
sS'Levels\\Sempridge3'
p96
S'f617dfbd90cbf26243af220bb7f09dd3746bac32'
p97
sS'Levels\\Sempridge1'
p98
S'd0ab836d33e3165a59e4843d0366c68976462f8c'
p99
sS'Levels\\Entarya1.script'
p100
S'40b595aba81545e8843d894aa7e092721b0a7d44'
p101
sS'Levels/EntaryaBoss.script'
p102
S'76c4f08ce1ab59c28fb9da3ea91ed7383b80c48a'
p103
sS'Levels\\Sempridge5.script'
p104
S'c7242833a87c65baf80e980e727840c713e6551b'
p105
sS'Base/items.db'
p106
S'35eff474bee3dc62f52aa6bce2536cae4ff1f904'
p107
sS'Levels/SnodomBoss'
p108
S'22d0f418c4dd535cf5375f06914d294a2b007005'
p109
sS'Levels\\Sempridge1.script'
p110
S'eb35d8bb0c54457f2b503b919f0b78f5fc71ba1d'
p111
sS'Levels/Sempridge2'
p112
S'4de730de1c9f7b6aee9b76838e457acbb62e6b48'
p113
sS'Levels/Snodom4.script'
p114
S'298e5b0b4db209da352eb143bab76b97217cb698'
p115
sS'Levels/Entarya1.npcs'
p116
S'4d50e3afc839996cf260454e918c1ec72c1de1ea'
p117
sS'Levels/Snodom3.script'
p118
S'd1eb5278247c2c2c684c1171fd71c875937de2a4'
p119
sS'Levels\\EntaryaBoss.script'
p120
S'76c4f08ce1ab59c28fb9da3ea91ed7383b80c48a'
p121
sS'Levels/bonus2'
p122
S'13422b54492a314f6959edc555666081365ede83'
p123
sS'Levels/bonus3'
p124
S'3d70938b0027846a2122e0d901cbfcac3958a370'
p125
sS'Levels/bonus1'
p126
S'621aaff9aa8d4b97221a3128760e2a34aa137840'
p127
sS'Levels/bonus4'
p128
S'e3da6f299349134bf4c12c0bb41dfdb032c36bc4'
p129
sS'Levels\\Snodom5.script'
p130
S'498ed4d50a5e90f669fe127f319c4d561da632fb'
p131
sS'Levels/Entarya4.npcs'
p132
S'ca94ea5e2885555afb73ee6f8663a2f05ebc9720'
p133
sS'Levels/Sempridge5.script'
p134
S'c7242833a87c65baf80e980e727840c713e6551b'
p135
sS'Levels/Entarya5.script'
p136
S'e1dbd81a7ca715bbb779494942d2e9e518d1b953'
p137
sS'Levels/Snodom1.script'
p138
S'0bd1c261b3c72ca3d319cc57f2591f03c9bf7408'
p139
sS'Levels\\Entarya1'
p140
S'40854ce6f9047732ffb49b79b9b4582f9be7642d'
p141
sS'Levels\\Entarya2'
p142
S'f0f7a8d0bb186a947ae7046770fd7dad0337eb59'
p143
sS'Levels\\Entarya3'
p144
S'dded7f46925b99c13fb4c2ffb0aae9a7745903c4'
p145
sS'Levels\\Entarya4'
p146
S'21088cbe2b7e9006e43e6385f9a386ae3a506feb'
p147
sS'Levels\\Entarya5'
p148
S'8d881f7d1deacc07c1f34f05a6c1cb75ef8cb72a'
p149
sS'Base/items.db~'
p150
S'c86e4c5db1dc6c5f43e661bbdaf3097ff3a78dda'
p151
sS'Levels\\Sempridge1.npcs'
p152
S'168ac0bc1493054786cc3b3b55bfe5151808218e'
p153
sS'Levels/Snodom2.script'
p154
S'7c6d55ae39c8edf1cea6cf6ee9d2e98af9406ce6'
p155
sS'Levels/SnodomBoss.script'
p156
S'381f11aa1f9767d4637a9da4a8512141bc55f2c6'
p157
sS'Levels\\bonus1'
p158
S'621aaff9aa8d4b97221a3128760e2a34aa137840'
p159
sS'Levels\\Sempridge4.script'
p160
S'707c2230b40766985e471440216d9d6ff895c7d4'
p161
sS'Levels/Entarya1'
p162
S'40854ce6f9047732ffb49b79b9b4582f9be7642d'
p163
sS'Levels\\SempridgeBoss'
p164
S'951fc0fde31ac8e436340b286bce26d41a09093e'
p165
sS'Levels\\EntaryaBoss'
p166
S'99fa433993cb5f425e43e33c62d8b005f5f3360a'
p167
sS'Levels\\bonus2'
p168
S'13422b54492a314f6959edc555666081365ede83'
p169
sS'Levels/Sempridge1.npcs'
p170
S'168ac0bc1493054786cc3b3b55bfe5151808218e'
p171
sS'Levels\\bonus1.script~'
p172
S'9c561c38dbed3663467e3cefb6748f6c72aa8754'
p173
sS'Levels\\SnodomBoss'
p174
S'22d0f418c4dd535cf5375f06914d294a2b007005'
p175
sS'Levels\\Snodom3.script'
p176
S'd1eb5278247c2c2c684c1171fd71c875937de2a4'
p177
sS'Levels/Snodom4'
p178
S'd3daa5ad2063ae58c3f10856939d16614a1a1677'
p179
sS'Levels/Snodom5'
p180
S'dd9a0adb3c4d098323afdae40ed14db7218e30c1'
p181
sS'Levels/.svn'
p182
S''
sS'Levels/Snodom1'
p183
S'962a9a0d7e617d114de724caaf2bfa788357d279'
p184
sS'Levels/Snodom2'
p185
S'de90032f135550db3513ae1a82b19fbaea24ef4e'
p186
sS'Levels/Snodom3'
p187
S'2b469f0d69c7a8ad95bd4fe546da34652553780d'
p188
sS'Levels/Entarya3.script'
p189
S'e584d1337c0060ebf81c77752643b2f428f2c6ed'
p190
sS'Base\\items.db'
p191
S'35eff474bee3dc62f52aa6bce2536cae4ff1f904'
p192
sS'magic.py'
p193
S'7db0e0a83949e1afb30b01ccf41d1dcb78a19482'
p194
sS'Levels\\Snodom6.script'
p195
S'db9049cbb7fd7127be8acfc36c9f27d6598b4512'
p196
sS'Base/.svn'
p197
S''
sS'Levels/bonus1.script~'
p198
S'9c561c38dbed3663467e3cefb6748f6c72aa8754'
p199
sS'Levels/Snodom6'
p200
S'78547f6915f48a1754d1c26e48715f9cf5052b62'
p201
sS'Levels/Sempridge3.script'
p202
S'863a3d0aa79216a198523c96f2962b83a9391f60'
p203
sS'Levels\\Sempridge5.npcs'
p204
S'a44ee676dabe0a1a7a8e611c25915f8c7801ce89'
p205
sS'Levels/SempridgeBoss'
p206
S'951fc0fde31ac8e436340b286bce26d41a09093e'
p207
sS'Levels\\Entarya4.script'
p208
S'555af1573ae70d05b0ed5b6b8f6e99b261eef818'
p209
sS'Levels/Entarya4.script'
p210
S'555af1573ae70d05b0ed5b6b8f6e99b261eef818'
p211
sS'Levels\\Sempridge3.script'
p212
S'863a3d0aa79216a198523c96f2962b83a9391f60'
p213
sS'Levels\\Entarya5.script'
p214
S'e1dbd81a7ca715bbb779494942d2e9e518d1b953'
p215
s.