(imapping
Map
p1
(dp2
S'enemy'
p3
(lp4
(lp5
NaNaNaNaNaNaNaNaNaNaNaNaa(lp6
NaNaNaNaNaNaNaNaNaNaNaNaa(lp7
NaNaNaNaNaNaNaNaNaNaNaNaa(lp8
NaNaNaNaNaNaNaNaNaNaNaNaa(lp9
NaNaNaNaNaNaNaNaNaNaNaNaa(lp10
NaNaNaNaNaNaNaNaNaNaNaNaa(lp11
NaNaNaNaNaNaNaNaNaNaNaNaa(lp12
NaNaNaNaNaNaNaNaNaNaNaNaa(lp13
NaNaNaNaNaNaNaNaNaNaNaNaa(lp14
NaNaNaNaNaNaNaNaNaNaNaNaa(lp15
NaNaNaNaNaNaNaNaNaNaNaNaa(lp16
NaNaNaNaNaNaNaNaNaNaNaNaa(lp17
NaNaNaNaNaNaNaNaNaNaNaNaa(lp18
NaNaNaNaNaNaNaNaVCSpider
p19
aNaNaNaa(lp20
NaNaNaNaNaNaNaNaNaNaNaNaa(lp21
NaNaNaNaNaNaNaVCSpider
p22
aNaNaNaNaa(lp23
NaNaNaNaNaNaNaNaNaNaNaNaa(lp24
NaNaNaNaNaNaNaVCSpider
p25
aNaNaNaNaa(lp26
NaNaNaNaNaNaNaNaNaNaNaNaa(lp27
NaNaNaNaNaNaNaNaNaNaNaNaa(lp28
NaNaNaNaNaNaNaNaNaNaNaNaa(lp29
NaNaNaNaNaNaNaNaNaNaNaNaa(lp30
NaNaNaNaNaNaNaNaNaNaNaNaa(lp31
NaNaNaNaNaNaNaNaNaNaNaNaa(lp32
NaNaNaNaNaNaNaNaNaNaNaNaa(lp33
NaNaNaNaNaNaNaNaNaNaNaNaa(lp34
NaNaNaVCSpider
p35
aNaNaNaNaNaNaNaNaa(lp36
NaNaNaNaNaNaNaNaNaNaNaNaa(lp37
NaNaNaVCSpider
p38
aNaNaNaNaNaNaNaNaa(lp39
NaNaNaVCSpider
p40
aNaNaNaNaNaNaNaNaa(lp41
NaNaNaNaNaNaNaNaNaNaNaNaa(lp42
NaNaNaVCSpider
p43
aNaNaNaNaNaNaNaNaa(lp44
NaNaNaNaNaNaNaNaNaNaNaNaa(lp45
NaNaNaNaNaNaNaNaNaNaNaNaa(lp46
NaNaNaNaNaNaNaNaNaNaNaNaa(lp47
NaNaNaNaNaNaNaNaNaNaNaNaa(lp48
NaNaNaNaNaNaNaNaNaNaNaNaa(lp49
NaNaNaNaNaNaNaNaNaNaNaNaa(lp50
NaNaNaNaNaNaNaNaNaNaNaNaa(lp51
NaNaNaNaVWasp
p52
aNaVWasp
p53
aNaVWasp
p54
aNaVWasp
p55
aNaa(lp56
NaNaNaNaNaNaNaNaNaNaNaNaa(lp57
NaNaNaNaNaNaNaNaNaNaNaNaa(lp58
NaNaNaNaNaNaNaNaNaNaNaNaa(lp59
NaNaNaNaNaNaNaNaNaNaNaNaa(lp60
NaNaNaNaNaNaNaNaVWasp
p61
aNaNaNaa(lp62
NaNaNaNaNaNaNaNaNaNaNaNaa(lp63
NaNaNaNaNaNaNaNaNaNaNaNaa(lp64
NaNaNaNaNaNaNaNaNaNaNaNaa(lp65
NaNaNaNaNaNaNaNaNaNaNaNaa(lp66
NaNaNaNaNaNaNaNaNaNaNaNaa(lp67
NaNaNaNaNaNaNaNaNaNaNaNaa(lp68
NaNaNaNaNaNaNaNaNaNaNaNaa(lp69
NaNaNaNaNaNaNaNaNaNaNaNaa(lp70
NaNaNaNaNaNaNaNaNaNaNaNaa(lp71
NaNaNaNaNaNaNaNaNaNaNaNaa(lp72
NaNaNaNaNaNaNaNaNaNaNaNaa(lp73
NaNaNaNaNaNaNaNaNaNaNaNaa(lp74
NaNaNaNaNaNaNaNaNaNaNaNaa(lp75
NaNaNaNaNaNaNaNaNaNaNaNaa(lp76
NaNaNaNaNaNaNaNaNaNaNaNaa(lp77
NaNaNaNaNaNaNaNaNaNaNaNaa(lp78
NaNaNaNaNaNaNaNaNaNaNaNaa(lp79
NaNaNaNaNaNaNaNaNaNaNaNaa(lp80
NaNaNaNaNaNaNaVWasp
p81
aNaNaNaNaa(lp82
NaNaNaNaNaNaNaNaNaNaNaNaa(lp83
NaNaNaNaNaNaNaVCSpider
p84
aNaNaNaNaa(lp85
NaNaNaNaNaNaNaNaNaNaNaNaa(lp86
NaNaNaNaNaNaNaNaNaNaNaNaa(lp87
NaNaNaNaNaNaNaNaNaNaNaNaa(lp88
NaNaNaNaNaNaNaNaNaNaNaNaa(lp89
NaNaNaNaNaNaNaNaNaNaNaNaa(lp90
NaNaNaNaNaNaNaNaNaNaNaNaa(lp91
NaNaNaNaNaNaNaVCSpider
p92
aNaNaNaNaa(lp93
NaNaNaNaNaNaNaNaNaNaNaNaa(lp94
NaNaNaNaNaNaNaNaNaNaNaNaa(lp95
NaNaNaNaNaNaNaVCSpider
p96
aNaNaNaNaa(lp97
NaNaNaNaNaNaNaNaNaNaNaNaa(lp98
NaNaNaNaNaNaNaNaNaNaNaNaa(lp99
NaNaNaNaNaNaNaNaNaNaNaNaa(lp100
NaNaNaNaNaNaNaNaNaNaNaNaa(lp101
NaNaNaNaNaNaNaNaNaNaNaNaa(lp102
NaNaNaNaNaNaNaNaNaNaNaNaa(lp103
NaNaNaNaNaNaNaNaNaNaNaNaa(lp104
NaNaNaNaNaNaNaVCSpider
p105
aNaNaNaNaa(lp106
NaNaNaNaNaNaNaNaNaNaNaNaa(lp107
NaNaNaNaNaNaNaNaNaNaNaNaa(lp108
NaNaNaNaNaNaNaNaNaNaNaNaa(lp109
NaNaNaNaNaNaNaVWasp
p110
aNaNaNaNaa(lp111
NaNaNaNaNaNaNaNaNaNaNaNaa(lp112
NaNaNaNaNaNaNaNaNaNaNaNaa(lp113
NaNaNaNaNaNaNaNaNaNaNaNaa(lp114
NaNaNaNaNaNaNaNaNaNaNaNaa(lp115
NaNaNaNaNaNaNaNaNaNaNaNaa(lp116
NaNaNaNaNaNaNaNaNaNaNaNaa(lp117
NaNaNaNaNaNaNaNaNaNaNaNaa(lp118
NaNaNaNaNaNaNaNaNaNaNaNaa(lp119
NaNaNaNaNaNaNaNaNaNaNaNaa(lp120
NaNaNaNaNaNaNaNaNaNaNaNaa(lp121
NaNaNaNaNaNaNaNaNaNaNaNaa(lp122
NaNaNaNaNaNaNaNaNaNaNaNaa(lp123
NaNaNaNaNaNaNaNaNaNaNaNaa(lp124
NaNaNaNaNaNaNaNaNaNaNaNaa(lp125
NaNaNaNaNaNaNaNaNaNaNaNaa(lp126
NaNaNaNaNaNaNaNaNaNaNaNaa(lp127
NaNaNaNaNaNaNaNaNaNaNaNaa(lp128
NaNaNaNaNaNaNaNaNaNaNaNaa(lp129
NaNaNaNaNaNaNaNaNaNaNaNaa(lp130
NaNaNaNaNaNaNaNaNaNaNaNaa(lp131
NaNaNaNaNaNaNaNaNaNaNaNaa(lp132
NaNaNaNaNaNaNaNaNaNaNaNaa(lp133
NaNaNaNaNaNaNaNaNaNaNaNaa(lp134
NaNaNaNaNaNaNaNaNaNaNaNaa(lp135
NaNaNaNaNaNaNaNaNaNaNaNaa(lp136
NaNaNaNaNaNaNaNaNaNaNaNaa(lp137
NaNaNaNaNaNaNaNaNaNaNaNaa(lp138
NaNaNaNaNaNaNaNaNaNaNaNaa(lp139
NaNaNaNaNaNaNaNaNaNaNaNaa(lp140
NaNaNaNaNaNaNaNaNaNaNaNaa(lp141
NaNaNaNaNaNaNaNaNaNaNaNaa(lp142
NaNaNaNaNaNaNaNaNaNaNaNaa(lp143
NaNaNaNaNaNaNaNaNaNaNaNaa(lp144
NaNaNaNaNaNaNaNaNaNaNaNaa(lp145
NaNaNaNaNaNaNaNaNaNaNaNaa(lp146
NaNaNaNaNaNaNaNaNaNaNaNaa(lp147
NaNaNaNaNaNaNaNaNaNaNaNaa(lp148
NaNaNaNaNaNaNaNaNaNaNaNaa(lp149
NaNaNaNaNaNaNaNaNaNaNaNaa(lp150
NaNaNaNaNaNaNaNaNaNaNaNaasS'objdef'
p151
(dp152
VButterfly
p153
VButterfly.png
p154
sVLevel_End
p155
VEnd.png
p156
sVShield
p157
VShield.png
p158
sVPlayer_Start
p159
VStart.png
p160
sVLever_Snow
p161
VLever1.png
p162
sVTorchref
p163
VTorchref.png
p164
sVWalltorch
p165
VWalltorch.png
p166
sVFirepit
p167
VPit.png
p168
sVSign
p169
VSign.png
p170
sVButterflyC
p171
VButterflyC.png
p172
sVButterflyB
p173
VButterflyB.png
p174
sVSword
p175
VSword.png
p176
sVTreasureBoxC
p177
VTreasureC_Closed.png
p178
sVTreasureBoxB
p179
VTreasureB_Closed.png
p180
sVTreasureBox
p181
VTreasure_Closed.png
p182
sVFallingRock
p183
VRock.png
p184
sVObelisk_Snow
p185
VObelisk_Snow.png
p186
ssS'obj'
p187
(lp188
(lp189
NaNaNaNaNaNaNaNaNaNaNaNaa(lp190
NaNaNaNaNaNaNaNaNaNaNaNaa(lp191
NaNaNaNaNaNaNaNaNaNaNaNaa(lp192
NaNaNaNaNaNaNaVPlayer_Start
p193
aNaNaNaNaa(lp194
NaNaNaNaNaNaNaNaNaNaNaNaa(lp195
NaNaNaNaNaNaVWalltorch
p196
aNaNaNaNaNaa(lp197
NaNaNaNaNaNaNaNaNaNaNaNaa(lp198
NaNaNaNaNaNaNaNaNaNaNaNaa(lp199
NaNaNaNaNaNaNaNaNaNaNaNaa(lp200
NaNaNaNaNaNaNaNaNaNaNaNaa(lp201
VFallingRock
p202
aNaNaNaNaNaNaNaVWalltorch
p203
aNaNaNaa(lp204
NaNaNaNaNaNaNaNaNaNaNaNaa(lp205
NaNaNaNaNaNaNaNaNaNaNaNaa(lp206
NaNaNaNaNaNaNaNaNaNaNaNaa(lp207
NaNaNaNaNaNaNaNaNaNaNaNaa(lp208
NaNaNaNaNaNaNaNaNaNaNaNaa(lp209
NaNaNaNaNaNaNaNaNaNaNaNaa(lp210
NaNaNaNaNaNaNaNaNaNaNaNaa(lp211
NaNaNaNaNaNaNaVShield
p212
aNaNaNaNaa(lp213
NaNaNaNaNaNaNaVSword
p214
aNaNaNaNaa(lp215
VFallingRock
p216
aNaNaNaNaNaNaNaNaNaNaNaa(lp217
NaNaNaNaNaNaNaNaNaNaNaNaa(lp218
NaNaNaNaNaNaNaNaNaNaNaNaa(lp219
NaNaNaNaNaNaNaNaNaNaNaNaa(lp220
NaNaNaNaNaNaNaNaNaNaNaNaa(lp221
NaNaNaNaNaNaNaNaNaNaNaNaa(lp222
NaNaNaNaNaNaNaNaNaNaNaNaa(lp223
NaNaNaNaVTreasureBoxB
p224
aNaNaNaNaNaNaNaa(lp225
NaNaNaNaNaNaNaNaNaNaNaNaa(lp226
NaNaNaNaNaNaNaNaNaNaNaNaa(lp227
NaNaNaNaVTreasureBoxB
p228
aNaNaNaNaNaNaNaa(lp229
NaNaNaNaNaNaNaNaNaNaNaNaa(lp230
NaNaNaNaNaNaNaNaNaNaNaNaa(lp231
NaNaNaNaNaNaNaNaNaNaNaNaa(lp232
NaNaNaNaNaNaNaNaNaNaNaNaa(lp233
NaNaNaNaNaNaNaNaNaNaNaNaa(lp234
NaNaNaNaNaNaNaNaNaNaNaNaa(lp235
NaNaNaNaNaNaNaNaNaNaNaNaa(lp236
NaNaNaNaNaNaNaNaNaNaNaNaa(lp237
NaNaNaNaNaNaNaNaNaNaVWalltorch
p238
aNaa(lp239
NaNaNaNaNaNaNaNaNaNaNaNaa(lp240
NaNaNaNaNaNaNaNaNaNaNaNaa(lp241
VFallingRock
p242
aNaNaNaNaNaNaNaNaNaNaNaa(lp243
NaNaNaNaNaNaNaNaNaNaNaNaa(lp244
NaNaNaNaNaNaNaNaNaNaNaNaa(lp245
NaNaNaNaNaNaNaNaNaNaNaNaa(lp246
NaNaNaNaNaNaNaNaNaNaNaNaa(lp247
NaNaNaNaNaNaNaNaVSword
p248
aNaNaNaa(lp249
NaNaNaNaNaNaNaNaNaNaNaNaa(lp250
NaNaNaNaNaNaNaNaVShield
p251
aNaNaNaa(lp252
NaNaNaNaNaNaNaNaVWalltorch
p253
aNaNaNaa(lp254
NaNaNaNaNaNaNaNaNaNaNaNaa(lp255
NaNaNaNaNaNaNaNaNaNaNaNaa(lp256
NaNaNaNaNaNaNaNaNaNaNaNaa(lp257
NaNaNaNaNaNaNaVTreasureBoxB
p258
aNaNaNaNaa(lp259
NaNaNaNaNaNaNaNaNaNaNaNaa(lp260
NaNaNaNaNaNaNaNaNaNaNaNaa(lp261
VFallingRock
p262
aNaNaNaNaNaVWalltorch
p263
aNaNaNaNaNaa(lp264
NaNaNaNaNaNaNaNaNaNaNaNaa(lp265
NaNaNaNaNaNaNaNaNaNaNaNaa(lp266
NaNaNaNaNaNaVShield
p267
aVTreasureBoxB
p268
aNaNaNaNaa(lp269
NaNaNaNaNaNaVSword
p270
aNaNaNaNaNaa(lp271
NaNaNaNaNaNaNaNaNaNaNaNaa(lp272
NaNaNaNaNaNaVWalltorch
p273
aNaNaNaNaNaa(lp274
NaNaNaNaNaNaNaNaNaNaNaNaa(lp275
NaNaNaNaNaNaNaNaNaNaNaNaa(lp276
NaNaNaNaNaNaNaNaNaNaNaNaa(lp277
NaNaNaNaNaNaNaNaNaNaNaNaa(lp278
NaNaNaNaNaNaNaNaNaNaNaNaa(lp279
NaNaNaNaNaNaNaNaNaNaNaNaa(lp280
NaNaNaNaNaNaNaVTreasureBoxB
p281
aNaNaNaNaa(lp282
NaNaNaNaNaNaNaNaNaNaNaNaa(lp283
NaNaNaNaNaNaNaNaNaNaNaNaa(lp284
NaNaNaNaNaNaNaNaNaNaNaNaa(lp285
NaNaNaNaNaNaNaNaNaNaNaNaa(lp286
VFallingRock
p287
aNaNaNaNaNaNaNaNaNaNaNaa(lp288
NaNaNaNaNaNaNaNaNaNaNaNaa(lp289
NaNaNaNaNaNaNaNaNaNaNaNaa(lp290
NaNaNaNaNaNaNaVWalltorch
p291
aNaNaNaNaa(lp292
NaNaNaNaNaNaNaNaNaNaNaNaa(lp293
VFallingRock
p294
aNaNaNaNaNaNaNaNaNaNaNaa(lp295
NaNaNaNaNaNaNaNaNaNaNaNaa(lp296
NaNaNaNaNaNaNaNaNaNaNaNaa(lp297
NaNaNaNaNaNaNaNaNaNaNaNaa(lp298
NaNaNaNaNaNaNaNaVTreasureBoxB
p299
aNaNaNaa(lp300
NaNaNaNaNaNaNaVWalltorch
p301
aNaNaNaNaa(lp302
NaNaNaNaNaNaNaNaNaNaNaNaa(lp303
NaNaNaNaNaNaNaNaNaNaNaNaa(lp304
NaNaNaNaNaNaNaNaVWalltorch
p305
aNaNaNaa(lp306
NaNaNaNaNaNaNaNaNaNaNaNaa(lp307
NaNaNaNaNaNaNaNaNaNaNaNaa(lp308
NaNaNaNaNaNaNaNaNaNaNaNaa(lp309
VFallingRock
p310
aNaNaNaNaNaNaNaNaNaNaNaa(lp311
NaNaNaNaNaNaNaNaNaNaNaNaa(lp312
NaNaNaNaNaNaNaNaVWalltorch
p313
aNaNaNaa(lp314
NaNaNaNaNaNaNaNaNaNaNaNaa(lp315
NaNaNaNaNaNaNaNaNaNaNaNaa(lp316
NaNaNaNaNaNaNaNaVTreasureBoxB
p317
aNaNaNaa(lp318
VFallingRock
p319
aNaNaNaNaNaNaNaNaNaNaNaa(lp320
NaNaNaNaNaNaNaNaVWalltorch
p321
aNaNaNaa(lp322
NaNaNaNaNaNaNaNaNaNaNaNaa(lp323
NaNaNaNaNaNaNaVSword
p324
aNaNaNaNaa(lp325
VFallingRock
p326
aNaNaNaNaNaNaVShield
p327
aNaNaNaNaa(lp328
VFallingRock
p329
aNaNaNaNaNaNaNaNaNaNaNaa(lp330
NaNaNaNaNaNaNaNaNaNaNaNaa(lp331
NaNaNaNaNaNaNaNaVLevel_End
p332
aNaNaNaa(lp333
NaNaNaNaNaNaNaNaNaNaNaNaa(lp334
NaNaNaNaNaNaNaNaNaNaNaNaa(lp335
NaNaNaNaNaNaNaNaNaNaNaNaa(lp336
NaNaNaNaNaNaNaNaNaNaNaNaa(lp337
NaNaNaNaNaNaNaNaNaNaNaNaa(lp338
NaNaNaNaNaNaNaNaNaNaNaNaa(lp339
NaNaNaNaNaNaNaNaNaNaNaNaa(lp340
NaNaNaNaNaNaNaNaNaNaNaNaa(lp341
NaNaNaNaNaNaNaNaNaNaNaNaa(lp342
NaNaNaNaNaNaNaNaNaNaNaNaa(lp343
NaNaNaNaNaNaNaNaNaNaNaNaa(lp344
NaNaNaNaNaNaNaNaNaNaNaNaa(lp345
NaNaNaNaNaNaNaNaNaNaNaNaa(lp346
NaNaNaNaNaNaNaNaNaNaNaNaa(lp347
NaNaNaNaNaNaNaNaNaNaNaNaa(lp348
NaNaNaNaNaNaNaNaNaNaNaNaa(lp349
NaNaNaNaNaNaNaNaNaNaNaNaa(lp350
NaNaNaNaNaNaNaNaNaNaNaNaa(lp351
NaNaNaNaNaNaNaNaNaNaNaNaa(lp352
NaNaNaNaNaNaNaNaNaNaNaNaa(lp353
NaNaNaNaNaNaNaNaNaNaNaNaa(lp354
NaNaNaNaNaNaNaNaNaNaNaNaasS'name'
p355
VCastle 2 whatever
p356
sS'map'
p357
(lp358
(lp359
NaNa(imapping
Tile
p360
(dp361
S'collidetype'
p362
S'BOX'
p363
sS'type'
p364
VC_Castle Floor 2
p365
sS'friction'
p366
F1
sS'overhead'
p367
I00
sba(imapping
Tile
p368
(dp369
g362
g363
sg364
VC_Castle Ground 1
p370
sg366
F1
sg367
I00
sba(imapping
Tile
p371
(dp372
g362
g363
sg364
VC_Castle Ground 1
p373
sg366
F1
sg367
I00
sba(imapping
Tile
p374
(dp375
g362
g363
sg364
VC_Castle Ground 1
p376
sg366
F1
sg367
I00
sba(imapping
Tile
p377
(dp378
g362
g363
sg364
VC_Castle Ground 1
p379
sg366
F1
sg367
I00
sba(imapping
Tile
p380
(dp381
g362
g363
sg364
VC_Castle Ground 1
p382
sg366
F1
sg367
I00
sba(imapping
Tile
p383
(dp384
g362
g363
sg364
VC_Castle Ground 1
p385
sg366
F1
sg367
I00
sba(imapping
Tile
p386
(dp387
g362
g363
sg364
VC_Castle Ground 1
p388
sg366
F1
sg367
I00
sba(imapping
Tile
p389
(dp390
g362
g363
sg364
VC_Castle Ground 1
p391
sg366
F1
sg367
I00
sba(imapping
Tile
p392
(dp393
g362
g363
sg364
VC_Castle Ground 1
p394
sg366
F1
sg367
I00
sbaa(lp395
NaNa(imapping
Tile
p396
(dp397
g362
g363
sg364
VC_Castle Floor Edge R
p398
sg366
F1
sg367
I00
sba(imapping
Tile
p399
(dp400
g362
g363
sg364
VC_Castle Wall L
p401
sg366
F1
sg367
I00
sba(imapping
Tile
p402
(dp403
g362
g363
sg364
VC_Castle Wall L
p404
sg366
F1
sg367
I00
sba(imapping
Tile
p405
(dp406
g362
g363
sg364
VC_Castle Wall L
p407
sg366
F1
sg367
I00
sba(imapping
Tile
p408
(dp409
g362
g363
sg364
VC_Castle Wall L
p410
sg366
F1
sg367
I00
sba(imapping
Tile
p411
(dp412
g362
g363
sg364
VC_Castle Wall L
p413
sg366
F1
sg367
I00
sba(imapping
Tile
p414
(dp415
g362
g363
sg364
VC_Castle Wall->Floor R
p416
sg366
F1
sg367
I00
sba(imapping
Tile
p417
(dp418
g362
g363
sg364
VC_Castle Ground 1
p419
sg366
F1
sg367
I00
sba(imapping
Tile
p420
(dp421
g362
g363
sg364
VC_Castle Ground 1
p422
sg366
F1
sg367
I00
sba(imapping
Tile
p423
(dp424
g362
g363
sg364
VC_Castle Ground 1
p425
sg366
F1
sg367
I00
sbaa(lp426
NaNaNaNaNaNaNaNa(imapping
Tile
p427
(dp428
g362
g363
sg364
VC_Castle Floor 2
p429
sg366
F1
sg367
I00
sba(imapping
Tile
p430
(dp431
g362
g363
sg364
VC_Castle Ground 1
p432
sg366
F1
sg367
I00
sba(imapping
Tile
p433
(dp434
g362
g363
sg364
VC_Castle Ground 1
p435
sg366
F1
sg367
I00
sba(imapping
Tile
p436
(dp437
g362
g363
sg364
VC_Castle Ground 1
p438
sg366
F1
sg367
I00
sbaa(lp439
NaNaNaNaNaNaNaNa(imapping
Tile
p440
(dp441
g362
g363
sg364
VC_Castle Floor 2
p442
sg366
F1
sg367
I00
sba(imapping
Tile
p443
(dp444
g362
g363
sg364
VC_Castle Ground 1
p445
sg366
F1
sg367
I00
sba(imapping
Tile
p446
(dp447
g362
g363
sg364
VC_Castle Ground 1
p448
sg366
F1
sg367
I00
sba(imapping
Tile
p449
(dp450
g362
g363
sg364
VC_Castle Ground 1
p451
sg366
F1
sg367
I00
sbaa(lp452
NaNaNaNaNaNaNaNa(imapping
Tile
p453
(dp454
g362
g363
sg364
VC_Castle Floor 2
p455
sg366
F1
sg367
I00
sba(imapping
Tile
p456
(dp457
g362
g363
sg364
VC_Castle Ground 1
p458
sg366
F1
sg367
I00
sba(imapping
Tile
p459
(dp460
g362
g363
sg364
VC_Castle Ground 1
p461
sg366
F1
sg367
I00
sba(imapping
Tile
p462
(dp463
g362
g363
sg364
VC_Castle Ground 1
p464
sg366
F1
sg367
I00
sbaa(lp465
NaNaNaNaNaNaNaNa(imapping
Tile
p466
(dp467
g362
g363
sg364
VC_Castle Floor 2
p468
sg366
F1
sg367
I00
sba(imapping
Tile
p469
(dp470
g362
g363
sg364
VC_Castle Ground 1
p471
sg366
F1
sg367
I00
sba(imapping
Tile
p472
(dp473
g362
g363
sg364
VC_Castle Ground 1
p474
sg366
F1
sg367
I00
sba(imapping
Tile
p475
(dp476
g362
g363
sg364
VC_Castle Ground 1
p477
sg366
F1
sg367
I00
sbaa(lp478
NaNaNaNaNaNaNaNa(imapping
Tile
p479
(dp480
g362
g363
sg364
VC_Castle Floor 2
p481
sg366
F1
sg367
I00
sba(imapping
Tile
p482
(dp483
g362
g363
sg364
VC_Castle Ground 1
p484
sg366
F1
sg367
I00
sba(imapping
Tile
p485
(dp486
g362
g363
sg364
VC_Castle Ground 1
p487
sg366
F1
sg367
I00
sba(imapping
Tile
p488
(dp489
g362
g363
sg364
VC_Castle Ground 1
p490
sg366
F1
sg367
I00
sbaa(lp491
NaNaNaNaNaNaNaNa(imapping
Tile
p492
(dp493
g362
S'LEFT_INCLINATION'
p494
sg364
VC_Castle HRL
p495
sg366
F1
sg367
I00
sba(imapping
Tile
p496
(dp497
g362
g363
sg364
VC_Castle HRmL
p498
sg366
F1
sg367
I00
sba(imapping
Tile
p499
(dp500
g362
g363
sg364
VC_Castle Ground 1
p501
sg366
F1
sg367
I00
sba(imapping
Tile
p502
(dp503
g362
g363
sg364
VC_Castle Ground 1
p504
sg366
F1
sg367
I00
sbaa(lp505
NaNaNaNaNaNaNaNaNa(imapping
Tile
p506
(dp507
g362
g363
sg364
VC_Castle Floor Edge R
p508
sg366
F1
sg367
I00
sba(imapping
Tile
p509
(dp510
g362
g363
sg364
VC_Castle Wall L
p511
sg366
F1
sg367
I00
sba(imapping
Tile
p512
(dp513
g362
g363
sg364
VC_Castle Wall L
p514
sg366
F1
sg367
I00
sbaa(lp515
NaNaNaNaNaNaNaNaNaNaNaNaa(lp516
NaNaNaNaNaNaNaNaNaNaNaNaa(lp517
NaNaNaNaNaNaNaNaNaNa(imapping
Tile
p518
(dp519
g362
g363
sg364
VC_Castle Floor Edge L
p520
sg366
F1
sg367
I00
sba(imapping
Tile
p521
(dp522
g362
g363
sg364
VC_Castle Wall R
p523
sg366
F1
sg367
I00
sbaa(lp524
NaNaNaNaNaNaNaNaNaNa(imapping
Tile
p525
(dp526
g362
g363
sg364
VC_Castle Floor 2
p527
sg366
F1
sg367
I00
sba(imapping
Tile
p528
(dp529
g362
g363
sg364
VC_Castle Ground 1
p530
sg366
F1
sg367
I00
sbaa(lp531
NaNaNaNaNaNaNaNaNaNa(imapping
Tile
p532
(dp533
g362
g363
sg364
VC_Castle Floor 2
p534
sg366
F1
sg367
I00
sba(imapping
Tile
p535
(dp536
g362
g363
sg364
VC_Castle Ground 1
p537
sg366
F1
sg367
I00
sbaa(lp538
NaNaNaNaNaNaNaNaNaNa(imapping
Tile
p539
(dp540
g362
g363
sg364
VC_Castle Floor 2
p541
sg366
F1
sg367
I00
sba(imapping
Tile
p542
(dp543
g362
g363
sg364
VC_Castle Ground 1
p544
sg366
F1
sg367
I00
sbaa(lp545
NaNaNaNaNaNaNaNaNa(imapping
Tile
p546
(dp547
g362
g363
sg364
VC_Castle Floor Edge L
p548
sg366
F1
sg367
I00
sba(imapping
Tile
p549
(dp550
g362
g363
sg364
VC_Castle Wall->Floor L
p551
sg366
F1
sg367
I00
sba(imapping
Tile
p552
(dp553
g362
g363
sg364
VC_Castle Ground 1
p554
sg366
F1
sg367
I00
sbaa(lp555
NaNaNaNaNaNaNaNaNa(imapping
Tile
p556
(dp557
g362
g363
sg364
VC_Castle Floor 3
p558
sg366
F1
sg367
I00
sba(imapping
Tile
p559
(dp560
g362
g363
sg364
VC_Castle Ground 1
p561
sg366
F1
sg367
I00
sba(imapping
Tile
p562
(dp563
g362
g363
sg364
VC_Castle Ground 1
p564
sg366
F1
sg367
I00
sbaa(lp565
NaNaNaNaNaNaNaNaNa(imapping
Tile
p566
(dp567
g362
g363
sg364
VC_Castle Floor 3
p568
sg366
F1
sg367
I00
sba(imapping
Tile
p569
(dp570
g362
g363
sg364
VC_Castle Ground 1
p571
sg366
F1
sg367
I00
sba(imapping
Tile
p572
(dp573
g362
g363
sg364
VC_Castle Ground 1
p574
sg366
F1
sg367
I00
sbaa(lp575
NaNaNaNaNaNaNaNaNa(imapping
Tile
p576
(dp577
g362
g363
sg364
VC_Castle Floor 3
p578
sg366
F1
sg367
I00
sba(imapping
Tile
p579
(dp580
g362
g363
sg364
VC_Castle Ground 1
p581
sg366
F1
sg367
I00
sba(imapping
Tile
p582
(dp583
g362
g363
sg364
VC_Castle Ground 1
p584
sg366
F1
sg367
I00
sbaa(lp585
NaNaNaNaNaNaNaNaNa(imapping
Tile
p586
(dp587
g362
g363
sg364
VC_Castle Floor 3
p588
sg366
F1
sg367
I00
sba(imapping
Tile
p589
(dp590
g362
g363
sg364
VC_Castle Ground 1
p591
sg366
F1
sg367
I00
sba(imapping
Tile
p592
(dp593
g362
g363
sg364
VC_Castle Ground 1
p594
sg366
F1
sg367
I00
sbaa(lp595
NaNaNaNaNaNaNaNaNa(imapping
Tile
p596
(dp597
g362
g363
sg364
VC_Castle Floor 3
p598
sg366
F1
sg367
I00
sba(imapping
Tile
p599
(dp600
g362
g363
sg364
VC_Castle Ground 1
p601
sg366
F1
sg367
I00
sba(imapping
Tile
p602
(dp603
g362
g363
sg364
VC_Castle Ground 1
p604
sg366
F1
sg367
I00
sbaa(lp605
NaNaNaNaNaNaNaNa(imapping
Tile
p606
(dp607
g362
S'RIGHT_INCLINATION'
p608
sg364
VC_Castle HRR
p609
sg366
F1
sg367
I00
sba(imapping
Tile
p610
(dp611
g362
g363
sg364
VC_Castle HRmR
p612
sg366
F1
sg367
I00
sba(imapping
Tile
p613
(dp614
g362
g363
sg364
VC_Castle Ground 1
p615
sg366
F1
sg367
I00
sba(imapping
Tile
p616
(dp617
g362
g363
sg364
VC_Castle Ground 1
p618
sg366
F1
sg367
I00
sbaa(lp619
NaNaNaNaNaNaNa(imapping
Tile
p620
(dp621
g362
g608
sg364
VC_Castle HRR
p622
sg366
F1
sg367
I00
sba(imapping
Tile
p623
(dp624
g362
g363
sg364
VC_Castle HRmR
p625
sg366
F1
sg367
I00
sba(imapping
Tile
p626
(dp627
g362
g363
sg364
VC_Castle Ground 1
p628
sg366
F1
sg367
I00
sba(imapping
Tile
p629
(dp630
g362
g363
sg364
VC_Castle Ground 1
p631
sg366
F1
sg367
I00
sba(imapping
Tile
p632
(dp633
g362
g363
sg364
VC_Castle Ground 1
p634
sg366
F1
sg367
I00
sbaa(lp635
NaNaNaNaNaNa(imapping
Tile
p636
(dp637
g362
g608
sg364
VC_Castle HRR
p638
sg366
F1
sg367
I00
sba(imapping
Tile
p639
(dp640
g362
g363
sg364
VC_Castle HRmR
p641
sg366
F1
sg367
I00
sba(imapping
Tile
p642
(dp643
g362
g363
sg364
VC_Castle Ground 1
p644
sg366
F1
sg367
I00
sba(imapping
Tile
p645
(dp646
g362
g363
sg364
VC_Castle Ground 1
p647
sg366
F1
sg367
I00
sba(imapping
Tile
p648
(dp649
g362
g363
sg364
VC_Castle Ground 1
p650
sg366
F1
sg367
I00
sba(imapping
Tile
p651
(dp652
g362
g363
sg364
VC_Castle Ground 1
p653
sg366
F1
sg367
I00
sbaa(lp654
NaNaNaNaNa(imapping
Tile
p655
(dp656
g362
g608
sg364
VC_Castle HRR
p657
sg366
F1
sg367
I00
sba(imapping
Tile
p658
(dp659
g362
g363
sg364
VC_Castle HRmR
p660
sg366
F1
sg367
I00
sba(imapping
Tile
p661
(dp662
g362
g363
sg364
VC_Castle Ground 1
p663
sg366
F1
sg367
I00
sba(imapping
Tile
p664
(dp665
g362
g363
sg364
VC_Castle Ground 1
p666
sg366
F1
sg367
I00
sba(imapping
Tile
p667
(dp668
g362
g363
sg364
VC_Castle Ground 1
p669
sg366
F1
sg367
I00
sba(imapping
Tile
p670
(dp671
g362
g363
sg364
VC_Castle Ground 1
p672
sg366
F1
sg367
I00
sba(imapping
Tile
p673
(dp674
g362
g363
sg364
VC_Castle Ground 1
p675
sg366
F1
sg367
I00
sbaa(lp676
NaNaNaNaNa(imapping
Tile
p677
(dp678
g362
g363
sg364
VC_Castle Floor 1
p679
sg366
F1
sg367
I00
sba(imapping
Tile
p680
(dp681
g362
g363
sg364
VC_Castle Ground 1
p682
sg366
F1
sg367
I00
sba(imapping
Tile
p683
(dp684
g362
g363
sg364
VC_Castle Ground 1
p685
sg366
F1
sg367
I00
sba(imapping
Tile
p686
(dp687
g362
g363
sg364
VC_Castle Ground 1
p688
sg366
F1
sg367
I00
sba(imapping
Tile
p689
(dp690
g362
g363
sg364
VC_Castle Ground 1
p691
sg366
F1
sg367
I00
sba(imapping
Tile
p692
(dp693
g362
g363
sg364
VC_Castle Ground 1
p694
sg366
F1
sg367
I00
sba(imapping
Tile
p695
(dp696
g362
g363
sg364
VC_Castle Ground 1
p697
sg366
F1
sg367
I00
sbaa(lp698
NaNaNaNaNa(imapping
Tile
p699
(dp700
g362
g363
sg364
VC_Castle Floor 1
p701
sg366
F1
sg367
I00
sba(imapping
Tile
p702
(dp703
g362
g363
sg364
VC_Castle Ground 1
p704
sg366
F1
sg367
I00
sba(imapping
Tile
p705
(dp706
g362
g363
sg364
VC_Castle Ground 1
p707
sg366
F1
sg367
I00
sba(imapping
Tile
p708
(dp709
g362
g363
sg364
VC_Castle Ground 1
p710
sg366
F1
sg367
I00
sba(imapping
Tile
p711
(dp712
g362
g363
sg364
VC_Castle Ground 1
p713
sg366
F1
sg367
I00
sba(imapping
Tile
p714
(dp715
g362
g363
sg364
VC_Castle Ground 1
p716
sg366
F1
sg367
I00
sba(imapping
Tile
p717
(dp718
g362
g363
sg364
VC_Castle Ground 1
p719
sg366
F1
sg367
I00
sbaa(lp720
NaNaNaNaNa(imapping
Tile
p721
(dp722
g362
g363
sg364
VC_Castle Floor 1
p723
sg366
F1
sg367
I00
sba(imapping
Tile
p724
(dp725
g362
g363
sg364
VC_Castle Ground 1
p726
sg366
F1
sg367
I00
sba(imapping
Tile
p727
(dp728
g362
g363
sg364
VC_Castle Ground 1
p729
sg366
F1
sg367
I00
sba(imapping
Tile
p730
(dp731
g362
g363
sg364
VC_Castle Ground 1
p732
sg366
F1
sg367
I00
sba(imapping
Tile
p733
(dp734
g362
g363
sg364
VC_Castle Ground 1
p735
sg366
F1
sg367
I00
sba(imapping
Tile
p736
(dp737
g362
g363
sg364
VC_Castle Ground 1
p738
sg366
F1
sg367
I00
sba(imapping
Tile
p739
(dp740
g362
g363
sg364
VC_Castle Ground 1
p741
sg366
F1
sg367
I00
sbaa(lp742
NaNaNaNa(imapping
Tile
p743
(dp744
g362
S'NONE'
p745
sg364
VC_Suit of Armour
p746
sg366
F1
sg367
I00
sba(imapping
Tile
p747
(dp748
g362
g363
sg364
VC_Castle Floor 1
p749
sg366
F1
sg367
I00
sba(imapping
Tile
p750
(dp751
g362
g363
sg364
VC_Castle Ground 1
p752
sg366
F1
sg367
I00
sba(imapping
Tile
p753
(dp754
g362
g363
sg364
VC_Castle Ground 1
p755
sg366
F1
sg367
I00
sba(imapping
Tile
p756
(dp757
g362
g363
sg364
VC_Castle Ground 1
p758
sg366
F1
sg367
I00
sba(imapping
Tile
p759
(dp760
g362
g363
sg364
VC_Castle Ground 1
p761
sg366
F1
sg367
I00
sba(imapping
Tile
p762
(dp763
g362
g363
sg364
VC_Castle Ground 1
p764
sg366
F1
sg367
I00
sba(imapping
Tile
p765
(dp766
g362
g363
sg364
VC_Castle Ground 1
p767
sg366
F1
sg367
I00
sbaa(lp768
NaNaNaNa(imapping
Tile
p769
(dp770
g362
g745
sg364
VC_Suit of Armour
p771
sg366
F1
sg367
I00
sba(imapping
Tile
p772
(dp773
g362
g363
sg364
VC_Castle Floor 1
p774
sg366
F1
sg367
I00
sba(imapping
Tile
p775
(dp776
g362
g363
sg364
VC_Castle Ground 1
p777
sg366
F1
sg367
I00
sba(imapping
Tile
p778
(dp779
g362
g363
sg364
VC_Castle Ground 1
p780
sg366
F1
sg367
I00
sba(imapping
Tile
p781
(dp782
g362
g363
sg364
VC_Castle Ground 1
p783
sg366
F1
sg367
I00
sba(imapping
Tile
p784
(dp785
g362
g363
sg364
VC_Castle Ground 1
p786
sg366
F1
sg367
I00
sba(imapping
Tile
p787
(dp788
g362
g363
sg364
VC_Castle Ground 1
p789
sg366
F1
sg367
I00
sba(imapping
Tile
p790
(dp791
g362
g363
sg364
VC_Castle Ground 1
p792
sg366
F1
sg367
I00
sbaa(lp793
NaNaNaNaNa(imapping
Tile
p794
(dp795
g362
g363
sg364
VC_Castle Floor 1
p796
sg366
F1
sg367
I00
sba(imapping
Tile
p797
(dp798
g362
g363
sg364
VC_Castle Ground 1
p799
sg366
F1
sg367
I00
sba(imapping
Tile
p800
(dp801
g362
g363
sg364
VC_Castle Ground 1
p802
sg366
F1
sg367
I00
sba(imapping
Tile
p803
(dp804
g362
g363
sg364
VC_Castle Ground 1
p805
sg366
F1
sg367
I00
sba(imapping
Tile
p806
(dp807
g362
g363
sg364
VC_Castle Ground 1
p808
sg366
F1
sg367
I00
sba(imapping
Tile
p809
(dp810
g362
g363
sg364
VC_Castle Ground 1
p811
sg366
F1
sg367
I00
sba(imapping
Tile
p812
(dp813
g362
g363
sg364
VC_Castle Ground 1
p814
sg366
F1
sg367
I00
sbaa(lp815
NaNaNaNaNa(imapping
Tile
p816
(dp817
g362
g363
sg364
VC_Castle Floor 1
p818
sg366
F1
sg367
I00
sba(imapping
Tile
p819
(dp820
g362
g363
sg364
VC_Castle Ground 1
p821
sg366
F1
sg367
I00
sba(imapping
Tile
p822
(dp823
g362
g363
sg364
VC_Castle Ground 1
p824
sg366
F1
sg367
I00
sba(imapping
Tile
p825
(dp826
g362
g363
sg364
VC_Castle Ground 1
p827
sg366
F1
sg367
I00
sba(imapping
Tile
p828
(dp829
g362
g363
sg364
VC_Castle Ground 1
p830
sg366
F1
sg367
I00
sba(imapping
Tile
p831
(dp832
g362
g363
sg364
VC_Castle Ground 1
p833
sg366
F1
sg367
I00
sba(imapping
Tile
p834
(dp835
g362
g363
sg364
VC_Castle Ground 1
p836
sg366
F1
sg367
I00
sbaa(lp837
NaNaNaNaNa(imapping
Tile
p838
(dp839
g362
g494
sg364
VC_Castle HRL
p840
sg366
F1
sg367
I00
sba(imapping
Tile
p841
(dp842
g362
g363
sg364
VC_Castle HRmL
p843
sg366
F1
sg367
I00
sba(imapping
Tile
p844
(dp845
g362
g363
sg364
VC_Castle Ground 1
p846
sg366
F1
sg367
I00
sba(imapping
Tile
p847
(dp848
g362
g363
sg364
VC_Castle Ground 1
p849
sg366
F1
sg367
I00
sba(imapping
Tile
p850
(dp851
g362
g363
sg364
VC_Castle Ground 1
p852
sg366
F1
sg367
I00
sba(imapping
Tile
p853
(dp854
g362
g363
sg364
VC_Castle Ground 1
p855
sg366
F1
sg367
I00
sba(imapping
Tile
p856
(dp857
g362
g363
sg364
VC_Castle Ground 1
p858
sg366
F1
sg367
I00
sbaa(lp859
NaNaNaNaNaNa(imapping
Tile
p860
(dp861
g362
g363
sg364
VC_Castle Floor Edge R
p862
sg366
F1
sg367
I00
sba(imapping
Tile
p863
(dp864
g362
g363
sg364
VC_Castle Wall L
p865
sg366
F1
sg367
I00
sba(imapping
Tile
p866
(dp867
g362
g363
sg364
VC_Castle Wall L
p868
sg366
F1
sg367
I00
sba(imapping
Tile
p869
(dp870
g362
g363
sg364
VC_Castle Wall L
p871
sg366
F1
sg367
I00
sba(imapping
Tile
p872
(dp873
g362
g363
sg364
VC_Castle Wall L
p874
sg366
F1
sg367
I00
sba(imapping
Tile
p875
(dp876
g362
g363
sg364
VC_Castle Wall L
p877
sg366
F1
sg367
I00
sbaa(lp878
NaNaNaNaNaNaNaNaNaNaNaNaa(lp879
NaNaNaNaNaNaNaNaNaNaNa(imapping
Tile
p880
(dp881
g362
g363
sg364
VC_Castle Floor Edge L
p882
sg366
F1
sg367
I00
sbaa(lp883
NaNaNaNaNaNaNaNaNaNa(imapping
Tile
p884
(dp885
g362
g745
sg364
VC_Suit of Armour
p886
sg366
F1
sg367
I00
sba(imapping
Tile
p887
(dp888
g362
g363
sg364
VC_Castle Floor 1
p889
sg366
F1
sg367
I00
sbaa(lp890
NaNaNaNaNaNaNaNaNaNaNa(imapping
Tile
p891
(dp892
g362
g363
sg364
VC_Castle Floor Edge R
p893
sg366
F1
sg367
I00
sbaa(lp894
NaNaNaNaNaNaNaNaNaNaNaNaa(lp895
NaNaNaNaNaNaNaNaNaNaNaNaa(lp896
NaNaNaNaNaNaNaNaNaNaNaNaa(lp897
NaNaNaNaNaNaNaNaNaNaNa(imapping
Tile
p898
(dp899
g362
g363
sg364
VC_Castle Floor Edge L
p900
sg366
F1
sg367
I00
sbaa(lp901
NaNaNaNaNaNaNaNaNaNaNa(imapping
Tile
p902
(dp903
g362
g363
sg364
VC_Castle Floor 1
p904
sg366
F1
sg367
I00
sbaa(lp905
NaNaNaNaNaNaNaNaNaNaNa(imapping
Tile
p906
(dp907
g362
g363
sg364
VC_Castle Floor Edge R
p908
sg366
F1
sg367
I00
sbaa(lp909
NaNaNaNaNaNaNaNaNaNaNaNaa(lp910
NaNaNaNaNaNaNaNaNaNaNaNaa(lp911
NaNaNaNaNaNaNaNaNaNa(imapping
Tile
p912
(dp913
g362
g363
sg364
VC_Castle Floor Edge L
p914
sg366
F1
sg367
I00
sba(imapping
Tile
p915
(dp916
g362
g363
sg364
VC_Castle Wall R
p917
sg366
F1
sg367
I00
sbaa(lp918
NaNaNaNaNaNaNaNaNaNa(imapping
Tile
p919
(dp920
g362
g363
sg364
VC_Castle Floor 1
p921
sg366
F1
sg367
I00
sba(imapping
Tile
p922
(dp923
g362
g363
sg364
VC_Castle Ground 2
p924
sg366
F1
sg367
I00
sbaa(lp925
NaNaNaNaNaNaNaNaNa(imapping
Tile
p926
(dp927
g362
g745
sg364
VC_Suit of Armour
p928
sg366
F1
sg367
I00
sba(imapping
Tile
p929
(dp930
g362
g363
sg364
VC_Castle Floor 1
p931
sg366
F1
sg367
I00
sba(imapping
Tile
p932
(dp933
g362
g363
sg364
VC_Castle Ground 2
p934
sg366
F1
sg367
I00
sbaa(lp935
NaNaNaNaNaNaNaNaNaNa(imapping
Tile
p936
(dp937
g362
g363
sg364
VC_Castle Floor 1
p938
sg366
F1
sg367
I00
sba(imapping
Tile
p939
(dp940
g362
g363
sg364
VC_Castle Ground 2
p941
sg366
F1
sg367
I00
sbaa(lp942
NaNaNaNaNaNaNaNaNaNa(imapping
Tile
p943
(dp944
g362
g363
sg364
VC_Castle Floor 1
p945
sg366
F1
sg367
I00
sba(imapping
Tile
p946
(dp947
g362
g363
sg364
VC_Castle Ground 1
p948
sg366
F1
sg367
I00
sbaa(lp949
NaNaNaNaNaNaNaNaNa(imapping
Tile
p950
(dp951
g362
g608
sg364
VC_Castle HRR
p952
sg366
F1
sg367
I00
sba(imapping
Tile
p953
(dp954
g362
g363
sg364
VC_Castle HRmR
p955
sg366
F1
sg367
I00
sba(imapping
Tile
p956
(dp957
g362
g363
sg364
VC_Castle Ground 2
p958
sg366
F1
sg367
I00
sbaa(lp959
NaNaNaNaNaNaNaNa(imapping
Tile
p960
(dp961
g362
g608
sg364
VC_Castle HRR
p962
sg366
F1
sg367
I00
sba(imapping
Tile
p963
(dp964
g362
g363
sg364
VC_Castle HRmR
p965
sg366
F1
sg367
I00
sba(imapping
Tile
p966
(dp967
g362
g363
sg364
VC_Castle Ground 2
p968
sg366
F1
sg367
I00
sba(imapping
Tile
p969
(dp970
g362
g363
sg364
VC_Castle Ground 2
p971
sg366
F1
sg367
I00
sbaa(lp972
NaNaNaNaNaNaNaNa(imapping
Tile
p973
(dp974
g362
g363
sg364
VC_Castle Floor 2
p975
sg366
F1
sg367
I00
sba(imapping
Tile
p976
(dp977
g362
g363
sg364
VC_Castle Ground 2
p978
sg366
F1
sg367
I00
sba(imapping
Tile
p979
(dp980
g362
g363
sg364
VC_Castle Ground 2
p981
sg366
F1
sg367
I00
sba(imapping
Tile
p982
(dp983
g362
g363
sg364
VC_Castle Ground 2
p984
sg366
F1
sg367
I00
sbaa(lp985
NaNaNaNaNaNaNaNa(imapping
Tile
p986
(dp987
g362
g363
sg364
VC_Castle Floor 3
p988
sg366
F1
sg367
I00
sba(imapping
Tile
p989
(dp990
g362
g363
sg364
VC_Castle Ground 2
p991
sg366
F1
sg367
I00
sba(imapping
Tile
p992
(dp993
g362
g363
sg364
VC_Castle Ground 1
p994
sg366
F1
sg367
I00
sba(imapping
Tile
p995
(dp996
g362
g363
sg364
VC_Castle Ground 1
p997
sg366
F1
sg367
I00
sbaa(lp998
NaNaNaNaNaNaNaNa(imapping
Tile
p999
(dp1000
g362
g363
sg364
VC_Castle Floor 2
p1001
sg366
F1
sg367
I00
sba(imapping
Tile
p1002
(dp1003
g362
g363
sg364
VC_Castle Ground 2
p1004
sg366
F1
sg367
I00
sba(imapping
Tile
p1005
(dp1006
g362
g363
sg364
VC_Castle Ground 2
p1007
sg366
F1
sg367
I00
sba(imapping
Tile
p1008
(dp1009
g362
g363
sg364
VC_Castle Ground 1
p1010
sg366
F1
sg367
I00
sbaa(lp1011
NaNaNaNaNaNaNa(imapping
Tile
p1012
(dp1013
g362
g745
sg364
VC_Suit of Armour
p1014
sg366
F1
sg367
I00
sba(imapping
Tile
p1015
(dp1016
g362
g363
sg364
VC_Castle Floor 3
p1017
sg366
F1
sg367
I00
sba(imapping
Tile
p1018
(dp1019
g362
g363
sg364
VC_Castle Ground 2
p1020
sg366
F1
sg367
I00
sba(imapping
Tile
p1021
(dp1022
g362
g363
sg364
VC_Castle Ground 2
p1023
sg366
F1
sg367
I00
sba(imapping
Tile
p1024
(dp1025
g362
g363
sg364
VC_Castle Ground 2
p1026
sg366
F1
sg367
I00
sbaa(lp1027
NaNaNaNaNaNaNaNa(imapping
Tile
p1028
(dp1029
g362
g363
sg364
VC_Castle Floor 3
p1030
sg366
F1
sg367
I00
sba(imapping
Tile
p1031
(dp1032
g362
g363
sg364
VC_Castle Ground 2
p1033
sg366
F1
sg367
I00
sba(imapping
Tile
p1034
(dp1035
g362
g363
sg364
VC_Castle Ground 2
p1036
sg366
F1
sg367
I00
sba(imapping
Tile
p1037
(dp1038
g362
g363
sg364
VC_Castle Ground 2
p1039
sg366
F1
sg367
I00
sbaa(lp1040
NaNaNaNaNaNaNa(imapping
Tile
p1041
(dp1042
g362
g745
sg364
VC_Suit of Armour
p1043
sg366
F1
sg367
I00
sba(imapping
Tile
p1044
(dp1045
g362
g363
sg364
VC_Castle Floor 1
p1046
sg366
F1
sg367
I00
sba(imapping
Tile
p1047
(dp1048
g362
g363
sg364
VC_Castle Ground 2
p1049
sg366
F1
sg367
I00
sba(imapping
Tile
p1050
(dp1051
g362
g363
sg364
VC_Castle Ground 1
p1052
sg366
F1
sg367
I00
sba(imapping
Tile
p1053
(dp1054
g362
g363
sg364
VC_Castle Ground 2
p1055
sg366
F1
sg367
I00
sbaa(lp1056
NaNaNaNaNaNaNaNa(imapping
Tile
p1057
(dp1058
g362
g363
sg364
VC_Castle Floor 1
p1059
sg366
F1
sg367
I00
sba(imapping
Tile
p1060
(dp1061
g362
g363
sg364
VC_Castle Ground 2
p1062
sg366
F1
sg367
I00
sba(imapping
Tile
p1063
(dp1064
g362
g363
sg364
VC_Castle Ground 1
p1065
sg366
F1
sg367
I00
sba(imapping
Tile
p1066
(dp1067
g362
g363
sg364
VC_Castle Ground 2
p1068
sg366
F1
sg367
I00
sbaa(lp1069
NaNaNaNaNaNaNaNa(imapping
Tile
p1070
(dp1071
g362
g363
sg364
VC_Castle Floor 4
p1072
sg366
F1
sg367
I00
sba(imapping
Tile
p1073
(dp1074
g362
g363
sg364
VC_Castle Ground 2
p1075
sg366
F1
sg367
I00
sba(imapping
Tile
p1076
(dp1077
g362
g363
sg364
VC_Castle Ground 2
p1078
sg366
F1
sg367
I00
sba(imapping
Tile
p1079
(dp1080
g362
g363
sg364
VC_Castle Ground 2
p1081
sg366
F1
sg367
I00
sbaa(lp1082
NaNaNaNaNaNaNaNa(imapping
Tile
p1083
(dp1084
g362
g363
sg364
VC_Castle Floor 3
p1085
sg366
F1
sg367
I00
sba(imapping
Tile
p1086
(dp1087
g362
g363
sg364
VC_Castle Ground 2
p1088
sg366
F1
sg367
I00
sba(imapping
Tile
p1089
(dp1090
g362
g363
sg364
VC_Castle Ground 1
p1091
sg366
F1
sg367
I00
sba(imapping
Tile
p1092
(dp1093
g362
g363
sg364
VC_Castle Ground 1
p1094
sg366
F1
sg367
I00
sbaa(lp1095
NaNaNaNaNaNaNaNa(imapping
Tile
p1096
(dp1097
g362
g494
sg364
VC_Castle HRL
p1098
sg366
F1
sg367
I00
sba(imapping
Tile
p1099
(dp1100
g362
g363
sg364
VC_Castle HRmL
p1101
sg366
F1
sg367
I00
sba(imapping
Tile
p1102
(dp1103
g362
g363
sg364
VC_Castle Ground 2
p1104
sg366
F1
sg367
I00
sba(imapping
Tile
p1105
(dp1106
g362
g363
sg364
VC_Castle Ground 2
p1107
sg366
F1
sg367
I00
sbaa(lp1108
NaNaNaNaNaNaNaNaNa(imapping
Tile
p1109
(dp1110
g362
g363
sg364
VC_Castle Floor Edge R
p1111
sg366
F1
sg367
I00
sba(imapping
Tile
p1112
(dp1113
g362
g363
sg364
VC_Castle Wall L
p1114
sg366
F1
sg367
I00
sba(imapping
Tile
p1115
(dp1116
g362
g363
sg364
VC_Castle Wall L
p1117
sg366
F1
sg367
I00
sbaa(lp1118
NaNaNaNaNaNaNaNaNaNaNaNaa(lp1119
NaNaNaNaNaNaNaNaNa(imapping
Tile
p1120
(dp1121
g362
g363
sg364
VC_Castle Floor Edge L
p1122
sg366
F1
sg367
I00
sba(imapping
Tile
p1123
(dp1124
g362
g363
sg364
VC_Castle Wall R
p1125
sg366
F1
sg367
I00
sba(imapping
Tile
p1126
(dp1127
g362
g363
sg364
VC_Castle Wall R
p1128
sg366
F1
sg367
I00
sbaa(lp1129
NaNaNaNaNaNaNaNa(imapping
Tile
p1130
(dp1131
g362
g608
sg364
VC_Castle HRR
p1132
sg366
F1
sg367
I00
sba(imapping
Tile
p1133
(dp1134
g362
g363
sg364
VC_Castle HRmR
p1135
sg366
F1
sg367
I00
sba(imapping
Tile
p1136
(dp1137
g362
g363
sg364
VC_Castle Ground 2
p1138
sg366
F1
sg367
I00
sba(imapping
Tile
p1139
(dp1140
g362
g363
sg364
VC_Castle Ground 2
p1141
sg366
F1
sg367
I00
sbaa(lp1142
NaNaNaNaNaNaNa(imapping
Tile
p1143
(dp1144
g362
g745
sg364
VC_Suit of Armour
p1145
sg366
F1
sg367
I00
sba(imapping
Tile
p1146
(dp1147
g362
g363
sg364
VC_Castle Floor 2
p1148
sg366
F1
sg367
I00
sba(imapping
Tile
p1149
(dp1150
g362
g363
sg364
VC_Castle Ground 2
p1151
sg366
F1
sg367
I00
sba(imapping
Tile
p1152
(dp1153
g362
g363
sg364
VC_Castle Ground 2
p1154
sg366
F1
sg367
I00
sba(imapping
Tile
p1155
(dp1156
g362
g363
sg364
VC_Castle Ground 2
p1157
sg366
F1
sg367
I00
sbaa(lp1158
NaNaNaNaNaNaNaNa(imapping
Tile
p1159
(dp1160
g362
g494
sg364
VC_Castle HRL
p1161
sg366
F1
sg367
I00
sba(imapping
Tile
p1162
(dp1163
g362
g363
sg364
VC_Castle HRmL
p1164
sg366
F1
sg367
I00
sba(imapping
Tile
p1165
(dp1166
g362
g363
sg364
VC_Castle Ground 1
p1167
sg366
F1
sg367
I00
sba(imapping
Tile
p1168
(dp1169
g362
g363
sg364
VC_Castle Ground 1
p1170
sg366
F1
sg367
I00
sbaa(lp1171
NaNaNaNaNaNaNaNa(imapping
Tile
p1172
(dp1173
g362
g608
sg364
VC_Castle HRR
p1174
sg366
F1
sg367
I00
sba(imapping
Tile
p1175
(dp1176
g362
g363
sg364
VC_Castle HRmR
p1177
sg366
F1
sg367
I00
sba(imapping
Tile
p1178
(dp1179
g362
g363
sg364
VC_Castle Ground 2
p1180
sg366
F1
sg367
I00
sba(imapping
Tile
p1181
(dp1182
g362
g363
sg364
VC_Castle Ground 1
p1183
sg366
F1
sg367
I00
sbaa(lp1184
NaNaNaNaNaNaNaNa(imapping
Tile
p1185
(dp1186
g362
g363
sg364
VC_Castle Floor 2
p1187
sg366
F1
sg367
I00
sba(imapping
Tile
p1188
(dp1189
g362
g363
sg364
VC_Castle Ground 2
p1190
sg366
F1
sg367
I00
sba(imapping
Tile
p1191
(dp1192
g362
g363
sg364
VC_Castle Ground 2
p1193
sg366
F1
sg367
I00
sba(imapping
Tile
p1194
(dp1195
g362
g363
sg364
VC_Castle Ground 2
p1196
sg366
F1
sg367
I00
sbaa(lp1197
NaNaNaNaNaNaNaNa(imapping
Tile
p1198
(dp1199
g362
g494
sg364
VC_Castle HRL
p1200
sg366
F1
sg367
I00
sba(imapping
Tile
p1201
(dp1202
g362
g363
sg364
VC_Castle HRmL
p1203
sg366
F1
sg367
I00
sba(imapping
Tile
p1204
(dp1205
g362
g363
sg364
VC_Castle Ground 2
p1206
sg366
F1
sg367
I00
sba(imapping
Tile
p1207
(dp1208
g362
g363
sg364
VC_Castle Ground 2
p1209
sg366
F1
sg367
I00
sbaa(lp1210
NaNaNaNaNaNaNaNaNa(imapping
Tile
p1211
(dp1212
g362
g363
sg364
VC_Castle Floor 2
p1213
sg366
F1
sg367
I00
sba(imapping
Tile
p1214
(dp1215
g362
g363
sg364
VC_Castle Ground 1
p1216
sg366
F1
sg367
I00
sba(imapping
Tile
p1217
(dp1218
g362
g363
sg364
VC_Castle Ground 1
p1219
sg366
F1
sg367
I00
sbaa(lp1220
NaNaNaNaNaNaNaNa(imapping
Tile
p1221
(dp1222
g362
g608
sg364
VC_Castle HRR
p1223
sg366
F1
sg367
I00
sba(imapping
Tile
p1224
(dp1225
g362
g363
sg364
VC_Castle HRmR
p1226
sg366
F1
sg367
I00
sba(imapping
Tile
p1227
(dp1228
g362
g363
sg364
VC_Castle Ground 2
p1229
sg366
F1
sg367
I00
sba(imapping
Tile
p1230
(dp1231
g362
g363
sg364
VC_Castle Ground 2
p1232
sg366
F1
sg367
I00
sbaa(lp1233
NaNaNaNaNaNaNaNa(imapping
Tile
p1234
(dp1235
g362
g494
sg364
VC_Castle HRL
p1236
sg366
F1
sg367
I00
sba(imapping
Tile
p1237
(dp1238
g362
g363
sg364
VC_Castle HRmL
p1239
sg366
F1
sg367
I00
sba(imapping
Tile
p1240
(dp1241
g362
g363
sg364
VC_Castle Ground 2
p1242
sg366
F1
sg367
I00
sba(imapping
Tile
p1243
(dp1244
g362
g363
sg364
VC_Castle Ground 2
p1245
sg366
F1
sg367
I00
sbaa(lp1246
NaNaNaNaNaNaNaNaNa(imapping
Tile
p1247
(dp1248
g362
g363
sg364
VC_Castle Floor 2
p1249
sg366
F1
sg367
I00
sba(imapping
Tile
p1250
(dp1251
g362
g363
sg364
VC_Castle Ground 2
p1252
sg366
F1
sg367
I00
sba(imapping
Tile
p1253
(dp1254
g362
g363
sg364
VC_Castle Ground 2
p1255
sg366
F1
sg367
I00
sbaa(lp1256
NaNaNaNaNaNaNaNa(imapping
Tile
p1257
(dp1258
g362
g608
sg364
VC_Castle HRR
p1259
sg366
F1
sg367
I00
sba(imapping
Tile
p1260
(dp1261
g362
g363
sg364
VC_Castle HRmR
p1262
sg366
F1
sg367
I00
sba(imapping
Tile
p1263
(dp1264
g362
g363
sg364
VC_Castle Ground 2
p1265
sg366
F1
sg367
I00
sba(imapping
Tile
p1266
(dp1267
g362
g363
sg364
VC_Castle Ground 1
p1268
sg366
F1
sg367
I00
sbaa(lp1269
NaNaNaNaNaNaNaNa(imapping
Tile
p1270
(dp1271
g362
g494
sg364
VC_Castle HRL
p1272
sg366
F1
sg367
I00
sba(imapping
Tile
p1273
(dp1274
g362
g363
sg364
VC_Castle HRmL
p1275
sg366
F1
sg367
I00
sba(imapping
Tile
p1276
(dp1277
g362
g363
sg364
VC_Castle Ground 2
p1278
sg366
F1
sg367
I00
sba(imapping
Tile
p1279
(dp1280
g362
g363
sg364
VC_Castle Ground 2
p1281
sg366
F1
sg367
I00
sbaa(lp1282
NaNaNaNaNaNaNaNaNa(imapping
Tile
p1283
(dp1284
g362
g363
sg364
VC_Castle Floor 4
p1285
sg366
F1
sg367
I00
sba(imapping
Tile
p1286
(dp1287
g362
g363
sg364
VC_Castle Ground 2
p1288
sg366
F1
sg367
I00
sba(imapping
Tile
p1289
(dp1290
g362
g363
sg364
VC_Castle Ground 1
p1291
sg366
F1
sg367
I00
sbaa(lp1292
NaNaNaNaNaNaNaNaNa(imapping
Tile
p1293
(dp1294
g362
g363
sg364
VC_Castle Floor 4
p1295
sg366
F1
sg367
I00
sba(imapping
Tile
p1296
(dp1297
g362
g363
sg364
VC_Castle Ground 2
p1298
sg366
F1
sg367
I00
sba(imapping
Tile
p1299
(dp1300
g362
g363
sg364
VC_Castle Ground 2
p1301
sg366
F1
sg367
I00
sbaa(lp1302
NaNaNaNaNaNaNaNaNa(imapping
Tile
p1303
(dp1304
g362
g363
sg364
VC_Castle Floor 4
p1305
sg366
F1
sg367
I00
sba(imapping
Tile
p1306
(dp1307
g362
g363
sg364
VC_Castle Ground 2
p1308
sg366
F1
sg367
I00
sba(imapping
Tile
p1309
(dp1310
g362
g363
sg364
VC_Castle Ground 1
p1311
sg366
F1
sg367
I00
sbaa(lp1312
NaNaNaNaNaNaNaNa(imapping
Tile
p1313
(dp1314
g362
g745
sg364
VC_Suit of Armour
p1315
sg366
F1
sg367
I00
sba(imapping
Tile
p1316
(dp1317
g362
g363
sg364
VC_Castle Floor 2
p1318
sg366
F1
sg367
I00
sba(imapping
Tile
p1319
(dp1320
g362
g363
sg364
VC_Castle Ground 1
p1321
sg366
F1
sg367
I00
sba(imapping
Tile
p1322
(dp1323
g362
g363
sg364
VC_Castle Ground 2
p1324
sg366
F1
sg367
I00
sbaa(lp1325
NaNaNaNaNaNaNaNaNa(imapping
Tile
p1326
(dp1327
g362
g363
sg364
VC_Castle Floor 2
p1328
sg366
F1
sg367
I00
sba(imapping
Tile
p1329
(dp1330
g362
g363
sg364
VC_Castle Ground 1
p1331
sg366
F1
sg367
I00
sba(imapping
Tile
p1332
(dp1333
g362
g363
sg364
VC_Castle Ground 1
p1334
sg366
F1
sg367
I00
sbaa(lp1335
NaNaNaNaNaNaNaNaNa(imapping
Tile
p1336
(dp1337
g362
g363
sg364
VC_Castle Floor 2
p1338
sg366
F1
sg367
I00
sba(imapping
Tile
p1339
(dp1340
g362
g363
sg364
VC_Castle Ground 1
p1341
sg366
F1
sg367
I00
sba(imapping
Tile
p1342
(dp1343
g362
g363
sg364
VC_Castle Ground 1
p1344
sg366
F1
sg367
I00
sbaa(lp1345
NaNaNaNaNaNaNaNaNa(imapping
Tile
p1346
(dp1347
g362
g363
sg364
VC_Castle Floor 2
p1348
sg366
F1
sg367
I00
sba(imapping
Tile
p1349
(dp1350
g362
g363
sg364
VC_Castle Ground 2
p1351
sg366
F1
sg367
I00
sba(imapping
Tile
p1352
(dp1353
g362
g363
sg364
VC_Castle Ground 2
p1354
sg366
F1
sg367
I00
sbaa(lp1355
NaNaNaNaNaNaNaNaNa(imapping
Tile
p1356
(dp1357
g362
g363
sg364
VC_Castle Floor 2
p1358
sg366
F1
sg367
I00
sba(imapping
Tile
p1359
(dp1360
g362
g363
sg364
VC_Castle Ground 1
p1361
sg366
F1
sg367
I00
sba(imapping
Tile
p1362
(dp1363
g362
g363
sg364
VC_Castle Ground 1
p1364
sg366
F1
sg367
I00
sbaa(lp1365
NaNaNaNaNaNaNaNaNa(imapping
Tile
p1366
(dp1367
g362
g363
sg364
VC_Castle Floor Edge R
p1368
sg366
F1
sg367
I00
sba(imapping
Tile
p1369
(dp1370
g362
g363
sg364
VC_Castle Wall L
p1371
sg366
F1
sg367
I00
sba(imapping
Tile
p1372
(dp1373
g362
g363
sg364
VC_Castle Wall L
p1374
sg366
F1
sg367
I00
sbaa(lp1375
NaNaNaNaNaNaNaNaNaNaNaNaa(lp1376
NaNaNaNaNaNaNaNaNaNaNaNaa(lp1377
NaNaNaNaNaNaNaNaNaNaNaNaa(lp1378
NaNaNaNaNaNaNaNaNa(imapping
Tile
p1379
(dp1380
g362
g363
sg364
VC_Castle Floor Edge L
p1381
sg366
F1
sg367
I00
sba(imapping
Tile
p1382
(dp1383
g362
g363
sg364
VC_Castle Wall R
p1384
sg366
F1
sg367
I00
sba(imapping
Tile
p1385
(dp1386
g362
g363
sg364
VC_Castle Wall R
p1387
sg366
F1
sg367
I00
sbaa(lp1388
NaNaNaNaNaNaNaNaNa(imapping
Tile
p1389
(dp1390
g362
g363
sg364
VC_Castle Floor 2
p1391
sg366
F1
sg367
I00
sba(imapping
Tile
p1392
(dp1393
g362
g363
sg364
VC_Castle Ground 1
p1394
sg366
F1
sg367
I00
sba(imapping
Tile
p1395
(dp1396
g362
g363
sg364
VC_Castle Ground 1
p1397
sg366
F1
sg367
I00
sbaa(lp1398
NaNaNaNaNaNaNaNaNa(imapping
Tile
p1399
(dp1400
g362
g363
sg364
VC_Castle Floor Edge R
p1401
sg366
F1
sg367
I00
sba(imapping
Tile
p1402
(dp1403
g362
g363
sg364
VC_Castle Wall L
p1404
sg366
F1
sg367
I00
sba(imapping
Tile
p1405
(dp1406
g362
g363
sg364
VC_Castle Wall L
p1407
sg366
F1
sg367
I00
sbaa(lp1408
NaNaNaNaNaNaNaNaNaNaNaNaa(lp1409
NaNaNaNaNaNaNaNaNaNaNaNaa(lp1410
NaNaNaNaNaNaNaNaNaNaNaNaa(lp1411
NaNaNaNaNaNaNaNaNa(imapping
Tile
p1412
(dp1413
g362
g363
sg364
VC_Castle Floor Edge L
p1414
sg366
F1
sg367
I00
sba(imapping
Tile
p1415
(dp1416
g362
g363
sg364
VC_Castle Wall R
p1417
sg366
F1
sg367
I00
sba(imapping
Tile
p1418
(dp1419
g362
g363
sg364
VC_Castle Wall R
p1420
sg366
F1
sg367
I00
sbaa(lp1421
NaNaNaNaNaNaNaNaNa(imapping
Tile
p1422
(dp1423
g362
g363
sg364
VC_Castle Floor Edge R
p1424
sg366
F1
sg367
I00
sba(imapping
Tile
p1425
(dp1426
g362
g363
sg364
VC_Castle Wall L
p1427
sg366
F1
sg367
I00
sba(imapping
Tile
p1428
(dp1429
g362
g363
sg364
VC_Castle Wall L
p1430
sg366
F1
sg367
I00
sbaa(lp1431
NaNaNaNaNaNaNaNaNaNaNaNaa(lp1432
NaNaNaNaNaNaNaNaNaNaNaNaa(lp1433
NaNaNaNaNaNaNaNaNaNaNaNaa(lp1434
NaNaNaNaNaNaNaNaNa(imapping
Tile
p1435
(dp1436
g362
g363
sg364
VC_Castle Floor Edge L
p1437
sg366
F1
sg367
I00
sba(imapping
Tile
p1438
(dp1439
g362
g363
sg364
VC_Castle Wall R
p1440
sg366
F1
sg367
I00
sba(imapping
Tile
p1441
(dp1442
g362
g363
sg364
VC_Castle Wall R
p1443
sg366
F1
sg367
I00
sbaa(lp1444
NaNaNaNaNaNaNaNaNa(imapping
Tile
p1445
(dp1446
g362
g363
sg364
VC_Castle Floor 2
p1447
sg366
F1
sg367
I00
sba(imapping
Tile
p1448
(dp1449
g362
g363
sg364
VC_Castle Ground 1
p1450
sg366
F1
sg367
I00
sba(imapping
Tile
p1451
(dp1452
g362
g363
sg364
VC_Castle Ground 1
p1453
sg366
F1
sg367
I00
sbaa(lp1454
NaNaNaNaNaNaNaNa(imapping
Tile
p1455
(dp1456
g362
g745
sg364
VC_Suit of Armour
p1457
sg366
F1
sg367
I00
sba(imapping
Tile
p1458
(dp1459
g362
g363
sg364
VC_Castle Floor 2
p1460
sg366
F1
sg367
I00
sba(imapping
Tile
p1461
(dp1462
g362
g363
sg364
VC_Castle Ground 2
p1463
sg366
F1
sg367
I00
sba(imapping
Tile
p1464
(dp1465
g362
g363
sg364
VC_Castle Ground 1
p1466
sg366
F1
sg367
I00
sbaa(lp1467
NaNaNaNaNaNaNaNa(imapping
Tile
p1468
(dp1469
g362
g745
sg364
VC_Suit of Armour
p1470
sg366
F1
sg367
I00
sba(imapping
Tile
p1471
(dp1472
g362
g363
sg364
VC_Castle Floor 2
p1473
sg366
F1
sg367
I00
sba(imapping
Tile
p1474
(dp1475
g362
g363
sg364
VC_Castle Ground 1
p1476
sg366
F1
sg367
I00
sba(imapping
Tile
p1477
(dp1478
g362
g363
sg364
VC_Castle Ground 1
p1479
sg366
F1
sg367
I00
sbaa(lp1480
NaNaNaNaNaNaNaNaNa(imapping
Tile
p1481
(dp1482
g362
g363
sg364
VC_Castle Floor 4
p1483
sg366
F1
sg367
I00
sba(imapping
Tile
p1484
(dp1485
g362
g363
sg364
VC_Castle Ground 1
p1486
sg366
F1
sg367
I00
sba(imapping
Tile
p1487
(dp1488
g362
g363
sg364
VC_Castle Ground 2
p1489
sg366
F1
sg367
I00
sbaa(lp1490
NaNaNaNaNaNaNaNa(imapping
Tile
p1491
(dp1492
g362
g745
sg364
VC_Suit of Armour
p1493
sg366
F1
sg367
I00
sba(imapping
Tile
p1494
(dp1495
g362
g363
sg364
VC_Castle Floor 2
p1496
sg366
F1
sg367
I00
sba(imapping
Tile
p1497
(dp1498
g362
g363
sg364
VC_Castle Ground 1
p1499
sg366
F1
sg367
I00
sba(imapping
Tile
p1500
(dp1501
g362
g363
sg364
VC_Castle Ground 2
p1502
sg366
F1
sg367
I00
sbaa(lp1503
NaNaNaNaNaNaNaNa(imapping
Tile
p1504
(dp1505
g362
g745
sg364
VC_Suit of Armour
p1506
sg366
F1
sg367
I00
sba(imapping
Tile
p1507
(dp1508
g362
g363
sg364
VC_Castle Floor 2
p1509
sg366
F1
sg367
I00
sba(imapping
Tile
p1510
(dp1511
g362
g363
sg364
VC_Castle Ground 1
p1512
sg366
F1
sg367
I00
sba(imapping
Tile
p1513
(dp1514
g362
g363
sg364
VC_Castle Ground 1
p1515
sg366
F1
sg367
I00
sbaa(lp1516
NaNaNaNaNaNaNaNaNa(imapping
Tile
p1517
(dp1518
g362
g363
sg364
VC_Castle Floor 4
p1519
sg366
F1
sg367
I00
sba(imapping
Tile
p1520
(dp1521
g362
g363
sg364
VC_Castle Ground 1
p1522
sg366
F1
sg367
I00
sba(imapping
Tile
p1523
(dp1524
g362
g363
sg364
VC_Castle Ground 2
p1525
sg366
F1
sg367
I00
sbaa(lp1526
NaNaNaNaNaNaNaNaNa(imapping
Tile
p1527
(dp1528
g362
g363
sg364
VC_Castle Floor 2
p1529
sg366
F1
sg367
I00
sba(imapping
Tile
p1530
(dp1531
g362
g363
sg364
VC_Castle Ground 1
p1532
sg366
F1
sg367
I00
sba(imapping
Tile
p1533
(dp1534
g362
g363
sg364
VC_Castle Ground 1
p1535
sg366
F1
sg367
I00
sbaa(lp1536
NaNaNaNaNaNaNaNaNa(imapping
Tile
p1537
(dp1538
g362
g363
sg364
VC_Castle Floor 4
p1539
sg366
F1
sg367
I00
sba(imapping
Tile
p1540
(dp1541
g362
g363
sg364
VC_Castle Ground 2
p1542
sg366
F1
sg367
I00
sba(imapping
Tile
p1543
(dp1544
g362
g363
sg364
VC_Castle Ground 1
p1545
sg366
F1
sg367
I00
sbaa(lp1546
NaNaNaNaNaNaNaNaNa(imapping
Tile
p1547
(dp1548
g362
g363
sg364
VC_Castle Floor 2
p1549
sg366
F1
sg367
I00
sba(imapping
Tile
p1550
(dp1551
g362
g363
sg364
VC_Castle Ground 1
p1552
sg366
F1
sg367
I00
sba(imapping
Tile
p1553
(dp1554
g362
g363
sg364
VC_Castle Ground 1
p1555
sg366
F1
sg367
I00
sbaa(lp1556
NaNaNaNaNaNaNaNaNa(imapping
Tile
p1557
(dp1558
g362
g363
sg364
VC_Castle Floor 2
p1559
sg366
F1
sg367
I00
sba(imapping
Tile
p1560
(dp1561
g362
g363
sg364
VC_Castle Ground 1
p1562
sg366
F1
sg367
I00
sba(imapping
Tile
p1563
(dp1564
g362
g363
sg364
VC_Castle Ground 2
p1565
sg366
F1
sg367
I00
sbaa(lp1566
NaNaNaNaNaNaNaNaNa(imapping
Tile
p1567
(dp1568
g362
g363
sg364
VC_Castle Floor 4
p1569
sg366
F1
sg367
I00
sba(imapping
Tile
p1570
(dp1571
g362
g363
sg364
VC_Castle Ground 1
p1572
sg366
F1
sg367
I00
sba(imapping
Tile
p1573
(dp1574
g362
g363
sg364
VC_Castle Ground 2
p1575
sg366
F1
sg367
I00
sbaa(lp1576
NaNaNaNaNaNaNaNaNa(imapping
Tile
p1577
(dp1578
g362
g363
sg364
VC_Castle Floor 2
p1579
sg366
F1
sg367
I00
sba(imapping
Tile
p1580
(dp1581
g362
g363
sg364
VC_Castle Ground 1
p1582
sg366
F1
sg367
I00
sba(imapping
Tile
p1583
(dp1584
g362
g363
sg364
VC_Castle Ground 2
p1585
sg366
F1
sg367
I00
sbaa(lp1586
NaNaNaNaNaNaNaNaNa(imapping
Tile
p1587
(dp1588
g362
g363
sg364
VC_Castle Floor 2
p1589
sg366
F1
sg367
I00
sba(imapping
Tile
p1590
(dp1591
g362
g363
sg364
VC_Castle Ground 1
p1592
sg366
F1
sg367
I00
sba(imapping
Tile
p1593
(dp1594
g362
g363
sg364
VC_Castle Ground 2
p1595
sg366
F1
sg367
I00
sbaa(lp1596
NaNaNaNaNaNaNaNaNa(imapping
Tile
p1597
(dp1598
g362
g363
sg364
VC_Castle Floor 2
p1599
sg366
F1
sg367
I00
sba(imapping
Tile
p1600
(dp1601
g362
g363
sg364
VC_Castle Ground 1
p1602
sg366
F1
sg367
I00
sba(imapping
Tile
p1603
(dp1604
g362
g363
sg364
VC_Castle Ground 1
p1605
sg366
F1
sg367
I00
sbaa(lp1606
NaNaNaNaNaNaNaNaNa(imapping
Tile
p1607
(dp1608
g362
g363
sg364
VC_Castle Floor 2
p1609
sg366
F1
sg367
I00
sba(imapping
Tile
p1610
(dp1611
g362
g363
sg364
VC_Castle Ground 1
p1612
sg366
F1
sg367
I00
sba(imapping
Tile
p1613
(dp1614
g362
g363
sg364
VC_Castle Ground 1
p1615
sg366
F1
sg367
I00
sbaa(lp1616
NaNaNaNaNaNaNaNaNa(imapping
Tile
p1617
(dp1618
g362
g363
sg364
VC_Castle Floor 2
p1619
sg366
F1
sg367
I00
sba(imapping
Tile
p1620
(dp1621
g362
g363
sg364
VC_Castle Ground 1
p1622
sg366
F1
sg367
I00
sba(imapping
Tile
p1623
(dp1624
g362
g363
sg364
VC_Castle Ground 2
p1625
sg366
F1
sg367
I00
sbaa(lp1626
NaNaNaNaNaNaNaNaNa(imapping
Tile
p1627
(dp1628
g362
g363
sg364
VC_Castle Floor 2
p1629
sg366
F1
sg367
I00
sba(imapping
Tile
p1630
(dp1631
g362
g363
sg364
VC_Castle Ground 1
p1632
sg366
F1
sg367
I00
sba(imapping
Tile
p1633
(dp1634
g362
g363
sg364
VC_Castle Ground 2
p1635
sg366
F1
sg367
I00
sbaa(lp1636
NaNaNaNaNaNaNaNaNa(imapping
Tile
p1637
(dp1638
g362
g363
sg364
VC_Castle Floor 2
p1639
sg366
F1
sg367
I00
sbaNaNaa(lp1640
NaNaNaNaNaNaNaNaNa(imapping
Tile
p1641
(dp1642
g362
g363
sg364
VC_Castle Floor 2
p1643
sg366
F1
sg367
I00
sbaNaNaa(lp1644
NaNaNaNaNaNaNaNaNa(imapping
Tile
p1645
(dp1646
g362
g363
sg364
VC_Castle Floor 2
p1647
sg366
F1
sg367
I00
sbaNaNaa(lp1648
NaNaNaNaNaNaNaNaNaNaNaNaa(lp1649
NaNaNaNaNaNaNaNaNaNaNaNaa(lp1650
NaNaNaNaNaNaNaNaNaNaNaNaa(lp1651
NaNaNaNaNaNaNaNaNaNaNaNaa(lp1652
NaNaNaNaNaNaNaNaNaNaNaNaasS'bgmusic'
p1653
Vcastle2.ogg
p1654
sS'theme'
p1655
VCastle
p1656
sS'endef'
p1657
(dp1658
VBoss_Radkelu
p1659
Vboss_radkelu
p1660
sVCSpider
p1661
Vcspider
p1662
sVSnowOgre
p1663
Vsnowogre
p1664
sVWasp
p1665
Vwasp
p1666
sVPoisPod
p1667
Vpoispod
p1668
sVSpider
p1669
Vspider
p1670
sVSnowBat
p1671
Vsnowbat
p1672
sVWorm
p1673
Vworm
p1674
sVGiantJelly
p1675
Vgiantjelly
p1676
sVPod
p1677
Vpod
p1678
sVGiantWorm
p1679
Vgiantworm
p1680
ssS'tiledef'
p1681
(dp1682
VS_bLRamp
p1683
Vsnow_blramp.png
p1684
sViC_Ice
p1685
Vcaveice.png
p1686
sVF_Dirt_R2
p1687
Vdirtr_edge2.png
p1688
sVF_Dirt_R1
p1689
Vdirtr_edge1.png
p1690
sVS_Railing_1
p1691
Vsnow_railing1.png
p1692
sVS_Railing_2
p1693
Vsnow_railing2.png
p1694
sVC_Suit of Armour
p1695
Vsuit_armour.png
p1696
sVS_UCleft
p1697
Vsnow_undercorner_left.png
p1698
sVF_Right_Halframp1
p1699
VR_HR1.png
p1700
sVF_Right_Halframp2
p1701
VR_HR2.png
p1702
sVF_GrassRedge
p1703
Vgrassr_edge.png
p1704
sVS_ECleft
p1705
Vsnow_edgecorner_left.png
p1706
sViC_wr2
p1707
Vcavewr2.png
p1708
sVF_Tuft1
p1709
Vtuft1.png
p1710
sVF_Tuft2
p1711
Vtuft2.png
p1712
sVS_Tree
p1713
Vsnow_tree.png
p1714
sVF_Grass
p1715
Vgrass.png
p1716
sVS_Railing_L
p1717
Vsnow_railing_left.png
p1718
sVC_Castle HRR
p1719
Vcstl_hr_r.png
p1720
sVS_RRamp
p1721
Vsnow_rramp.png
p1722
sVC_Castle HRL
p1723
Vcstl_hr_l.png
p1724
sVS_Pillar
p1725
Vsnow_pillar.png
p1726
sVS_Railing_R
p1727
Vsnow_railing_right.png
p1728
sVS_Tree2
p1729
Vsnow_tree2.png
p1730
sVS_Ground1
p1731
Vsnow_ground1.png
p1732
sVF_Stump
p1733
Vtreestump.png
p1734
sVC_Castle Ground 2
p1735
Vcstl_ground2.png
p1736
sVC_Castle Ground 3
p1737
Vcstl_ground3.png
p1738
sVC_Castle Ground 1
p1739
Vcstl_ground1.png
p1740
sVS_Snow2
p1741
Vsnow_snow2.png
p1742
sVF_Grass_Alt_5
p1743
Vgrassc5.png
p1744
sViC_jl
p1745
Vcavejl.png
p1746
sVS_bRRamp
p1747
Vsnow_brramp.png
p1748
sViC_TopL
p1749
Vcavetl.png
p1750
sViC_Floor 1
p1751
Vcavefloor1.png
p1752
sViC_Floor 3
p1753
Vcavefloor3.png
p1754
sViC_Floor 2
p1755
Vcavefloor2.png
p1756
sViC_TopR
p1757
Vcavetr.png
p1758
sViC_jr
p1759
Vcavejr.png
p1760
sVC_Castle Floor 2
p1761
Vcstl_floor2.png
p1762
sVS_Snow
p1763
Vsnow_snow.png
p1764
sVF_Grass_Alt_2
p1765
Vgrassc2.png
p1766
sVF_ExitSign
p1767
Vexitsign.png
p1768
sVF_Grass->Dirttop
p1769
Vgrassmdirt.png
p1770
sVS_UCright
p1771
Vsnow_undercorner_right.png
p1772
sVS_Pillartop
p1773
Vsnow_pillartop.png
p1774
sViC_wr
p1775
Vcavewr.png
p1776
sVF_Dirttop->Grass
p1777
Vdirtmgrass.png
p1778
sVS_ECright
p1779
Vsnow_edgecorner_right.png
p1780
sVC_Castle HRmL
p1781
Vcstl_hr_m_l.png
p1782
sVC_Castle Wall L
p1783
Vcstl_wleft.png
p1784
sVC_Castle Wall R
p1785
Vcstl_wright.png
p1786
sVC_Castle HRmR
p1787
Vcstl_hr_m_r.png
p1788
sVF_Ice
p1789
Vtile5.png
p1790
sViC_wl
p1791
Vcavewl.png
p1792
sVC_Castle Floor 4
p1793
Vcstl_floor4.png
p1794
sVF_Grass_Alt_4
p1795
Vgrassc4.png
p1796
sVF_Grass_Alt_1
p1797
Vgrassc1.png
p1798
sVC_Castle Floor 1
p1799
Vcstl_floor1.png
p1800
sVF_Grass_Alt_3
p1801
Vgrassc3.png
p1802
sVC_Castle Floor 3
p1803
Vcstl_floor3.png
p1804
sVS_edgewleft1
p1805
Vsnow_edgewall_left1.png
p1806
sVS_edgewleft2
p1807
Vsnow_edgewall_left2.png
p1808
sVS_UCJright
p1809
Vsnow_undercorner_join_right.png
p1810
sVS_LRamp
p1811
Vsnow_lramp.png
p1812
sVC_Castle Floor Edge R
p1813
Vcstl_floor_edge_right.png
p1814
sVF_Dirt_L1
p1815
Vdirtl_edge1.png
p1816
sVF_Dirt_L2
p1817
Vdirtl_edge2.png
p1818
sVC_Castle Floor Edge L
p1819
Vcstl_floor_edge_left.png
p1820
sVF_Left_Halframp2
p1821
VL_HR2.png
p1822
sVF_Left_Halframp1
p1823
VL_HR1.png
p1824
sVF_Shrooms2
p1825
Vshrooms2.png
p1826
sVF_Shrooms3
p1827
Vshrooms3.png
p1828
sVF_Shrooms1
p1829
Vshrooms1.png
p1830
sVF_RampJoinL
p1831
Vramp_mid_dirt_l.png
p1832
sVC_Castle Wall->Floor R
p1833
Vcstl_wfright.png
p1834
sVF_RampJoinR
p1835
Vramp_mid_dirt_r.png
p1836
sVF_GrassLedge
p1837
Vgrassl_edge.png
p1838
sVS_Stones
p1839
Vsnow_stones.png
p1840
sVS_edgeright
p1841
Vsnow_edge_right.png
p1842
sVS_edgewright2
p1843
Vsnow_edgewall_right2.png
p1844
sVS_edgewright1
p1845
Vsnow_edgewall_right1.png
p1846
sVF_Dirtb
p1847
Vdirtb.png
p1848
sVF_Right_Ramp
p1849
VR_R.png
p1850
sVF_HalframpJoinL
p1851
Vhalframp_mid_dirt_l.png
p1852
sVF_Dirt_BL
p1853
Vdirtl_bedge.png
p1854
sVF_HalframpJoinR
p1855
Vhalframp_mid_dirt_r.png
p1856
sVF_Dirt_BR
p1857
Vdirtr_bedge.png
p1858
sVF_Dirtb2
p1859
Vdirtb2.png
p1860
sVF_Left_Ramp
p1861
VL_R.png
p1862
sVC_Castle Wall->Floor L
p1863
Vcstl_wfleft.png
p1864
sVS_UCJleft
p1865
Vsnow_undercorner_join_left.png
p1866
sVF_Dirt
p1867
Vdirt.png
p1868
sVF_Grass->DirtL
p1869
Vgrass_dirt_l.png
p1870
sVS_edgeleft
p1871
Vsnow_edge_left.png
p1872
sVF_Dirttop
p1873
Vdirttop.png
p1874
sVF_Dirt_Alt_4
p1875
Vdirtc4.png
p1876
sVF_Dirt_Alt_3
p1877
Vdirtc3.png
p1878
sVF_Dirt_Alt_2
p1879
Vdirtc2.png
p1880
sVF_Dirt_Alt_1
p1881
Vdirtc1.png
p1882
sVF_Grass->DirtR
p1883
Vgrass_dirt_r.png
p1884
sViC_wl2
p1885
Vcavewl2.png
p1886
ssb.