(imapping
Map
p1
(dp2
S'enemy'
p3
(lp4
(lp5
NaNaNaNaNaNaNaNaNaNaNaNaa(lp6
NaNaNaNaNaNaNaNaNaNaNaNaa(lp7
NaNaNaNaNaNaNaNaNaNaNaNaa(lp8
NaNaNaNaNaNaNaNaNaNaNaNaa(lp9
NaNaNaNaNaNaNaNaNaNaNaNaa(lp10
NaNaNaNaNaNaNaNaNaNaNaNaa(lp11
NaNaNaNaNaNaNaNaNaNaNaNaa(lp12
NaNaNaNaNaNaNaNaNaNaNaNaa(lp13
NaNaNaNaNaNaNaNaNaNaNaNaa(lp14
NaNaNaNaNaNaNaNaNaNaNaNaa(lp15
NaNaNaNaNaNaNaNaNaNaNaNaa(lp16
NaNaNaNaNaNaNaNaNaNaNaNaa(lp17
NaNaNaNaNaNaNaNaNaNaNaNaa(lp18
NaNaNaNaNaNaNaNaNaNaNaNaa(lp19
NaNaNaNaNaNaNaNaNaNaNaNaa(lp20
NaNaNaNaNaNaNaNaNaNaNaNaa(lp21
NaNaNaNaNaNaNaNaNaNaNaNaa(lp22
NaNaNaNaNaNaNaNaNaNaNaNaa(lp23
NaNaNaNaNaNaNaNaNaNaNaNaa(lp24
NaNaNaNaNaNaNaNaNaNaNaNaa(lp25
NaNaNaNaNaNaNaNaNaNaNaNaa(lp26
NaNaNaNaNaNaNaNaNaNaNaNaa(lp27
NaNaNaNaNaNaNaNaNaNaNaNaa(lp28
NaNaNaNaNaNaNaNaNaNaNaNaa(lp29
NaNaNaNaNaNaNaNaNaNaNaNaa(lp30
NaNaNaNaNaNaNaNaNaNaNaNaa(lp31
NaNaNaNaNaNaNaNaNaNaNaNaa(lp32
NaNaNaNaNaNaNaNaNaNaNaNaa(lp33
NaNaNaNaNaNaNaNaNaNaNaNaa(lp34
NaNaNaNaNaNaNaNaNaNaNaNaa(lp35
NaNaNaNaNaNaNaNaNaNaNaNaa(lp36
NaNaNaNaNaNaNaNaNaNaNaNaa(lp37
NaNaNaNaNaNaNaNaNaNaNaNaa(lp38
NaNaNaNaNaNaNaNaNaNaNaNaa(lp39
NaNaNaNaNaNaVCSpider
p40
aNaNaNaNaNaa(lp41
NaNaNaNaNaNaNaNaNaNaNaNaa(lp42
NaNaNaNaNaNaNaNaNaNaNaNaa(lp43
NaNaNaNaNaNaNaNaNaNaNaNaa(lp44
NaNaNaNaNaNaNaNaNaNaNaNaa(lp45
NaNaNaNaNaNaNaNaNaNaNaNaa(lp46
NaNaNaNaNaNaNaVCSpider
p47
aNaNaNaNaa(lp48
NaNaNaNaNaNaVCSpider
p49
aNaNaNaNaNaa(lp50
NaNaNaNaNaNaNaNaNaNaNaNaa(lp51
NaNaNaNaNaNaNaNaNaNaNaNaa(lp52
NaNaNaNaNaNaNaNaNaNaNaNaa(lp53
NaNaNaNaNaNaNaNaNaNaNaNaa(lp54
NaNaNaNaNaNaNaNaNaNaNaNaa(lp55
NaNaNaNaNaNaNaNaNaNaNaNaa(lp56
NaNaNaNaNaNaNaNaNaNaNaNaa(lp57
NaNaNaNaNaNaNaNaNaNaNaNaa(lp58
NaNaNaNaNaNaNaNaNaNaNaNaa(lp59
NaNaNaNaNaNaNaNaNaNaNaNaa(lp60
NaNaNaNaNaNaNaNaNaNaNaNaa(lp61
NaNaNaNaNaNaNaNaNaNaNaNaa(lp62
NaNaNaNaNaNaNaNaNaNaNaNaa(lp63
NaNaNaVCSpider
p64
aNaNaNaNaNaNaNaNaa(lp65
NaNaNaNaNaNaNaNaNaNaNaNaa(lp66
NaNaNaNaNaNaNaNaNaNaNaNaa(lp67
NaNaNaNaNaNaNaNaNaNaNaNaa(lp68
NaNaNaNaNaNaVCSpider
p69
aNaNaNaNaNaa(lp70
NaNaNaNaNaNaNaNaNaNaNaNaa(lp71
NaNaNaNaNaNaNaNaNaNaNaNaa(lp72
NaNaNaNaNaNaNaNaNaNaNaNaa(lp73
NaNaNaNaNaNaNaNaNaNaNaNaa(lp74
NaNaNaNaNaNaNaNaNaNaNaNaa(lp75
NaNaNaVCSpider
p76
aNaNaNaNaNaNaNaNaa(lp77
NaNaNaNaNaNaNaNaNaNaNaNaa(lp78
NaNaNaVCSpider
p79
aNaNaNaNaNaNaNaNaa(lp80
NaNaNaNaNaNaNaNaNaNaNaNaa(lp81
NaNaNaNaNaNaNaNaNaNaNaNaa(lp82
NaNaNaNaNaNaNaNaNaNaNaNaa(lp83
NaNaNaNaNaNaNaNaNaNaNaNaa(lp84
NaNaNaNaNaNaNaNaNaNaNaNaa(lp85
NaNaNaNaNaNaNaNaNaNaNaNaa(lp86
NaNaNaNaNaNaNaNaNaNaNaNaa(lp87
NaNaNaNaNaNaVCSpider
p88
aNaNaNaNaNaa(lp89
NaNaNaNaNaNaVCSpider
p90
aNaNaNaNaNaa(lp91
NaNaNaNaNaNaNaNaNaNaNaNaa(lp92
NaNaNaNaNaNaVCSpider
p93
aNaNaNaNaNaa(lp94
NaNaNaNaNaNaVCSpider
p95
aNaNaNaNaNaa(lp96
NaNaNaNaNaNaNaNaNaNaNaNaa(lp97
NaNaNaNaNaNaNaNaNaNaNaNaa(lp98
NaNaNaNaNaNaNaNaNaNaNaNaa(lp99
NaNaNaNaNaNaNaNaNaNaNaNaa(lp100
NaNaNaNaNaNaNaNaNaNaNaNaa(lp101
NaNaNaNaNaNaNaNaNaNaNaNaa(lp102
NaNaNaNaNaNaNaNaNaNaNaNaa(lp103
NaNaNaNaNaNaNaNaNaNaNaNaa(lp104
NaNaNaNaNaNaNaNaNaNaNaNaa(lp105
NaNaNaNaNaNaNaNaNaNaNaNaa(lp106
NaNaNaNaNaNaNaNaNaNaNaNaa(lp107
NaNaNaNaNaNaNaNaNaNaNaNaa(lp108
NaNaNaNaNaVCSpider
p109
aNaNaNaNaNaNaa(lp110
NaNaNaNaNaNaNaNaNaNaNaNaa(lp111
NaNaNaNaNaNaNaNaNaNaNaNaa(lp112
NaNaNaNaNaNaNaNaNaNaNaNaa(lp113
NaNaNaNaNaNaNaNaNaNaNaNaa(lp114
NaNaNaNaNaNaNaNaNaNaNaNaa(lp115
NaNaNaNaNaNaNaNaNaNaNaNaa(lp116
NaNaNaNaNaNaNaNaNaNaNaNaa(lp117
NaNaNaNaNaNaNaNaNaNaNaNaa(lp118
NaNaNaNaNaNaNaNaNaNaNaNaa(lp119
NaNaNaNaNaNaNaNaNaNaNaNaa(lp120
NaNaNaNaNaNaNaNaNaNaNaNaa(lp121
NaNaNaNaNaNaNaNaNaNaNaNaa(lp122
NaNaNaNaNaNaNaNaNaNaNaNaa(lp123
NaNaNaNaNaNaNaNaNaNaNaNaa(lp124
NaNaNaNaNaNaNaNaNaNaNaNaa(lp125
NaNaNaNaNaNaNaNaNaNaNaNaa(lp126
NaNaNaNaNaNaNaNaNaNaNaNaa(lp127
NaNaNaNaNaNaNaNaNaNaNaNaa(lp128
NaNaNaNaNaNaNaNaNaNaNaNaa(lp129
NaNaNaNaNaNaNaNaNaNaNaNaa(lp130
NaNaNaNaNaNaNaNaNaNaNaNaa(lp131
NaNaNaNaNaNaNaNaNaNaNaNaa(lp132
NaNaNaNaNaNaNaNaNaNaNaNaa(lp133
NaNaNaNaNaNaNaNaNaNaNaNaa(lp134
NaNaNaNaNaNaNaNaNaNaNaNaa(lp135
NaNaNaNaNaNaNaNaNaNaNaNaa(lp136
NaNaNaNaNaNaNaNaNaNaNaNaa(lp137
NaNaNaNaNaNaNaNaNaNaNaNaa(lp138
NaNaNaNaNaNaNaNaNaNaNaNaa(lp139
NaNaNaNaNaNaNaNaNaNaNaNaa(lp140
NaNaNaNaNaNaNaNaNaNaNaNaa(lp141
NaNaNaNaNaNaNaNaNaNaNaNaa(lp142
NaNaNaNaNaNaNaNaNaNaNaNaa(lp143
NaNaNaNaNaNaNaNaNaNaNaNaa(lp144
NaNaNaNaNaNaNaNaNaNaNaNaasS'objdef'
p145
(dp146
VButterfly
p147
VButterfly.png
p148
sVLevel_End
p149
VEnd.png
p150
sVShield
p151
VShield.png
p152
sVPlayer_Start
p153
VStart.png
p154
sVLever_Snow
p155
VLever1.png
p156
sVTorchref
p157
VTorchref.png
p158
sVWalltorch
p159
VWalltorch.png
p160
sVFirepit
p161
VPit.png
p162
sVSign
p163
VSign.png
p164
sVButterflyC
p165
VButterflyC.png
p166
sVButterflyB
p167
VButterflyB.png
p168
sVSword
p169
VSword.png
p170
sVTreasureBoxC
p171
VTreasureC_Closed.png
p172
sVTreasureBoxB
p173
VTreasureB_Closed.png
p174
sVTreasureBox
p175
VTreasure_Closed.png
p176
sVFallingRock
p177
VRock.png
p178
sVObelisk_Snow
p179
VObelisk_Snow.png
p180
ssS'obj'
p181
(lp182
(lp183
NaNaNaNaNaNaNaNaNaNaNaNaa(lp184
NaNaNaNaNaNaNaNaNaNaNaNaa(lp185
NaNaNaNaNaNaNaNaNaNaNaNaa(lp186
NaNaNaNaNaNaNaNaNaVPlayer_Start
p187
aNaNaa(lp188
NaNaNaNaNaNaNaVWalltorch
p189
aNaNaVTorchref
p190
aNaa(lp191
NaNaNaNaNaNaNaNaNaNaNaNaa(lp192
NaNaNaNaNaNaNaNaNaNaNaNaa(lp193
NaNaNaNaNaNaNaNaNaNaNaNaa(lp194
NaNaNaNaNaNaNaNaNaNaNaNaa(lp195
NaNaNaNaNaNaNaVTreasureBoxB
p196
aNaNaNaNaa(lp197
NaNaNaNaNaNaNaNaNaNaNaNaa(lp198
NaNaNaNaNaNaNaNaNaNaNaNaa(lp199
NaNaNaNaNaNaNaNaNaNaNaNaa(lp200
NaNaNaNaNaNaNaNaNaNaNaNaa(lp201
NaNaNaNaNaNaNaNaNaNaNaNaa(lp202
NaNaNaVWalltorch
p203
aVShield
p204
aNaVTorchref
p205
aNaNaNaNaNaa(lp206
NaNaNaNaVSword
p207
aNaNaNaNaNaNaNaa(lp208
NaNaNaNaNaNaNaNaNaNaNaNaa(lp209
NaNaNaNaNaNaNaNaNaNaNaNaa(lp210
NaNaNaNaNaNaNaNaNaNaNaNaa(lp211
NaNaNaNaNaNaNaNaNaNaNaNaa(lp212
NaNaNaNaNaNaNaNaNaNaNaNaa(lp213
NaNaNaNaNaNaNaNaNaNaNaNaa(lp214
NaNaNaNaNaNaNaNaNaNaNaNaa(lp215
NaNaNaNaNaNaNaVWalltorch
p216
aNaNaNaNaa(lp217
NaNaNaNaNaNaNaNaNaNaNaNaa(lp218
NaNaNaNaNaNaNaNaVSword
p219
aNaNaNaa(lp220
NaNaNaNaNaNaNaNaNaNaNaNaa(lp221
NaNaNaNaNaNaNaNaNaVTreasureBoxB
p222
aNaNaa(lp223
NaNaNaNaNaNaNaNaNaNaNaNaa(lp224
NaNaNaNaNaNaNaNaNaNaNaNaa(lp225
NaNaNaNaNaNaNaNaNaNaNaNaa(lp226
NaNaNaNaNaNaVShield
p227
aNaNaNaNaNaa(lp228
NaNaNaNaNaNaVSword
p229
aNaNaNaNaNaa(lp230
NaNaNaNaNaNaNaNaNaNaNaNaa(lp231
NaNaNaNaNaNaNaVWalltorch
p232
aNaNaNaNaa(lp233
NaNaNaNaNaNaNaNaNaNaNaNaa(lp234
NaNaNaNaNaNaNaNaNaNaNaNaa(lp235
NaNaNaNaNaNaVWalltorch
p236
aNaNaNaNaNaa(lp237
NaNaNaNaNaNaNaNaNaNaNaNaa(lp238
NaNaNaNaNaNaNaNaNaNaNaNaa(lp239
NaNaNaNaNaNaNaNaNaNaNaNaa(lp240
NaNaNaNaNaNaNaNaNaNaNaNaa(lp241
NaNaNaNaNaNaNaNaNaNaNaNaa(lp242
NaNaNaNaNaNaNaNaNaNaNaNaa(lp243
NaNaNaNaNaNaNaNaNaNaNaNaa(lp244
NaNaNaNaNaNaNaNaNaNaNaNaa(lp245
NaNaNaNaNaVWalltorch
p246
aNaNaNaNaNaNaa(lp247
NaNaNaNaNaNaNaNaNaNaNaNaa(lp248
NaNaNaNaNaNaNaNaNaNaNaNaa(lp249
NaNaNaNaNaNaNaNaNaNaNaNaa(lp250
NaNaNaNaNaNaNaNaNaNaNaNaa(lp251
NaNaNaNaNaVTreasureBoxB
p252
aNaNaNaNaNaNaa(lp253
NaNaNaNaNaNaNaNaNaNaNaNaa(lp254
NaNaNaNaNaNaNaNaNaNaNaNaa(lp255
NaNaNaNaNaVWalltorch
p256
aNaNaNaNaNaNaa(lp257
NaNaNaNaNaNaNaNaNaNaNaNaa(lp258
NaNaNaNaNaNaNaNaNaNaNaNaa(lp259
NaNaNaNaNaNaNaNaNaNaNaNaa(lp260
NaNaNaNaNaNaNaNaNaNaNaNaa(lp261
NaNaNaNaNaNaNaNaNaNaNaNaa(lp262
NaNaNaNaNaNaNaNaNaNaNaNaa(lp263
NaNaNaNaNaNaNaNaNaNaNaNaa(lp264
NaNaNaNaNaNaNaNaNaNaNaNaa(lp265
NaNaNaNaNaNaNaNaNaNaNaNaa(lp266
NaNaNaNaNaNaNaNaNaNaNaNaa(lp267
NaNaNaNaNaNaNaNaNaNaNaNaa(lp268
NaNaNaNaNaNaNaNaNaNaNaNaa(lp269
NaNaNaNaNaNaNaNaNaNaNaNaa(lp270
NaNaNaVWalltorch
p271
aNaNaNaNaNaNaNaNaa(lp272
NaNaNaNaNaNaNaNaNaNaNaNaa(lp273
NaNaNaNaNaNaNaNaNaNaNaNaa(lp274
NaNaNaNaNaNaNaNaNaNaNaNaa(lp275
NaNaNaNaNaNaNaNaNaNaNaNaa(lp276
NaNaNaNaNaNaNaNaNaNaNaNaa(lp277
NaNaNaNaNaNaNaNaNaNaNaNaa(lp278
NaNaNaNaNaNaNaNaNaNaNaNaa(lp279
VFallingRock
p280
aNaNaNaNaNaVWalltorch
p281
aNaNaNaNaNaa(lp282
NaNaNaNaNaNaNaNaNaNaNaNaa(lp283
NaNaNaNaNaNaNaNaNaNaNaNaa(lp284
NaNaNaNaNaNaNaNaNaNaNaNaa(lp285
NaNaNaNaNaNaVShield
p286
aNaNaNaNaNaa(lp287
NaNaNaNaNaNaVSword
p288
aNaNaNaNaNaa(lp289
NaNaNaNaNaNaNaNaNaNaNaNaa(lp290
NaNaNaNaNaNaNaNaNaNaNaNaa(lp291
VFallingRock
p292
aNaNaNaNaNaNaNaNaNaNaNaa(lp293
NaNaNaNaNaNaNaNaNaNaNaNaa(lp294
NaNaNaNaNaNaNaNaNaNaNaNaa(lp295
NaNaNaNaNaNaNaNaNaNaNaNaa(lp296
NaNaNaNaNaNaNaNaNaNaNaNaa(lp297
NaNaNaNaNaNaNaNaNaNaNaNaa(lp298
NaNaNaNaNaNaNaNaNaNaNaNaa(lp299
NaNaNaNaNaNaNaNaNaNaNaNaa(lp300
NaNaNaNaNaNaNaNaNaNaNaNaa(lp301
VFallingRock
p302
aNaNaNaNaNaNaNaNaNaNaNaa(lp303
NaNaNaNaNaNaNaNaNaNaNaNaa(lp304
NaNaNaNaNaNaNaNaNaNaNaNaa(lp305
NaNaNaNaNaVWalltorch
p306
aNaNaNaNaNaNaa(lp307
NaNaNaNaNaNaNaNaNaNaNaNaa(lp308
NaNaNaNaNaNaNaNaNaNaNaNaa(lp309
NaNaNaNaNaNaNaNaNaNaNaNaa(lp310
NaNaNaNaNaNaNaNaNaNaNaNaa(lp311
NaNaNaNaNaNaNaNaNaNaNaNaa(lp312
NaNaNaNaNaNaVLevel_End
p313
aNaNaNaNaNaa(lp314
NaNaNaNaNaNaNaNaNaNaNaNaa(lp315
NaNaNaNaNaVWalltorch
p316
aNaNaNaNaNaNaa(lp317
NaNaNaNaNaNaNaNaNaNaNaNaa(lp318
NaNaNaNaNaNaNaNaNaNaNaNaa(lp319
NaNaNaNaNaNaNaNaNaNaNaNaa(lp320
NaNaNaNaNaNaNaNaNaNaNaNaa(lp321
NaNaNaNaNaNaNaNaNaNaNaNaa(lp322
NaNaNaNaNaNaNaNaNaNaNaNaa(lp323
NaNaNaNaNaNaNaNaNaNaNaNaa(lp324
NaNaNaNaNaNaNaNaNaNaNaNaa(lp325
NaNaNaNaNaNaNaNaNaNaNaNaa(lp326
NaNaNaNaNaNaNaNaNaNaNaNaa(lp327
NaNaNaNaNaNaNaNaNaNaNaNaa(lp328
NaNaNaNaNaNaNaNaNaNaNaNaa(lp329
NaNaNaNaNaNaNaNaNaNaNaNaa(lp330
NaNaNaNaNaNaNaNaNaNaNaNaa(lp331
NaNaNaNaNaNaNaNaNaNaNaNaa(lp332
NaNaNaNaNaNaNaNaNaNaNaNaa(lp333
NaNaNaNaNaNaNaNaNaNaNaNaa(lp334
NaNaNaNaNaNaNaNaNaNaNaNaa(lp335
NaNaNaNaNaNaNaNaNaNaNaNaa(lp336
NaNaNaNaNaNaNaNaNaNaNaNaa(lp337
NaNaNaNaNaNaNaNaNaNaNaNaa(lp338
NaNaNaNaNaNaNaNaNaNaNaNaasS'name'
p339
VAmee's Castle A
p340
sS'map'
p341
(lp342
(lp343
NaNaNaNaNaNa(imapping
Tile
p344
(dp345
S'collidetype'
p346
S'BOX'
p347
sS'type'
p348
VC_Castle Floor Edge R
p349
sS'friction'
p350
F1
sS'overhead'
p351
I00
sba(imapping
Tile
p352
(dp353
g346
g347
sg348
VC_Castle Wall L
p354
sg350
F1
sg351
I00
sba(imapping
Tile
p355
(dp356
g346
g347
sg348
VC_Castle Wall L
p357
sg350
F1
sg351
I00
sba(imapping
Tile
p358
(dp359
g346
g347
sg348
VC_Castle Wall L
p360
sg350
F1
sg351
I00
sba(imapping
Tile
p361
(dp362
g346
g347
sg348
VC_Castle Wall->Floor R
p363
sg350
F1
sg351
I00
sba(imapping
Tile
p364
(dp365
g346
g347
sg348
VC_Castle Ground 2
p366
sg350
F1
sg351
I00
sbaa(lp367
NaNaNaNaNaNaNaNaNaNa(imapping
Tile
p368
(dp369
g346
g347
sg348
VC_Castle Floor 4
p370
sg350
F1
sg351
I00
sba(imapping
Tile
p371
(dp372
g346
g347
sg348
VC_Castle Ground 1
p373
sg350
F1
sg351
I00
sbaa(lp374
NaNaNaNaNaNaNaNaNaNa(imapping
Tile
p375
(dp376
g346
g347
sg348
VC_Castle Floor 3
p377
sg350
F1
sg351
I00
sba(imapping
Tile
p378
(dp379
g346
g347
sg348
VC_Castle Ground 1
p380
sg350
F1
sg351
I00
sbaa(lp381
NaNaNaNaNaNaNaNaNaNa(imapping
Tile
p382
(dp383
g346
g347
sg348
VC_Castle Floor 1
p384
sg350
F1
sg351
I00
sba(imapping
Tile
p385
(dp386
g346
g347
sg348
VC_Castle Ground 1
p387
sg350
F1
sg351
I00
sbaa(lp388
NaNaNaNaNaNaNaNaNaNa(imapping
Tile
p389
(dp390
g346
g347
sg348
VC_Castle Floor 2
p391
sg350
F1
sg351
I00
sba(imapping
Tile
p392
(dp393
g346
g347
sg348
VC_Castle Ground 2
p394
sg350
F1
sg351
I00
sbaa(lp395
NaNaNaNaNaNaNaNaNaNa(imapping
Tile
p396
(dp397
g346
g347
sg348
VC_Castle Floor 1
p398
sg350
F1
sg351
I00
sba(imapping
Tile
p399
(dp400
g346
g347
sg348
VC_Castle Ground 1
p401
sg350
F1
sg351
I00
sbaa(lp402
NaNaNaNaNaNaNaNaNa(imapping
Tile
p403
(dp404
g346
S'RIGHT_INCLINATION'
p405
sg348
VC_Castle HRR
p406
sg350
F1
sg351
I00
sba(imapping
Tile
p407
(dp408
g346
g347
sg348
VC_Castle HRmR
p409
sg350
F1
sg351
I00
sba(imapping
Tile
p410
(dp411
g346
g347
sg348
VC_Castle Ground 2
p412
sg350
F1
sg351
I00
sbaa(lp413
NaNaNaNaNaNaNaNa(imapping
Tile
p414
(dp415
g346
g405
sg348
VC_Castle HRR
p416
sg350
F1
sg351
I00
sba(imapping
Tile
p417
(dp418
g346
g347
sg348
VC_Castle HRmR
p419
sg350
F1
sg351
I00
sba(imapping
Tile
p420
(dp421
g346
g347
sg348
VC_Castle Ground 1
p422
sg350
F1
sg351
I00
sba(imapping
Tile
p423
(dp424
g346
g347
sg348
VC_Castle Ground 1
p425
sg350
F1
sg351
I00
sbaa(lp426
NaNaNaNaNaNaNaNa(imapping
Tile
p427
(dp428
g346
g347
sg348
VC_Castle Floor 1
p429
sg350
F1
sg351
I00
sba(imapping
Tile
p430
(dp431
g346
g347
sg348
VC_Castle Ground 1
p432
sg350
F1
sg351
I00
sba(imapping
Tile
p433
(dp434
g346
g347
sg348
VC_Castle Ground 2
p435
sg350
F1
sg351
I00
sba(imapping
Tile
p436
(dp437
g346
g347
sg348
VC_Castle Ground 2
p438
sg350
F1
sg351
I00
sbaa(lp439
NaNaNaNaNaNaNaNa(imapping
Tile
p440
(dp441
g346
g347
sg348
VC_Castle Floor 3
p442
sg350
F1
sg351
I00
sba(imapping
Tile
p443
(dp444
g346
g347
sg348
VC_Castle Ground 1
p445
sg350
F1
sg351
I00
sba(imapping
Tile
p446
(dp447
g346
g347
sg348
VC_Castle Ground 2
p448
sg350
F1
sg351
I00
sba(imapping
Tile
p449
(dp450
g346
g347
sg348
VC_Castle Ground 2
p451
sg350
F1
sg351
I00
sbaa(lp452
NaNaNaNaNaNaNaNa(imapping
Tile
p453
(dp454
g346
g347
sg348
VC_Castle Floor 2
p455
sg350
F1
sg351
I00
sba(imapping
Tile
p456
(dp457
g346
g347
sg348
VC_Castle Ground 1
p458
sg350
F1
sg351
I00
sba(imapping
Tile
p459
(dp460
g346
g347
sg348
VC_Castle Ground 1
p461
sg350
F1
sg351
I00
sba(imapping
Tile
p462
(dp463
g346
g347
sg348
VC_Castle Ground 2
p464
sg350
F1
sg351
I00
sbaa(lp465
NaNaNaNaNaNaNa(imapping
Tile
p466
(dp467
g346
S'NONE'
p468
sg348
VC_Suit of Armour
p469
sg350
F1
sg351
I00
sba(imapping
Tile
p470
(dp471
g346
g347
sg348
VC_Castle Floor 2
p472
sg350
F1
sg351
I00
sba(imapping
Tile
p473
(dp474
g346
g347
sg348
VC_Castle Ground 1
p475
sg350
F1
sg351
I00
sba(imapping
Tile
p476
(dp477
g346
g347
sg348
VC_Castle Ground 2
p478
sg350
F1
sg351
I00
sba(imapping
Tile
p479
(dp480
g346
g347
sg348
VC_Castle Ground 2
p481
sg350
F1
sg351
I00
sbaa(lp482
NaNaNaNaNaNaNaNa(imapping
Tile
p483
(dp484
g346
g347
sg348
VC_Castle Floor 2
p485
sg350
F1
sg351
I00
sba(imapping
Tile
p486
(dp487
g346
g347
sg348
VC_Castle Ground 2
p488
sg350
F1
sg351
I00
sba(imapping
Tile
p489
(dp490
g346
g347
sg348
VC_Castle Ground 2
p491
sg350
F1
sg351
I00
sba(imapping
Tile
p492
(dp493
g346
g347
sg348
VC_Castle Ground 1
p494
sg350
F1
sg351
I00
sbaa(lp495
NaNaNaNaNaNa(imapping
Tile
p496
(dp497
g346
g347
sg348
VC_Castle Floor Edge L
p498
sg350
F1
sg351
I00
sba(imapping
Tile
p499
(dp500
g346
g347
sg348
VC_Castle Wall R
p501
sg350
F1
sg351
I00
sba(imapping
Tile
p502
(dp503
g346
g347
sg348
VC_Castle Wall->Floor L
p504
sg350
F1
sg351
I00
sba(imapping
Tile
p505
(dp506
g346
g347
sg348
VC_Castle Ground 2
p507
sg350
F1
sg351
I00
sba(imapping
Tile
p508
(dp509
g346
g347
sg348
VC_Castle Ground 1
p510
sg350
F1
sg351
I00
sba(imapping
Tile
p511
(dp512
g346
g347
sg348
VC_Castle Ground 1
p513
sg350
F1
sg351
I00
sbaa(lp514
NaNaNaNaNaNa(imapping
Tile
p515
(dp516
g346
g347
sg348
VC_Castle Floor 2
p517
sg350
F1
sg351
I00
sba(imapping
Tile
p518
(dp519
g346
g347
sg348
VC_Castle Ground 1
p520
sg350
F1
sg351
I00
sba(imapping
Tile
p521
(dp522
g346
g347
sg348
VC_Castle Ground 1
p523
sg350
F1
sg351
I00
sba(imapping
Tile
p524
(dp525
g346
g347
sg348
VC_Castle Ground 2
p526
sg350
F1
sg351
I00
sba(imapping
Tile
p527
(dp528
g346
g347
sg348
VC_Castle Ground 2
p529
sg350
F1
sg351
I00
sba(imapping
Tile
p530
(dp531
g346
g347
sg348
VC_Castle Ground 1
p532
sg350
F1
sg351
I00
sbaa(lp533
NaNaNaNaNaNa(imapping
Tile
p534
(dp535
g346
g347
sg348
VC_Castle Floor 2
p536
sg350
F1
sg351
I00
sba(imapping
Tile
p537
(dp538
g346
g347
sg348
VC_Castle Ground 1
p539
sg350
F1
sg351
I00
sba(imapping
Tile
p540
(dp541
g346
g347
sg348
VC_Castle Ground 2
p542
sg350
F1
sg351
I00
sba(imapping
Tile
p543
(dp544
g346
g347
sg348
VC_Castle Ground 1
p545
sg350
F1
sg351
I00
sba(imapping
Tile
p546
(dp547
g346
g347
sg348
VC_Castle Ground 1
p548
sg350
F1
sg351
I00
sba(imapping
Tile
p549
(dp550
g346
g347
sg348
VC_Castle Ground 1
p551
sg350
F1
sg351
I00
sbaa(lp552
NaNaNaNaNaNa(imapping
Tile
p553
(dp554
g346
g347
sg348
VC_Castle Floor 2
p555
sg350
F1
sg351
I00
sba(imapping
Tile
p556
(dp557
g346
g347
sg348
VC_Castle Ground 1
p558
sg350
F1
sg351
I00
sba(imapping
Tile
p559
(dp560
g346
g347
sg348
VC_Castle Ground 1
p561
sg350
F1
sg351
I00
sba(imapping
Tile
p562
(dp563
g346
g347
sg348
VC_Castle Ground 1
p564
sg350
F1
sg351
I00
sba(imapping
Tile
p565
(dp566
g346
g347
sg348
VC_Castle Ground 2
p567
sg350
F1
sg351
I00
sba(imapping
Tile
p568
(dp569
g346
g347
sg348
VC_Castle Ground 1
p570
sg350
F1
sg351
I00
sbaa(lp571
NaNaNaNaNaNa(imapping
Tile
p572
(dp573
g346
g347
sg348
VC_Castle Floor 2
p574
sg350
F1
sg351
I00
sba(imapping
Tile
p575
(dp576
g346
g347
sg348
VC_Castle Ground 1
p577
sg350
F1
sg351
I00
sba(imapping
Tile
p578
(dp579
g346
g347
sg348
VC_Castle Ground 1
p580
sg350
F1
sg351
I00
sba(imapping
Tile
p581
(dp582
g346
g347
sg348
VC_Castle Ground 1
p583
sg350
F1
sg351
I00
sba(imapping
Tile
p584
(dp585
g346
g347
sg348
VC_Castle Ground 1
p586
sg350
F1
sg351
I00
sba(imapping
Tile
p587
(dp588
g346
g347
sg348
VC_Castle Ground 2
p589
sg350
F1
sg351
I00
sbaa(lp590
NaNaNaNaNaNa(imapping
Tile
p591
(dp592
g346
S'LEFT_INCLINATION'
p593
sg348
VC_Castle HRL
p594
sg350
F1
sg351
I00
sba(imapping
Tile
p595
(dp596
g346
g347
sg348
VC_Castle HRmL
p597
sg350
F1
sg351
I00
sba(imapping
Tile
p598
(dp599
g346
g347
sg348
VC_Castle Ground 1
p600
sg350
F1
sg351
I00
sba(imapping
Tile
p601
(dp602
g346
g347
sg348
VC_Castle Ground 2
p603
sg350
F1
sg351
I00
sba(imapping
Tile
p604
(dp605
g346
g347
sg348
VC_Castle Ground 2
p606
sg350
F1
sg351
I00
sba(imapping
Tile
p607
(dp608
g346
g347
sg348
VC_Castle Ground 2
p609
sg350
F1
sg351
I00
sbaa(lp610
NaNaNaNaNaNaNa(imapping
Tile
p611
(dp612
g346
g593
sg348
VC_Castle HRL
p613
sg350
F1
sg351
I00
sba(imapping
Tile
p614
(dp615
g346
g347
sg348
VC_Castle HRmL
p616
sg350
F1
sg351
I00
sba(imapping
Tile
p617
(dp618
g346
g347
sg348
VC_Castle Ground 2
p619
sg350
F1
sg351
I00
sba(imapping
Tile
p620
(dp621
g346
g347
sg348
VC_Castle Ground 1
p622
sg350
F1
sg351
I00
sba(imapping
Tile
p623
(dp624
g346
g347
sg348
VC_Castle Ground 1
p625
sg350
F1
sg351
I00
sbaa(lp626
NaNaNaNaNaNaNaNa(imapping
Tile
p627
(dp628
g346
g593
sg348
VC_Castle HRL
p629
sg350
F1
sg351
I00
sba(imapping
Tile
p630
(dp631
g346
g347
sg348
VC_Castle HRmL
p632
sg350
F1
sg351
I00
sba(imapping
Tile
p633
(dp634
g346
g347
sg348
VC_Castle Ground 2
p635
sg350
F1
sg351
I00
sba(imapping
Tile
p636
(dp637
g346
g347
sg348
VC_Castle Ground 2
p638
sg350
F1
sg351
I00
sbaa(lp639
NaNaNaNaNaNaNaNaNa(imapping
Tile
p640
(dp641
g346
g347
sg348
VC_Castle Floor 2
p642
sg350
F1
sg351
I00
sba(imapping
Tile
p643
(dp644
g346
g347
sg348
VC_Castle Ground 2
p645
sg350
F1
sg351
I00
sba(imapping
Tile
p646
(dp647
g346
g347
sg348
VC_Castle Ground 1
p648
sg350
F1
sg351
I00
sbaa(lp649
NaNaNaNaNaNaNaNa(imapping
Tile
p650
(dp651
g346
g468
sg348
VC_Suit of Armour
p652
sg350
F1
sg351
I00
sba(imapping
Tile
p653
(dp654
g346
g347
sg348
VC_Castle Floor 3
p655
sg350
F1
sg351
I00
sba(imapping
Tile
p656
(dp657
g346
g347
sg348
VC_Castle Ground 1
p658
sg350
F1
sg351
I00
sba(imapping
Tile
p659
(dp660
g346
g347
sg348
VC_Castle Ground 2
p661
sg350
F1
sg351
I00
sbaa(lp662
NaNaNaNaNaNaNaNaNa(imapping
Tile
p663
(dp664
g346
g347
sg348
VC_Castle Floor Edge R
p665
sg350
F1
sg351
I00
sba(imapping
Tile
p666
(dp667
g346
g347
sg348
VC_Castle Wall L
p668
sg350
F1
sg351
I00
sba(imapping
Tile
p669
(dp670
g346
g347
sg348
VC_Castle Wall L
p671
sg350
F1
sg351
I00
sbaa(lp672
NaNaNaNaNaNaNaNaNaNaNaNaa(lp673
NaNaNaNaNaNaNaNaNaNa(imapping
Tile
p674
(dp675
g346
g347
sg348
VC_Castle Floor Edge L
p676
sg350
F1
sg351
I00
sba(imapping
Tile
p677
(dp678
g346
g347
sg348
VC_Castle Wall R
p679
sg350
F1
sg351
I00
sbaa(lp680
NaNaNaNaNaNaNaNaNaNa(imapping
Tile
p681
(dp682
g346
g347
sg348
VC_Castle Floor 2
p683
sg350
F1
sg351
I00
sba(imapping
Tile
p684
(dp685
g346
g347
sg348
VC_Castle Ground 2
p686
sg350
F1
sg351
I00
sbaa(lp687
NaNaNaNaNaNaNaNaNaNa(imapping
Tile
p688
(dp689
g346
g347
sg348
VC_Castle Floor 2
p690
sg350
F1
sg351
I00
sba(imapping
Tile
p691
(dp692
g346
g347
sg348
VC_Castle Ground 2
p693
sg350
F1
sg351
I00
sbaa(lp694
NaNaNaNaNaNaNaNaNaNa(imapping
Tile
p695
(dp696
g346
g347
sg348
VC_Castle Floor 2
p697
sg350
F1
sg351
I00
sba(imapping
Tile
p698
(dp699
g346
g347
sg348
VC_Castle Ground 1
p700
sg350
F1
sg351
I00
sbaa(lp701
NaNaNaNaNaNaNaNaNaNa(imapping
Tile
p702
(dp703
g346
g347
sg348
VC_Castle Floor 1
p704
sg350
F1
sg351
I00
sba(imapping
Tile
p705
(dp706
g346
g347
sg348
VC_Castle Ground 2
p707
sg350
F1
sg351
I00
sbaa(lp708
NaNaNaNaNaNaNaNaNa(imapping
Tile
p709
(dp710
g346
g405
sg348
VC_Castle HRR
p711
sg350
F1
sg351
I00
sba(imapping
Tile
p712
(dp713
g346
g347
sg348
VC_Castle HRmR
p714
sg350
F1
sg351
I00
sba(imapping
Tile
p715
(dp716
g346
g347
sg348
VC_Castle Ground 1
p717
sg350
F1
sg351
I00
sbaa(lp718
NaNaNaNaNaNaNaNa(imapping
Tile
p719
(dp720
g346
g405
sg348
VC_Castle HRR
p721
sg350
F1
sg351
I00
sba(imapping
Tile
p722
(dp723
g346
g347
sg348
VC_Castle HRmR
p724
sg350
F1
sg351
I00
sba(imapping
Tile
p725
(dp726
g346
g347
sg348
VC_Castle Ground 1
p727
sg350
F1
sg351
I00
sba(imapping
Tile
p728
(dp729
g346
g347
sg348
VC_Castle Ground 2
p730
sg350
F1
sg351
I00
sbaa(lp731
NaNaNaNaNaNaNaNa(imapping
Tile
p732
(dp733
g346
g347
sg348
VC_Castle Floor 2
p734
sg350
F1
sg351
I00
sba(imapping
Tile
p735
(dp736
g346
g347
sg348
VC_Castle Ground 2
p737
sg350
F1
sg351
I00
sba(imapping
Tile
p738
(dp739
g346
g347
sg348
VC_Castle Ground 1
p740
sg350
F1
sg351
I00
sba(imapping
Tile
p741
(dp742
g346
g347
sg348
VC_Castle Ground 2
p743
sg350
F1
sg351
I00
sbaa(lp744
NaNaNaNaNaNaNaNa(imapping
Tile
p745
(dp746
g346
g593
sg348
VC_Castle HRL
p747
sg350
F1
sg351
I00
sba(imapping
Tile
p748
(dp749
g346
g347
sg348
VC_Castle HRmL
p750
sg350
F1
sg351
I00
sba(imapping
Tile
p751
(dp752
g346
g347
sg348
VC_Castle Ground 2
p753
sg350
F1
sg351
I00
sba(imapping
Tile
p754
(dp755
g346
g347
sg348
VC_Castle Ground 1
p756
sg350
F1
sg351
I00
sbaa(lp757
NaNaNaNaNaNaNaNaNa(imapping
Tile
p758
(dp759
g346
g347
sg348
VC_Castle Floor 1
p760
sg350
F1
sg351
I00
sba(imapping
Tile
p761
(dp762
g346
g347
sg348
VC_Castle Ground 1
p763
sg350
F1
sg351
I00
sba(imapping
Tile
p764
(dp765
g346
g347
sg348
VC_Castle Ground 1
p766
sg350
F1
sg351
I00
sbaa(lp767
NaNaNaNaNaNaNaNaNa(imapping
Tile
p768
(dp769
g346
g347
sg348
VC_Castle Floor 1
p770
sg350
F1
sg351
I00
sba(imapping
Tile
p771
(dp772
g346
g347
sg348
VC_Castle Ground 1
p773
sg350
F1
sg351
I00
sba(imapping
Tile
p774
(dp775
g346
g347
sg348
VC_Castle Ground 2
p776
sg350
F1
sg351
I00
sbaa(lp777
NaNaNaNaNaNaNaNa(imapping
Tile
p778
(dp779
g346
g405
sg348
VC_Castle HRR
p780
sg350
F1
sg351
I00
sba(imapping
Tile
p781
(dp782
g346
g347
sg348
VC_Castle HRmR
p783
sg350
F1
sg351
I00
sba(imapping
Tile
p784
(dp785
g346
g347
sg348
VC_Castle Ground 2
p786
sg350
F1
sg351
I00
sba(imapping
Tile
p787
(dp788
g346
g347
sg348
VC_Castle Ground 2
p789
sg350
F1
sg351
I00
sbaa(lp790
NaNaNaNaNaNaNaNa(imapping
Tile
p791
(dp792
g346
g347
sg348
VC_Castle Floor 1
p793
sg350
F1
sg351
I00
sba(imapping
Tile
p794
(dp795
g346
g347
sg348
VC_Castle Ground 1
p796
sg350
F1
sg351
I00
sba(imapping
Tile
p797
(dp798
g346
g347
sg348
VC_Castle Ground 1
p799
sg350
F1
sg351
I00
sba(imapping
Tile
p800
(dp801
g346
g347
sg348
VC_Castle Ground 2
p802
sg350
F1
sg351
I00
sbaa(lp803
NaNaNaNaNaNaNaNa(imapping
Tile
p804
(dp805
g346
g347
sg348
VC_Castle Floor 4
p806
sg350
F1
sg351
I00
sba(imapping
Tile
p807
(dp808
g346
g347
sg348
VC_Castle Ground 2
p809
sg350
F1
sg351
I00
sba(imapping
Tile
p810
(dp811
g346
g347
sg348
VC_Castle Ground 1
p812
sg350
F1
sg351
I00
sba(imapping
Tile
p813
(dp814
g346
g347
sg348
VC_Castle Ground 1
p815
sg350
F1
sg351
I00
sbaa(lp816
NaNaNaNaNaNaNaNa(imapping
Tile
p817
(dp818
g346
g347
sg348
VC_Castle Floor 1
p819
sg350
F1
sg351
I00
sba(imapping
Tile
p820
(dp821
g346
g347
sg348
VC_Castle Ground 1
p822
sg350
F1
sg351
I00
sba(imapping
Tile
p823
(dp824
g346
g347
sg348
VC_Castle Ground 1
p825
sg350
F1
sg351
I00
sba(imapping
Tile
p826
(dp827
g346
g347
sg348
VC_Castle Ground 1
p828
sg350
F1
sg351
I00
sbaa(lp829
NaNaNaNaNaNaNaNa(imapping
Tile
p830
(dp831
g346
g347
sg348
VC_Castle Floor 3
p832
sg350
F1
sg351
I00
sba(imapping
Tile
p833
(dp834
g346
g347
sg348
VC_Castle Ground 2
p835
sg350
F1
sg351
I00
sba(imapping
Tile
p836
(dp837
g346
g347
sg348
VC_Castle Ground 1
p838
sg350
F1
sg351
I00
sba(imapping
Tile
p839
(dp840
g346
g347
sg348
VC_Castle Ground 2
p841
sg350
F1
sg351
I00
sbaa(lp842
NaNaNaNaNaNaNaNa(imapping
Tile
p843
(dp844
g346
g347
sg348
VC_Castle Floor 1
p845
sg350
F1
sg351
I00
sba(imapping
Tile
p846
(dp847
g346
g347
sg348
VC_Castle Ground 1
p848
sg350
F1
sg351
I00
sba(imapping
Tile
p849
(dp850
g346
g347
sg348
VC_Castle Ground 2
p851
sg350
F1
sg351
I00
sba(imapping
Tile
p852
(dp853
g346
g347
sg348
VC_Castle Ground 1
p854
sg350
F1
sg351
I00
sbaa(lp855
NaNaNaNaNaNaNaNa(imapping
Tile
p856
(dp857
g346
g347
sg348
VC_Castle Floor 2
p858
sg350
F1
sg351
I00
sba(imapping
Tile
p859
(dp860
g346
g347
sg348
VC_Castle Ground 2
p861
sg350
F1
sg351
I00
sba(imapping
Tile
p862
(dp863
g346
g347
sg348
VC_Castle Ground 1
p864
sg350
F1
sg351
I00
sba(imapping
Tile
p865
(dp866
g346
g347
sg348
VC_Castle Ground 2
p867
sg350
F1
sg351
I00
sbaa(lp868
NaNaNaNaNaNaNaNa(imapping
Tile
p869
(dp870
g346
g347
sg348
VC_Castle Floor Edge R
p871
sg350
F1
sg351
I00
sba(imapping
Tile
p872
(dp873
g346
g347
sg348
VC_Castle Wall L
p874
sg350
F1
sg351
I00
sba(imapping
Tile
p875
(dp876
g346
g347
sg348
VC_Castle Wall L
p877
sg350
F1
sg351
I00
sba(imapping
Tile
p878
(dp879
g346
g347
sg348
VC_Castle Wall L
p880
sg350
F1
sg351
I00
sbaa(lp881
NaNaNaNaNaNaNaNaNaNaNaNaa(lp882
NaNaNaNaNaNaNa(imapping
Tile
p883
(dp884
g346
g347
sg348
VC_Castle Floor Edge L
p885
sg350
F1
sg351
I00
sba(imapping
Tile
p886
(dp887
g346
g347
sg348
VC_Castle Wall R
p888
sg350
F1
sg351
I00
sba(imapping
Tile
p889
(dp890
g346
g347
sg348
VC_Castle Wall R
p891
sg350
F1
sg351
I00
sba(imapping
Tile
p892
(dp893
g346
g347
sg348
VC_Castle Wall R
p894
sg350
F1
sg351
I00
sba(imapping
Tile
p895
(dp896
g346
g347
sg348
VC_Castle Wall R
p897
sg350
F1
sg351
I00
sbaa(lp898
NaNaNaNaNaNa(imapping
Tile
p899
(dp900
g346
g468
sg348
VC_Suit of Armour
p901
sg350
F1
sg351
I00
sba(imapping
Tile
p902
(dp903
g346
g347
sg348
VC_Castle Floor 3
p904
sg350
F1
sg351
I00
sba(imapping
Tile
p905
(dp906
g346
g347
sg348
VC_Castle Ground 2
p907
sg350
F1
sg351
I00
sba(imapping
Tile
p908
(dp909
g346
g347
sg348
VC_Castle Ground 1
p910
sg350
F1
sg351
I00
sba(imapping
Tile
p911
(dp912
g346
g347
sg348
VC_Castle Ground 1
p913
sg350
F1
sg351
I00
sba(imapping
Tile
p914
(dp915
g346
g347
sg348
VC_Castle Ground 2
p916
sg350
F1
sg351
I00
sbaa(lp917
NaNaNaNaNaNaNa(imapping
Tile
p918
(dp919
g346
g347
sg348
VC_Castle Floor 3
p920
sg350
F1
sg351
I00
sba(imapping
Tile
p921
(dp922
g346
g347
sg348
VC_Castle Ground 1
p923
sg350
F1
sg351
I00
sba(imapping
Tile
p924
(dp925
g346
g347
sg348
VC_Castle Ground 1
p926
sg350
F1
sg351
I00
sba(imapping
Tile
p927
(dp928
g346
g347
sg348
VC_Castle Ground 2
p929
sg350
F1
sg351
I00
sba(imapping
Tile
p930
(dp931
g346
g347
sg348
VC_Castle Ground 1
p932
sg350
F1
sg351
I00
sbaa(lp933
NaNaNaNaNaNaNa(imapping
Tile
p934
(dp935
g346
g347
sg348
VC_Castle Floor Edge R
p936
sg350
F1
sg351
I00
sba(imapping
Tile
p937
(dp938
g346
g347
sg348
VC_Castle Wall L
p939
sg350
F1
sg351
I00
sba(imapping
Tile
p940
(dp941
g346
g347
sg348
VC_Castle Wall L
p942
sg350
F1
sg351
I00
sba(imapping
Tile
p943
(dp944
g346
g347
sg348
VC_Castle Wall L
p945
sg350
F1
sg351
I00
sba(imapping
Tile
p946
(dp947
g346
g347
sg348
VC_Castle Wall L
p948
sg350
F1
sg351
I00
sbaa(lp949
NaNaNaNaNaNaNaNaNaNaNaNaa(lp950
NaNaNaNaNaNa(imapping
Tile
p951
(dp952
g346
g347
sg348
VC_Castle Floor Edge L
p953
sg350
F1
sg351
I00
sba(imapping
Tile
p954
(dp955
g346
g347
sg348
VC_Castle Wall R
p956
sg350
F1
sg351
I00
sba(imapping
Tile
p957
(dp958
g346
g347
sg348
VC_Castle Wall R
p959
sg350
F1
sg351
I00
sba(imapping
Tile
p960
(dp961
g346
g347
sg348
VC_Castle Wall R
p962
sg350
F1
sg351
I00
sba(imapping
Tile
p963
(dp964
g346
g347
sg348
VC_Castle Wall R
p965
sg350
F1
sg351
I00
sba(imapping
Tile
p966
(dp967
g346
g347
sg348
VC_Castle Wall R
p968
sg350
F1
sg351
I00
sbaa(lp969
NaNaNaNaNa(imapping
Tile
p970
(dp971
g346
g468
sg348
VC_Suit of Armour
p972
sg350
F1
sg351
I00
sba(imapping
Tile
p973
(dp974
g346
g347
sg348
VC_Castle Floor 2
p975
sg350
F1
sg351
I00
sba(imapping
Tile
p976
(dp977
g346
g347
sg348
VC_Castle Ground 2
p978
sg350
F1
sg351
I00
sba(imapping
Tile
p979
(dp980
g346
g347
sg348
VC_Castle Ground 1
p981
sg350
F1
sg351
I00
sba(imapping
Tile
p982
(dp983
g346
g347
sg348
VC_Castle Ground 2
p984
sg350
F1
sg351
I00
sba(imapping
Tile
p985
(dp986
g346
g347
sg348
VC_Castle Ground 2
p987
sg350
F1
sg351
I00
sba(imapping
Tile
p988
(dp989
g346
g347
sg348
VC_Castle Ground 1
p990
sg350
F1
sg351
I00
sbaa(lp991
NaNaNaNaNaNa(imapping
Tile
p992
(dp993
g346
g347
sg348
VC_Castle Floor Edge R
p994
sg350
F1
sg351
I00
sba(imapping
Tile
p995
(dp996
g346
g347
sg348
VC_Castle Wall L
p997
sg350
F1
sg351
I00
sba(imapping
Tile
p998
(dp999
g346
g347
sg348
VC_Castle Wall L
p1000
sg350
F1
sg351
I00
sba(imapping
Tile
p1001
(dp1002
g346
g347
sg348
VC_Castle Wall L
p1003
sg350
F1
sg351
I00
sba(imapping
Tile
p1004
(dp1005
g346
g347
sg348
VC_Castle Wall L
p1006
sg350
F1
sg351
I00
sba(imapping
Tile
p1007
(dp1008
g346
g347
sg348
VC_Castle Wall L
p1009
sg350
F1
sg351
I00
sbaa(lp1010
NaNaNaNaNaNaNaNaNaNaNaNaa(lp1011
NaNaNaNaNaNaNaNa(imapping
Tile
p1012
(dp1013
g346
g347
sg348
VC_Castle Floor Edge L
p1014
sg350
F1
sg351
I00
sba(imapping
Tile
p1015
(dp1016
g346
g347
sg348
VC_Castle Wall R
p1017
sg350
F1
sg351
I00
sba(imapping
Tile
p1018
(dp1019
g346
g347
sg348
VC_Castle Wall R
p1020
sg350
F1
sg351
I00
sba(imapping
Tile
p1021
(dp1022
g346
g347
sg348
VC_Castle Wall R
p1023
sg350
F1
sg351
I00
sbaa(lp1024
NaNaNaNaNaNaNaNa(imapping
Tile
p1025
(dp1026
g346
g593
sg348
VC_Castle HRL
p1027
sg350
F1
sg351
I00
sba(imapping
Tile
p1028
(dp1029
g346
g347
sg348
VC_Castle HRmL
p1030
sg350
F1
sg351
I00
sba(imapping
Tile
p1031
(dp1032
g346
g347
sg348
VC_Castle Ground 2
p1033
sg350
F1
sg351
I00
sba(imapping
Tile
p1034
(dp1035
g346
g347
sg348
VC_Castle Ground 2
p1036
sg350
F1
sg351
I00
sbaa(lp1037
NaNaNaNaNaNaNaNaNa(imapping
Tile
p1038
(dp1039
g346
g347
sg348
VC_Castle Floor 2
p1040
sg350
F1
sg351
I00
sba(imapping
Tile
p1041
(dp1042
g346
g347
sg348
VC_Castle Ground 2
p1043
sg350
F1
sg351
I00
sba(imapping
Tile
p1044
(dp1045
g346
g347
sg348
VC_Castle Ground 1
p1046
sg350
F1
sg351
I00
sbaa(lp1047
NaNaNaNaNaNaNa(imapping
Tile
p1048
(dp1049
g346
g347
sg348
VC_Castle Floor Edge L
p1050
sg350
F1
sg351
I00
sba(imapping
Tile
p1051
(dp1052
g346
g347
sg348
VC_Castle Wall R
p1053
sg350
F1
sg351
I00
sba(imapping
Tile
p1054
(dp1055
g346
g347
sg348
VC_Castle Wall->Floor L
p1056
sg350
F1
sg351
I00
sba(imapping
Tile
p1057
(dp1058
g346
g347
sg348
VC_Castle Ground 1
p1059
sg350
F1
sg351
I00
sba(imapping
Tile
p1060
(dp1061
g346
g347
sg348
VC_Castle Ground 2
p1062
sg350
F1
sg351
I00
sbaa(lp1063
NaNaNaNaNaNaNa(imapping
Tile
p1064
(dp1065
g346
g593
sg348
VC_Castle HRL
p1066
sg350
F1
sg351
I00
sba(imapping
Tile
p1067
(dp1068
g346
g347
sg348
VC_Castle HRmL
p1069
sg350
F1
sg351
I00
sba(imapping
Tile
p1070
(dp1071
g346
g347
sg348
VC_Castle Ground 2
p1072
sg350
F1
sg351
I00
sba(imapping
Tile
p1073
(dp1074
g346
g347
sg348
VC_Castle Ground 1
p1075
sg350
F1
sg351
I00
sba(imapping
Tile
p1076
(dp1077
g346
g347
sg348
VC_Castle Ground 2
p1078
sg350
F1
sg351
I00
sbaa(lp1079
NaNaNaNaNaNaNaNa(imapping
Tile
p1080
(dp1081
g346
g347
sg348
VC_Castle Floor 3
p1082
sg350
F1
sg351
I00
sba(imapping
Tile
p1083
(dp1084
g346
g347
sg348
VC_Castle Ground 1
p1085
sg350
F1
sg351
I00
sba(imapping
Tile
p1086
(dp1087
g346
g347
sg348
VC_Castle Ground 2
p1088
sg350
F1
sg351
I00
sba(imapping
Tile
p1089
(dp1090
g346
g347
sg348
VC_Castle Ground 1
p1091
sg350
F1
sg351
I00
sbaa(lp1092
NaNaNaNaNaNaNaNa(imapping
Tile
p1093
(dp1094
g346
g347
sg348
VC_Castle Floor Edge R
p1095
sg350
F1
sg351
I00
sba(imapping
Tile
p1096
(dp1097
g346
g347
sg348
VC_Castle Wall L
p1098
sg350
F1
sg351
I00
sba(imapping
Tile
p1099
(dp1100
g346
g347
sg348
VC_Castle Wall L
p1101
sg350
F1
sg351
I00
sba(imapping
Tile
p1102
(dp1103
g346
g347
sg348
VC_Castle Wall L
p1104
sg350
F1
sg351
I00
sbaa(lp1105
NaNaNaNaNaNaNaNaNaNaNaNaa(lp1106
NaNaNaNaNaNaNa(imapping
Tile
p1107
(dp1108
g346
g347
sg348
VC_Castle Floor Edge L
p1109
sg350
F1
sg351
I00
sba(imapping
Tile
p1110
(dp1111
g346
g347
sg348
VC_Castle Wall R
p1112
sg350
F1
sg351
I00
sba(imapping
Tile
p1113
(dp1114
g346
g347
sg348
VC_Castle Wall R
p1115
sg350
F1
sg351
I00
sba(imapping
Tile
p1116
(dp1117
g346
g347
sg348
VC_Castle Wall R
p1118
sg350
F1
sg351
I00
sba(imapping
Tile
p1119
(dp1120
g346
g347
sg348
VC_Castle Wall R
p1121
sg350
F1
sg351
I00
sbaa(lp1122
NaNaNaNaNaNa(imapping
Tile
p1123
(dp1124
g346
g347
sg348
VC_Castle Floor Edge L
p1125
sg350
F1
sg351
I00
sba(imapping
Tile
p1126
(dp1127
g346
g347
sg348
VC_Castle Wall->Floor L
p1128
sg350
F1
sg351
I00
sba(imapping
Tile
p1129
(dp1130
g346
g347
sg348
VC_Castle Ground 2
p1131
sg350
F1
sg351
I00
sba(imapping
Tile
p1132
(dp1133
g346
g347
sg348
VC_Castle Ground 1
p1134
sg350
F1
sg351
I00
sba(imapping
Tile
p1135
(dp1136
g346
g347
sg348
VC_Castle Ground 2
p1137
sg350
F1
sg351
I00
sba(imapping
Tile
p1138
(dp1139
g346
g347
sg348
VC_Castle Ground 2
p1140
sg350
F1
sg351
I00
sbaa(lp1141
NaNaNaNaNa(imapping
Tile
p1142
(dp1143
g346
g405
sg348
VC_Castle HRR
p1144
sg350
F1
sg351
I00
sba(imapping
Tile
p1145
(dp1146
g346
g347
sg348
VC_Castle HRmR
p1147
sg350
F1
sg351
I00
sba(imapping
Tile
p1148
(dp1149
g346
g347
sg348
VC_Castle Ground 1
p1150
sg350
F1
sg351
I00
sba(imapping
Tile
p1151
(dp1152
g346
g347
sg348
VC_Castle Ground 1
p1153
sg350
F1
sg351
I00
sba(imapping
Tile
p1154
(dp1155
g346
g347
sg348
VC_Castle Ground 1
p1156
sg350
F1
sg351
I00
sba(imapping
Tile
p1157
(dp1158
g346
g347
sg348
VC_Castle Ground 1
p1159
sg350
F1
sg351
I00
sba(imapping
Tile
p1160
(dp1161
g346
g347
sg348
VC_Castle Ground 1
p1162
sg350
F1
sg351
I00
sbaa(lp1163
NaNaNaNaNa(imapping
Tile
p1164
(dp1165
g346
g347
sg348
VC_Castle Floor 3
p1166
sg350
F1
sg351
I00
sba(imapping
Tile
p1167
(dp1168
g346
g347
sg348
VC_Castle Ground 2
p1169
sg350
F1
sg351
I00
sba(imapping
Tile
p1170
(dp1171
g346
g347
sg348
VC_Castle Ground 2
p1172
sg350
F1
sg351
I00
sba(imapping
Tile
p1173
(dp1174
g346
g347
sg348
VC_Castle Ground 2
p1175
sg350
F1
sg351
I00
sba(imapping
Tile
p1176
(dp1177
g346
g347
sg348
VC_Castle Ground 1
p1178
sg350
F1
sg351
I00
sba(imapping
Tile
p1179
(dp1180
g346
g347
sg348
VC_Castle Ground 2
p1181
sg350
F1
sg351
I00
sba(imapping
Tile
p1182
(dp1183
g346
g347
sg348
VC_Castle Ground 2
p1184
sg350
F1
sg351
I00
sbaa(lp1185
NaNaNaNaNa(imapping
Tile
p1186
(dp1187
g346
g347
sg348
VC_Castle Floor 2
p1188
sg350
F1
sg351
I00
sba(imapping
Tile
p1189
(dp1190
g346
g347
sg348
VC_Castle Ground 2
p1191
sg350
F1
sg351
I00
sba(imapping
Tile
p1192
(dp1193
g346
g347
sg348
VC_Castle Ground 2
p1194
sg350
F1
sg351
I00
sba(imapping
Tile
p1195
(dp1196
g346
g347
sg348
VC_Castle Ground 1
p1197
sg350
F1
sg351
I00
sba(imapping
Tile
p1198
(dp1199
g346
g347
sg348
VC_Castle Ground 2
p1200
sg350
F1
sg351
I00
sba(imapping
Tile
p1201
(dp1202
g346
g347
sg348
VC_Castle Ground 2
p1203
sg350
F1
sg351
I00
sba(imapping
Tile
p1204
(dp1205
g346
g347
sg348
VC_Castle Ground 2
p1206
sg350
F1
sg351
I00
sbaa(lp1207
NaNaNaNaNa(imapping
Tile
p1208
(dp1209
g346
g347
sg348
VC_Castle Floor 1
p1210
sg350
F1
sg351
I00
sba(imapping
Tile
p1211
(dp1212
g346
g347
sg348
VC_Castle Ground 2
p1213
sg350
F1
sg351
I00
sba(imapping
Tile
p1214
(dp1215
g346
g347
sg348
VC_Castle Ground 1
p1216
sg350
F1
sg351
I00
sba(imapping
Tile
p1217
(dp1218
g346
g347
sg348
VC_Castle Ground 2
p1219
sg350
F1
sg351
I00
sba(imapping
Tile
p1220
(dp1221
g346
g347
sg348
VC_Castle Ground 2
p1222
sg350
F1
sg351
I00
sba(imapping
Tile
p1223
(dp1224
g346
g347
sg348
VC_Castle Ground 1
p1225
sg350
F1
sg351
I00
sba(imapping
Tile
p1226
(dp1227
g346
g347
sg348
VC_Castle Ground 1
p1228
sg350
F1
sg351
I00
sbaa(lp1229
NaNaNaNaNa(imapping
Tile
p1230
(dp1231
g346
g347
sg348
VC_Castle Floor 2
p1232
sg350
F1
sg351
I00
sba(imapping
Tile
p1233
(dp1234
g346
g347
sg348
VC_Castle Ground 2
p1235
sg350
F1
sg351
I00
sba(imapping
Tile
p1236
(dp1237
g346
g347
sg348
VC_Castle Ground 1
p1238
sg350
F1
sg351
I00
sba(imapping
Tile
p1239
(dp1240
g346
g347
sg348
VC_Castle Ground 1
p1241
sg350
F1
sg351
I00
sba(imapping
Tile
p1242
(dp1243
g346
g347
sg348
VC_Castle Ground 2
p1244
sg350
F1
sg351
I00
sba(imapping
Tile
p1245
(dp1246
g346
g347
sg348
VC_Castle Ground 2
p1247
sg350
F1
sg351
I00
sba(imapping
Tile
p1248
(dp1249
g346
g347
sg348
VC_Castle Ground 2
p1250
sg350
F1
sg351
I00
sbaa(lp1251
NaNaNaNaNa(imapping
Tile
p1252
(dp1253
g346
g347
sg348
VC_Castle Floor 2
p1254
sg350
F1
sg351
I00
sba(imapping
Tile
p1255
(dp1256
g346
g347
sg348
VC_Castle Ground 2
p1257
sg350
F1
sg351
I00
sba(imapping
Tile
p1258
(dp1259
g346
g347
sg348
VC_Castle Ground 2
p1260
sg350
F1
sg351
I00
sba(imapping
Tile
p1261
(dp1262
g346
g347
sg348
VC_Castle Ground 2
p1263
sg350
F1
sg351
I00
sba(imapping
Tile
p1264
(dp1265
g346
g347
sg348
VC_Castle Ground 1
p1266
sg350
F1
sg351
I00
sba(imapping
Tile
p1267
(dp1268
g346
g347
sg348
VC_Castle Ground 1
p1269
sg350
F1
sg351
I00
sba(imapping
Tile
p1270
(dp1271
g346
g347
sg348
VC_Castle Ground 2
p1272
sg350
F1
sg351
I00
sbaa(lp1273
NaNaNaNaNa(imapping
Tile
p1274
(dp1275
g346
g347
sg348
VC_Castle Floor 4
p1276
sg350
F1
sg351
I00
sba(imapping
Tile
p1277
(dp1278
g346
g347
sg348
VC_Castle Ground 2
p1279
sg350
F1
sg351
I00
sba(imapping
Tile
p1280
(dp1281
g346
g347
sg348
VC_Castle Ground 2
p1282
sg350
F1
sg351
I00
sba(imapping
Tile
p1283
(dp1284
g346
g347
sg348
VC_Castle Ground 2
p1285
sg350
F1
sg351
I00
sba(imapping
Tile
p1286
(dp1287
g346
g347
sg348
VC_Castle Ground 1
p1288
sg350
F1
sg351
I00
sba(imapping
Tile
p1289
(dp1290
g346
g347
sg348
VC_Castle Ground 2
p1291
sg350
F1
sg351
I00
sba(imapping
Tile
p1292
(dp1293
g346
g347
sg348
VC_Castle Ground 2
p1294
sg350
F1
sg351
I00
sbaa(lp1295
NaNaNaNaNa(imapping
Tile
p1296
(dp1297
g346
g593
sg348
VC_Castle HRL
p1298
sg350
F1
sg351
I00
sba(imapping
Tile
p1299
(dp1300
g346
g347
sg348
VC_Castle HRmL
p1301
sg350
F1
sg351
I00
sba(imapping
Tile
p1302
(dp1303
g346
g347
sg348
VC_Castle Ground 2
p1304
sg350
F1
sg351
I00
sba(imapping
Tile
p1305
(dp1306
g346
g347
sg348
VC_Castle Ground 2
p1307
sg350
F1
sg351
I00
sba(imapping
Tile
p1308
(dp1309
g346
g347
sg348
VC_Castle Ground 2
p1310
sg350
F1
sg351
I00
sba(imapping
Tile
p1311
(dp1312
g346
g347
sg348
VC_Castle Ground 2
p1313
sg350
F1
sg351
I00
sba(imapping
Tile
p1314
(dp1315
g346
g347
sg348
VC_Castle Ground 1
p1316
sg350
F1
sg351
I00
sbaa(lp1317
NaNaNaNaNaNa(imapping
Tile
p1318
(dp1319
g346
g593
sg348
VC_Castle HRL
p1320
sg350
F1
sg351
I00
sba(imapping
Tile
p1321
(dp1322
g346
g347
sg348
VC_Castle HRmL
p1323
sg350
F1
sg351
I00
sba(imapping
Tile
p1324
(dp1325
g346
g347
sg348
VC_Castle Ground 2
p1326
sg350
F1
sg351
I00
sba(imapping
Tile
p1327
(dp1328
g346
g347
sg348
VC_Castle Ground 2
p1329
sg350
F1
sg351
I00
sba(imapping
Tile
p1330
(dp1331
g346
g347
sg348
VC_Castle Ground 2
p1332
sg350
F1
sg351
I00
sba(imapping
Tile
p1333
(dp1334
g346
g347
sg348
VC_Castle Ground 2
p1335
sg350
F1
sg351
I00
sbaa(lp1336
NaNaNaNaNaNaNa(imapping
Tile
p1337
(dp1338
g346
g593
sg348
VC_Castle HRL
p1339
sg350
F1
sg351
I00
sba(imapping
Tile
p1340
(dp1341
g346
g347
sg348
VC_Castle HRmL
p1342
sg350
F1
sg351
I00
sba(imapping
Tile
p1343
(dp1344
g346
g347
sg348
VC_Castle Ground 2
p1345
sg350
F1
sg351
I00
sba(imapping
Tile
p1346
(dp1347
g346
g347
sg348
VC_Castle Ground 2
p1348
sg350
F1
sg351
I00
sba(imapping
Tile
p1349
(dp1350
g346
g347
sg348
VC_Castle Ground 1
p1351
sg350
F1
sg351
I00
sbaa(lp1352
NaNaNaNaNaNaNaNa(imapping
Tile
p1353
(dp1354
g346
g347
sg348
VC_Castle Floor 1
p1355
sg350
F1
sg351
I00
sba(imapping
Tile
p1356
(dp1357
g346
g347
sg348
VC_Castle Ground 2
p1358
sg350
F1
sg351
I00
sba(imapping
Tile
p1359
(dp1360
g346
g347
sg348
VC_Castle Ground 1
p1361
sg350
F1
sg351
I00
sba(imapping
Tile
p1362
(dp1363
g346
g347
sg348
VC_Castle Ground 2
p1364
sg350
F1
sg351
I00
sbaa(lp1365
NaNaNaNaNaNaNaNa(imapping
Tile
p1366
(dp1367
g346
g347
sg348
VC_Castle Floor 2
p1368
sg350
F1
sg351
I00
sba(imapping
Tile
p1369
(dp1370
g346
g347
sg348
VC_Castle Ground 2
p1371
sg350
F1
sg351
I00
sba(imapping
Tile
p1372
(dp1373
g346
g347
sg348
VC_Castle Ground 2
p1374
sg350
F1
sg351
I00
sba(imapping
Tile
p1375
(dp1376
g346
g347
sg348
VC_Castle Ground 2
p1377
sg350
F1
sg351
I00
sbaa(lp1378
NaNaNaNaNaNaNaNa(imapping
Tile
p1379
(dp1380
g346
g347
sg348
VC_Castle Floor 3
p1381
sg350
F1
sg351
I00
sba(imapping
Tile
p1382
(dp1383
g346
g347
sg348
VC_Castle Ground 2
p1384
sg350
F1
sg351
I00
sba(imapping
Tile
p1385
(dp1386
g346
g347
sg348
VC_Castle Ground 2
p1387
sg350
F1
sg351
I00
sba(imapping
Tile
p1388
(dp1389
g346
g347
sg348
VC_Castle Ground 2
p1390
sg350
F1
sg351
I00
sbaa(lp1391
NaNaNaNaNaNaNaNa(imapping
Tile
p1392
(dp1393
g346
g347
sg348
VC_Castle Floor 4
p1394
sg350
F1
sg351
I00
sba(imapping
Tile
p1395
(dp1396
g346
g347
sg348
VC_Castle Ground 2
p1397
sg350
F1
sg351
I00
sba(imapping
Tile
p1398
(dp1399
g346
g347
sg348
VC_Castle Ground 2
p1400
sg350
F1
sg351
I00
sba(imapping
Tile
p1401
(dp1402
g346
g347
sg348
VC_Castle Ground 2
p1403
sg350
F1
sg351
I00
sbaa(lp1404
NaNaNaNaNaNaNaNa(imapping
Tile
p1405
(dp1406
g346
g347
sg348
VC_Castle Floor 3
p1407
sg350
F1
sg351
I00
sba(imapping
Tile
p1408
(dp1409
g346
g347
sg348
VC_Castle Ground 2
p1410
sg350
F1
sg351
I00
sba(imapping
Tile
p1411
(dp1412
g346
g347
sg348
VC_Castle Ground 1
p1413
sg350
F1
sg351
I00
sba(imapping
Tile
p1414
(dp1415
g346
g347
sg348
VC_Castle Ground 2
p1416
sg350
F1
sg351
I00
sbaa(lp1417
NaNaNaNaNaNaNaNa(imapping
Tile
p1418
(dp1419
g346
g347
sg348
VC_Castle Floor 2
p1420
sg350
F1
sg351
I00
sba(imapping
Tile
p1421
(dp1422
g346
g347
sg348
VC_Castle Ground 2
p1423
sg350
F1
sg351
I00
sba(imapping
Tile
p1424
(dp1425
g346
g347
sg348
VC_Castle Ground 2
p1426
sg350
F1
sg351
I00
sba(imapping
Tile
p1427
(dp1428
g346
g347
sg348
VC_Castle Ground 1
p1429
sg350
F1
sg351
I00
sbaa(lp1430
NaNaNaNaNaNaNa(imapping
Tile
p1431
(dp1432
g346
g468
sg348
VC_Suit of Armour
p1433
sg350
F1
sg351
I00
sba(imapping
Tile
p1434
(dp1435
g346
g347
sg348
VC_Castle Floor 2
p1436
sg350
F1
sg351
I00
sba(imapping
Tile
p1437
(dp1438
g346
g347
sg348
VC_Castle Ground 1
p1439
sg350
F1
sg351
I00
sba(imapping
Tile
p1440
(dp1441
g346
g347
sg348
VC_Castle Ground 1
p1442
sg350
F1
sg351
I00
sba(imapping
Tile
p1443
(dp1444
g346
g347
sg348
VC_Castle Ground 1
p1445
sg350
F1
sg351
I00
sbaa(lp1446
NaNaNaNaNaNaNaNa(imapping
Tile
p1447
(dp1448
g346
g347
sg348
VC_Castle Floor 3
p1449
sg350
F1
sg351
I00
sba(imapping
Tile
p1450
(dp1451
g346
g347
sg348
VC_Castle Ground 2
p1452
sg350
F1
sg351
I00
sba(imapping
Tile
p1453
(dp1454
g346
g347
sg348
VC_Castle Ground 2
p1455
sg350
F1
sg351
I00
sba(imapping
Tile
p1456
(dp1457
g346
g347
sg348
VC_Castle Ground 2
p1458
sg350
F1
sg351
I00
sbaa(lp1459
NaNaNaNaNaNaNaNa(imapping
Tile
p1460
(dp1461
g346
g347
sg348
VC_Castle Floor 2
p1462
sg350
F1
sg351
I00
sba(imapping
Tile
p1463
(dp1464
g346
g347
sg348
VC_Castle Ground 2
p1465
sg350
F1
sg351
I00
sba(imapping
Tile
p1466
(dp1467
g346
g347
sg348
VC_Castle Ground 2
p1468
sg350
F1
sg351
I00
sba(imapping
Tile
p1469
(dp1470
g346
g347
sg348
VC_Castle Ground 1
p1471
sg350
F1
sg351
I00
sbaa(lp1472
NaNaNaNaNaNaNa(imapping
Tile
p1473
(dp1474
g346
g468
sg348
VC_Suit of Armour
p1475
sg350
F1
sg351
I00
sba(imapping
Tile
p1476
(dp1477
g346
g347
sg348
VC_Castle Floor 2
p1478
sg350
F1
sg351
I00
sba(imapping
Tile
p1479
(dp1480
g346
g347
sg348
VC_Castle Ground 2
p1481
sg350
F1
sg351
I00
sba(imapping
Tile
p1482
(dp1483
g346
g347
sg348
VC_Castle Ground 1
p1484
sg350
F1
sg351
I00
sba(imapping
Tile
p1485
(dp1486
g346
g347
sg348
VC_Castle Ground 2
p1487
sg350
F1
sg351
I00
sbaa(lp1488
NaNaNaNaNaNaNaNa(imapping
Tile
p1489
(dp1490
g346
g347
sg348
VC_Castle Floor 2
p1491
sg350
F1
sg351
I00
sba(imapping
Tile
p1492
(dp1493
g346
g347
sg348
VC_Castle Ground 2
p1494
sg350
F1
sg351
I00
sba(imapping
Tile
p1495
(dp1496
g346
g347
sg348
VC_Castle Ground 1
p1497
sg350
F1
sg351
I00
sba(imapping
Tile
p1498
(dp1499
g346
g347
sg348
VC_Castle Ground 2
p1500
sg350
F1
sg351
I00
sbaa(lp1501
NaNaNaNaNaNaNaNa(imapping
Tile
p1502
(dp1503
g346
g347
sg348
VC_Castle Floor 1
p1504
sg350
F1
sg351
I00
sba(imapping
Tile
p1505
(dp1506
g346
g347
sg348
VC_Castle Ground 2
p1507
sg350
F1
sg351
I00
sba(imapping
Tile
p1508
(dp1509
g346
g347
sg348
VC_Castle Ground 1
p1510
sg350
F1
sg351
I00
sba(imapping
Tile
p1511
(dp1512
g346
g347
sg348
VC_Castle Ground 2
p1513
sg350
F1
sg351
I00
sbaa(lp1514
NaNaNaNaNaNaNaNa(imapping
Tile
p1515
(dp1516
g346
g347
sg348
VC_Castle Floor 2
p1517
sg350
F1
sg351
I00
sba(imapping
Tile
p1518
(dp1519
g346
g347
sg348
VC_Castle Ground 2
p1520
sg350
F1
sg351
I00
sba(imapping
Tile
p1521
(dp1522
g346
g347
sg348
VC_Castle Ground 2
p1523
sg350
F1
sg351
I00
sba(imapping
Tile
p1524
(dp1525
g346
g347
sg348
VC_Castle Ground 2
p1526
sg350
F1
sg351
I00
sbaa(lp1527
NaNaNaNaNaNaNaNa(imapping
Tile
p1528
(dp1529
g346
g347
sg348
VC_Castle Floor 4
p1530
sg350
F1
sg351
I00
sba(imapping
Tile
p1531
(dp1532
g346
g347
sg348
VC_Castle Ground 2
p1533
sg350
F1
sg351
I00
sba(imapping
Tile
p1534
(dp1535
g346
g347
sg348
VC_Castle Ground 2
p1536
sg350
F1
sg351
I00
sba(imapping
Tile
p1537
(dp1538
g346
g347
sg348
VC_Castle Ground 1
p1539
sg350
F1
sg351
I00
sbaa(lp1540
NaNaNaNaNaNaNaNa(imapping
Tile
p1541
(dp1542
g346
g347
sg348
VC_Castle Floor 4
p1543
sg350
F1
sg351
I00
sba(imapping
Tile
p1544
(dp1545
g346
g347
sg348
VC_Castle Ground 2
p1546
sg350
F1
sg351
I00
sba(imapping
Tile
p1547
(dp1548
g346
g347
sg348
VC_Castle Ground 2
p1549
sg350
F1
sg351
I00
sba(imapping
Tile
p1550
(dp1551
g346
g347
sg348
VC_Castle Ground 1
p1552
sg350
F1
sg351
I00
sbaa(lp1553
NaNaNaNaNaNaNa(imapping
Tile
p1554
(dp1555
g346
g405
sg348
VC_Castle HRR
p1556
sg350
F1
sg351
I00
sba(imapping
Tile
p1557
(dp1558
g346
g347
sg348
VC_Castle HRmR
p1559
sg350
F1
sg351
I00
sba(imapping
Tile
p1560
(dp1561
g346
g347
sg348
VC_Castle Ground 2
p1562
sg350
F1
sg351
I00
sba(imapping
Tile
p1563
(dp1564
g346
g347
sg348
VC_Castle Ground 2
p1565
sg350
F1
sg351
I00
sba(imapping
Tile
p1566
(dp1567
g346
g347
sg348
VC_Castle Ground 1
p1568
sg350
F1
sg351
I00
sbaa(lp1569
NaNaNaNaNaNaNa(imapping
Tile
p1570
(dp1571
g346
g347
sg348
VC_Castle Floor 2
p1572
sg350
F1
sg351
I00
sba(imapping
Tile
p1573
(dp1574
g346
g347
sg348
VC_Castle Ground 2
p1575
sg350
F1
sg351
I00
sba(imapping
Tile
p1576
(dp1577
g346
g347
sg348
VC_Castle Ground 2
p1578
sg350
F1
sg351
I00
sba(imapping
Tile
p1579
(dp1580
g346
g347
sg348
VC_Castle Ground 2
p1581
sg350
F1
sg351
I00
sba(imapping
Tile
p1582
(dp1583
g346
g347
sg348
VC_Castle Ground 2
p1584
sg350
F1
sg351
I00
sbaa(lp1585
NaNaNaNaNaNaNa(imapping
Tile
p1586
(dp1587
g346
g347
sg348
VC_Castle Floor 3
p1588
sg350
F1
sg351
I00
sba(imapping
Tile
p1589
(dp1590
g346
g347
sg348
VC_Castle Ground 2
p1591
sg350
F1
sg351
I00
sba(imapping
Tile
p1592
(dp1593
g346
g347
sg348
VC_Castle Ground 2
p1594
sg350
F1
sg351
I00
sba(imapping
Tile
p1595
(dp1596
g346
g347
sg348
VC_Castle Ground 2
p1597
sg350
F1
sg351
I00
sba(imapping
Tile
p1598
(dp1599
g346
g347
sg348
VC_Castle Ground 2
p1600
sg350
F1
sg351
I00
sbaa(lp1601
NaNaNaNaNaNaNa(imapping
Tile
p1602
(dp1603
g346
g347
sg348
VC_Castle Floor 1
p1604
sg350
F1
sg351
I00
sba(imapping
Tile
p1605
(dp1606
g346
g347
sg348
VC_Castle Ground 2
p1607
sg350
F1
sg351
I00
sba(imapping
Tile
p1608
(dp1609
g346
g347
sg348
VC_Castle Ground 2
p1610
sg350
F1
sg351
I00
sba(imapping
Tile
p1611
(dp1612
g346
g347
sg348
VC_Castle Ground 1
p1613
sg350
F1
sg351
I00
sba(imapping
Tile
p1614
(dp1615
g346
g347
sg348
VC_Castle Ground 2
p1616
sg350
F1
sg351
I00
sbaa(lp1617
NaNaNaNaNaNaNa(imapping
Tile
p1618
(dp1619
g346
g347
sg348
VC_Castle Floor 2
p1620
sg350
F1
sg351
I00
sba(imapping
Tile
p1621
(dp1622
g346
g347
sg348
VC_Castle Ground 2
p1623
sg350
F1
sg351
I00
sba(imapping
Tile
p1624
(dp1625
g346
g347
sg348
VC_Castle Ground 2
p1626
sg350
F1
sg351
I00
sba(imapping
Tile
p1627
(dp1628
g346
g347
sg348
VC_Castle Ground 1
p1629
sg350
F1
sg351
I00
sba(imapping
Tile
p1630
(dp1631
g346
g347
sg348
VC_Castle Ground 2
p1632
sg350
F1
sg351
I00
sbaa(lp1633
NaNaNaNaNaNaNa(imapping
Tile
p1634
(dp1635
g346
g347
sg348
VC_Castle Floor 1
p1636
sg350
F1
sg351
I00
sba(imapping
Tile
p1637
(dp1638
g346
g347
sg348
VC_Castle Ground 2
p1639
sg350
F1
sg351
I00
sba(imapping
Tile
p1640
(dp1641
g346
g347
sg348
VC_Castle Ground 2
p1642
sg350
F1
sg351
I00
sba(imapping
Tile
p1643
(dp1644
g346
g347
sg348
VC_Castle Ground 1
p1645
sg350
F1
sg351
I00
sba(imapping
Tile
p1646
(dp1647
g346
g347
sg348
VC_Castle Ground 2
p1648
sg350
F1
sg351
I00
sbaa(lp1649
NaNaNaNaNaNaNa(imapping
Tile
p1650
(dp1651
g346
g347
sg348
VC_Castle Floor 3
p1652
sg350
F1
sg351
I00
sba(imapping
Tile
p1653
(dp1654
g346
g347
sg348
VC_Castle Ground 1
p1655
sg350
F1
sg351
I00
sba(imapping
Tile
p1656
(dp1657
g346
g347
sg348
VC_Castle Ground 2
p1658
sg350
F1
sg351
I00
sba(imapping
Tile
p1659
(dp1660
g346
g347
sg348
VC_Castle Ground 2
p1661
sg350
F1
sg351
I00
sba(imapping
Tile
p1662
(dp1663
g346
g347
sg348
VC_Castle Ground 2
p1664
sg350
F1
sg351
I00
sbaa(lp1665
NaNaNaNaNaNaNa(imapping
Tile
p1666
(dp1667
g346
g347
sg348
VC_Castle Floor 4
p1668
sg350
F1
sg351
I00
sba(imapping
Tile
p1669
(dp1670
g346
g347
sg348
VC_Castle Ground 2
p1671
sg350
F1
sg351
I00
sba(imapping
Tile
p1672
(dp1673
g346
g347
sg348
VC_Castle Ground 2
p1674
sg350
F1
sg351
I00
sba(imapping
Tile
p1675
(dp1676
g346
g347
sg348
VC_Castle Ground 2
p1677
sg350
F1
sg351
I00
sba(imapping
Tile
p1678
(dp1679
g346
g347
sg348
VC_Castle Ground 2
p1680
sg350
F1
sg351
I00
sbaa(lp1681
NaNaNaNaNaNaNa(imapping
Tile
p1682
(dp1683
g346
g347
sg348
VC_Castle Floor 1
p1684
sg350
F1
sg351
I00
sba(imapping
Tile
p1685
(dp1686
g346
g347
sg348
VC_Castle Ground 2
p1687
sg350
F1
sg351
I00
sba(imapping
Tile
p1688
(dp1689
g346
g347
sg348
VC_Castle Ground 2
p1690
sg350
F1
sg351
I00
sba(imapping
Tile
p1691
(dp1692
g346
g347
sg348
VC_Castle Ground 2
p1693
sg350
F1
sg351
I00
sba(imapping
Tile
p1694
(dp1695
g346
g347
sg348
VC_Castle Ground 2
p1696
sg350
F1
sg351
I00
sbaa(lp1697
NaNaNaNaNaNaNa(imapping
Tile
p1698
(dp1699
g346
g347
sg348
VC_Castle Floor 4
p1700
sg350
F1
sg351
I00
sba(imapping
Tile
p1701
(dp1702
g346
g347
sg348
VC_Castle Ground 2
p1703
sg350
F1
sg351
I00
sba(imapping
Tile
p1704
(dp1705
g346
g347
sg348
VC_Castle Ground 1
p1706
sg350
F1
sg351
I00
sba(imapping
Tile
p1707
(dp1708
g346
g347
sg348
VC_Castle Ground 2
p1709
sg350
F1
sg351
I00
sba(imapping
Tile
p1710
(dp1711
g346
g347
sg348
VC_Castle Ground 2
p1712
sg350
F1
sg351
I00
sbaa(lp1713
NaNaNaNaNaNaNa(imapping
Tile
p1714
(dp1715
g346
g347
sg348
VC_Castle Floor 2
p1716
sg350
F1
sg351
I00
sba(imapping
Tile
p1717
(dp1718
g346
g347
sg348
VC_Castle Ground 2
p1719
sg350
F1
sg351
I00
sba(imapping
Tile
p1720
(dp1721
g346
g347
sg348
VC_Castle Ground 2
p1722
sg350
F1
sg351
I00
sba(imapping
Tile
p1723
(dp1724
g346
g347
sg348
VC_Castle Ground 1
p1725
sg350
F1
sg351
I00
sba(imapping
Tile
p1726
(dp1727
g346
g347
sg348
VC_Castle Ground 2
p1728
sg350
F1
sg351
I00
sbaa(lp1729
NaNaNaNaNaNa(imapping
Tile
p1730
(dp1731
g346
g468
sg348
VC_Suit of Armour
p1732
sg350
F1
sg351
I00
sba(imapping
Tile
p1733
(dp1734
g346
g347
sg348
VC_Castle Floor 1
p1735
sg350
F1
sg351
I00
sba(imapping
Tile
p1736
(dp1737
g346
g347
sg348
VC_Castle Ground 2
p1738
sg350
F1
sg351
I00
sba(imapping
Tile
p1739
(dp1740
g346
g347
sg348
VC_Castle Ground 2
p1741
sg350
F1
sg351
I00
sba(imapping
Tile
p1742
(dp1743
g346
g347
sg348
VC_Castle Ground 1
p1744
sg350
F1
sg351
I00
sba(imapping
Tile
p1745
(dp1746
g346
g347
sg348
VC_Castle Ground 2
p1747
sg350
F1
sg351
I00
sbaa(lp1748
NaNaNaNaNaNa(imapping
Tile
p1749
(dp1750
g346
g468
sg348
VC_Suit of Armour
p1751
sg350
F1
sg351
I00
sba(imapping
Tile
p1752
(dp1753
g346
g347
sg348
VC_Castle Floor 4
p1754
sg350
F1
sg351
I00
sba(imapping
Tile
p1755
(dp1756
g346
g347
sg348
VC_Castle Ground 2
p1757
sg350
F1
sg351
I00
sba(imapping
Tile
p1758
(dp1759
g346
g347
sg348
VC_Castle Ground 2
p1760
sg350
F1
sg351
I00
sba(imapping
Tile
p1761
(dp1762
g346
g347
sg348
VC_Castle Ground 2
p1763
sg350
F1
sg351
I00
sba(imapping
Tile
p1764
(dp1765
g346
g347
sg348
VC_Castle Ground 2
p1766
sg350
F1
sg351
I00
sbaa(lp1767
NaNaNaNaNaNaNa(imapping
Tile
p1768
(dp1769
g346
g347
sg348
VC_Castle Floor 2
p1770
sg350
F1
sg351
I00
sba(imapping
Tile
p1771
(dp1772
g346
g347
sg348
VC_Castle Ground 2
p1773
sg350
F1
sg351
I00
sba(imapping
Tile
p1774
(dp1775
g346
g347
sg348
VC_Castle Ground 2
p1776
sg350
F1
sg351
I00
sba(imapping
Tile
p1777
(dp1778
g346
g347
sg348
VC_Castle Ground 2
p1779
sg350
F1
sg351
I00
sba(imapping
Tile
p1780
(dp1781
g346
g347
sg348
VC_Castle Ground 2
p1782
sg350
F1
sg351
I00
sbaa(lp1783
NaNaNaNaNaNaNa(imapping
Tile
p1784
(dp1785
g346
g347
sg348
VC_Castle Floor 3
p1786
sg350
F1
sg351
I00
sba(imapping
Tile
p1787
(dp1788
g346
g347
sg348
VC_Castle Ground 2
p1789
sg350
F1
sg351
I00
sba(imapping
Tile
p1790
(dp1791
g346
g347
sg348
VC_Castle Ground 1
p1792
sg350
F1
sg351
I00
sba(imapping
Tile
p1793
(dp1794
g346
g347
sg348
VC_Castle Ground 2
p1795
sg350
F1
sg351
I00
sba(imapping
Tile
p1796
(dp1797
g346
g347
sg348
VC_Castle Ground 1
p1798
sg350
F1
sg351
I00
sbaa(lp1799
NaNaNaNaNaNaNa(imapping
Tile
p1800
(dp1801
g346
g347
sg348
VC_Castle Floor 3
p1802
sg350
F1
sg351
I00
sba(imapping
Tile
p1803
(dp1804
g346
g347
sg348
VC_Castle Ground 2
p1805
sg350
F1
sg351
I00
sba(imapping
Tile
p1806
(dp1807
g346
g347
sg348
VC_Castle Ground 2
p1808
sg350
F1
sg351
I00
sba(imapping
Tile
p1809
(dp1810
g346
g347
sg348
VC_Castle Ground 2
p1811
sg350
F1
sg351
I00
sba(imapping
Tile
p1812
(dp1813
g346
g347
sg348
VC_Castle Ground 1
p1814
sg350
F1
sg351
I00
sbaa(lp1815
NaNaNaNaNaNaNa(imapping
Tile
p1816
(dp1817
g346
g347
sg348
VC_Castle Floor 4
p1818
sg350
F1
sg351
I00
sba(imapping
Tile
p1819
(dp1820
g346
g347
sg348
VC_Castle Ground 2
p1821
sg350
F1
sg351
I00
sba(imapping
Tile
p1822
(dp1823
g346
g347
sg348
VC_Castle Ground 2
p1824
sg350
F1
sg351
I00
sba(imapping
Tile
p1825
(dp1826
g346
g347
sg348
VC_Castle Ground 2
p1827
sg350
F1
sg351
I00
sba(imapping
Tile
p1828
(dp1829
g346
g347
sg348
VC_Castle Ground 2
p1830
sg350
F1
sg351
I00
sbaa(lp1831
NaNaNaNaNaNaNa(imapping
Tile
p1832
(dp1833
g346
g347
sg348
VC_Castle Floor 2
p1834
sg350
F1
sg351
I00
sba(imapping
Tile
p1835
(dp1836
g346
g347
sg348
VC_Castle Ground 2
p1837
sg350
F1
sg351
I00
sba(imapping
Tile
p1838
(dp1839
g346
g347
sg348
VC_Castle Ground 2
p1840
sg350
F1
sg351
I00
sba(imapping
Tile
p1841
(dp1842
g346
g347
sg348
VC_Castle Ground 1
p1843
sg350
F1
sg351
I00
sba(imapping
Tile
p1844
(dp1845
g346
g347
sg348
VC_Castle Ground 2
p1846
sg350
F1
sg351
I00
sbaa(lp1847
NaNaNaNaNaNaNa(imapping
Tile
p1848
(dp1849
g346
g347
sg348
VC_Castle Floor 4
p1850
sg350
F1
sg351
I00
sba(imapping
Tile
p1851
(dp1852
g346
g347
sg348
VC_Castle Ground 2
p1853
sg350
F1
sg351
I00
sba(imapping
Tile
p1854
(dp1855
g346
g347
sg348
VC_Castle Ground 2
p1856
sg350
F1
sg351
I00
sba(imapping
Tile
p1857
(dp1858
g346
g347
sg348
VC_Castle Ground 1
p1859
sg350
F1
sg351
I00
sba(imapping
Tile
p1860
(dp1861
g346
g347
sg348
VC_Castle Ground 2
p1862
sg350
F1
sg351
I00
sbaa(lp1863
NaNaNaNaNaNaNa(imapping
Tile
p1864
(dp1865
g346
g347
sg348
VC_Castle Floor 4
p1866
sg350
F1
sg351
I00
sba(imapping
Tile
p1867
(dp1868
g346
g347
sg348
VC_Castle Ground 2
p1869
sg350
F1
sg351
I00
sba(imapping
Tile
p1870
(dp1871
g346
g347
sg348
VC_Castle Ground 2
p1872
sg350
F1
sg351
I00
sba(imapping
Tile
p1873
(dp1874
g346
g347
sg348
VC_Castle Ground 2
p1875
sg350
F1
sg351
I00
sba(imapping
Tile
p1876
(dp1877
g346
g347
sg348
VC_Castle Ground 2
p1878
sg350
F1
sg351
I00
sbaa(lp1879
NaNaNaNaNaNaNa(imapping
Tile
p1880
(dp1881
g346
g347
sg348
VC_Castle Floor 3
p1882
sg350
F1
sg351
I00
sba(imapping
Tile
p1883
(dp1884
g346
g347
sg348
VC_Castle Ground 2
p1885
sg350
F1
sg351
I00
sba(imapping
Tile
p1886
(dp1887
g346
g347
sg348
VC_Castle Ground 2
p1888
sg350
F1
sg351
I00
sba(imapping
Tile
p1889
(dp1890
g346
g347
sg348
VC_Castle Ground 2
p1891
sg350
F1
sg351
I00
sba(imapping
Tile
p1892
(dp1893
g346
g347
sg348
VC_Castle Ground 2
p1894
sg350
F1
sg351
I00
sbaa(lp1895
NaNaNaNaNaNaNa(imapping
Tile
p1896
(dp1897
g346
g347
sg348
VC_Castle Floor 3
p1898
sg350
F1
sg351
I00
sba(imapping
Tile
p1899
(dp1900
g346
g347
sg348
VC_Castle Ground 2
p1901
sg350
F1
sg351
I00
sba(imapping
Tile
p1902
(dp1903
g346
g347
sg348
VC_Castle Ground 2
p1904
sg350
F1
sg351
I00
sba(imapping
Tile
p1905
(dp1906
g346
g347
sg348
VC_Castle Ground 1
p1907
sg350
F1
sg351
I00
sba(imapping
Tile
p1908
(dp1909
g346
g347
sg348
VC_Castle Ground 1
p1910
sg350
F1
sg351
I00
sbaa(lp1911
NaNaNaNaNaNaNa(imapping
Tile
p1912
(dp1913
g346
g347
sg348
VC_Castle Floor 2
p1914
sg350
F1
sg351
I00
sba(imapping
Tile
p1915
(dp1916
g346
g347
sg348
VC_Castle Ground 2
p1917
sg350
F1
sg351
I00
sba(imapping
Tile
p1918
(dp1919
g346
g347
sg348
VC_Castle Ground 2
p1920
sg350
F1
sg351
I00
sba(imapping
Tile
p1921
(dp1922
g346
g347
sg348
VC_Castle Ground 2
p1923
sg350
F1
sg351
I00
sba(imapping
Tile
p1924
(dp1925
g346
g347
sg348
VC_Castle Ground 1
p1926
sg350
F1
sg351
I00
sbaa(lp1927
NaNaNaNaNaNaNa(imapping
Tile
p1928
(dp1929
g346
g347
sg348
VC_Castle Floor 3
p1930
sg350
F1
sg351
I00
sba(imapping
Tile
p1931
(dp1932
g346
g347
sg348
VC_Castle Ground 2
p1933
sg350
F1
sg351
I00
sba(imapping
Tile
p1934
(dp1935
g346
g347
sg348
VC_Castle Ground 2
p1936
sg350
F1
sg351
I00
sba(imapping
Tile
p1937
(dp1938
g346
g347
sg348
VC_Castle Ground 2
p1939
sg350
F1
sg351
I00
sba(imapping
Tile
p1940
(dp1941
g346
g347
sg348
VC_Castle Ground 2
p1942
sg350
F1
sg351
I00
sbaa(lp1943
NaNaNaNaNaNaNa(imapping
Tile
p1944
(dp1945
g346
g347
sg348
VC_Castle Floor 3
p1946
sg350
F1
sg351
I00
sba(imapping
Tile
p1947
(dp1948
g346
g347
sg348
VC_Castle Ground 2
p1949
sg350
F1
sg351
I00
sba(imapping
Tile
p1950
(dp1951
g346
g347
sg348
VC_Castle Ground 1
p1952
sg350
F1
sg351
I00
sba(imapping
Tile
p1953
(dp1954
g346
g347
sg348
VC_Castle Ground 2
p1955
sg350
F1
sg351
I00
sba(imapping
Tile
p1956
(dp1957
g346
g347
sg348
VC_Castle Ground 2
p1958
sg350
F1
sg351
I00
sbaa(lp1959
NaNaNaNaNaNaNa(imapping
Tile
p1960
(dp1961
g346
g347
sg348
VC_Castle Floor 2
p1962
sg350
F1
sg351
I00
sba(imapping
Tile
p1963
(dp1964
g346
g347
sg348
VC_Castle Ground 2
p1965
sg350
F1
sg351
I00
sba(imapping
Tile
p1966
(dp1967
g346
g347
sg348
VC_Castle Ground 1
p1968
sg350
F1
sg351
I00
sba(imapping
Tile
p1969
(dp1970
g346
g347
sg348
VC_Castle Ground 1
p1971
sg350
F1
sg351
I00
sba(imapping
Tile
p1972
(dp1973
g346
g347
sg348
VC_Castle Ground 2
p1974
sg350
F1
sg351
I00
sbaa(lp1975
NaNaNaNaNaNaNa(imapping
Tile
p1976
(dp1977
g346
g347
sg348
VC_Castle Floor 2
p1978
sg350
F1
sg351
I00
sba(imapping
Tile
p1979
(dp1980
g346
g347
sg348
VC_Castle Ground 2
p1981
sg350
F1
sg351
I00
sba(imapping
Tile
p1982
(dp1983
g346
g347
sg348
VC_Castle Ground 1
p1984
sg350
F1
sg351
I00
sba(imapping
Tile
p1985
(dp1986
g346
g347
sg348
VC_Castle Ground 1
p1987
sg350
F1
sg351
I00
sba(imapping
Tile
p1988
(dp1989
g346
g347
sg348
VC_Castle Ground 2
p1990
sg350
F1
sg351
I00
sbaa(lp1991
NaNaNaNaNaNaNa(imapping
Tile
p1992
(dp1993
g346
g347
sg348
VC_Castle Floor 2
p1994
sg350
F1
sg351
I00
sba(imapping
Tile
p1995
(dp1996
g346
g347
sg348
VC_Castle Ground 2
p1997
sg350
F1
sg351
I00
sba(imapping
Tile
p1998
(dp1999
g346
g347
sg348
VC_Castle Ground 2
p2000
sg350
F1
sg351
I00
sba(imapping
Tile
p2001
(dp2002
g346
g347
sg348
VC_Castle Ground 2
p2003
sg350
F1
sg351
I00
sba(imapping
Tile
p2004
(dp2005
g346
g347
sg348
VC_Castle Ground 2
p2006
sg350
F1
sg351
I00
sbaa(lp2007
NaNaNaNaNaNaNa(imapping
Tile
p2008
(dp2009
g346
g347
sg348
VC_Castle Floor 2
p2010
sg350
F1
sg351
I00
sba(imapping
Tile
p2011
(dp2012
g346
g347
sg348
VC_Castle Ground 2
p2013
sg350
F1
sg351
I00
sba(imapping
Tile
p2014
(dp2015
g346
g347
sg348
VC_Castle Ground 2
p2016
sg350
F1
sg351
I00
sba(imapping
Tile
p2017
(dp2018
g346
g347
sg348
VC_Castle Ground 2
p2019
sg350
F1
sg351
I00
sba(imapping
Tile
p2020
(dp2021
g346
g347
sg348
VC_Castle Ground 2
p2022
sg350
F1
sg351
I00
sbaa(lp2023
NaNaNaNaNaNaNa(imapping
Tile
p2024
(dp2025
g346
g347
sg348
VC_Castle Floor 2
p2026
sg350
F1
sg351
I00
sba(imapping
Tile
p2027
(dp2028
g346
g347
sg348
VC_Castle Ground 2
p2029
sg350
F1
sg351
I00
sba(imapping
Tile
p2030
(dp2031
g346
g347
sg348
VC_Castle Ground 2
p2032
sg350
F1
sg351
I00
sba(imapping
Tile
p2033
(dp2034
g346
g347
sg348
VC_Castle Ground 2
p2035
sg350
F1
sg351
I00
sba(imapping
Tile
p2036
(dp2037
g346
g347
sg348
VC_Castle Ground 2
p2038
sg350
F1
sg351
I00
sbaa(lp2039
NaNaNaNaNaNaNa(imapping
Tile
p2040
(dp2041
g346
g347
sg348
VC_Castle Floor 2
p2042
sg350
F1
sg351
I00
sba(imapping
Tile
p2043
(dp2044
g346
g347
sg348
VC_Castle Ground 2
p2045
sg350
F1
sg351
I00
sba(imapping
Tile
p2046
(dp2047
g346
g347
sg348
VC_Castle Ground 2
p2048
sg350
F1
sg351
I00
sba(imapping
Tile
p2049
(dp2050
g346
g347
sg348
VC_Castle Ground 2
p2051
sg350
F1
sg351
I00
sba(imapping
Tile
p2052
(dp2053
g346
g347
sg348
VC_Castle Ground 2
p2054
sg350
F1
sg351
I00
sbaa(lp2055
NaNaNaNaNaNaNa(imapping
Tile
p2056
(dp2057
g346
g347
sg348
VC_Castle Floor 2
p2058
sg350
F1
sg351
I00
sba(imapping
Tile
p2059
(dp2060
g346
g347
sg348
VC_Castle Ground 2
p2061
sg350
F1
sg351
I00
sba(imapping
Tile
p2062
(dp2063
g346
g347
sg348
VC_Castle Ground 1
p2064
sg350
F1
sg351
I00
sba(imapping
Tile
p2065
(dp2066
g346
g347
sg348
VC_Castle Ground 2
p2067
sg350
F1
sg351
I00
sba(imapping
Tile
p2068
(dp2069
g346
g347
sg348
VC_Castle Ground 2
p2070
sg350
F1
sg351
I00
sbaa(lp2071
NaNaNaNaNaNaNaNaNa(imapping
Tile
p2072
(dp2073
g346
g347
sg348
VC_Castle Ground 1
p2074
sg350
F1
sg351
I00
sbaNaNaa(lp2075
NaNaNaNaNaNaNaNaNaNaNaNaa(lp2076
NaNaNaNaNaNaNaNaNaNaNaNaa(lp2077
NaNaNaNaNaNaNaNaNaNaNaNaa(lp2078
NaNaNaNaNaNaNaNaNaNaNaNaa(lp2079
NaNaNaNaNaNaNaNaNaNaNaNaa(lp2080
NaNaNaNaNaNaNaNaNaNaNaNaasS'bgmusic'
p2081
Vcastle.ogg
p2082
sS'theme'
p2083
VCastle
p2084
sS'endef'
p2085
(dp2086
VBoss_Radkelu
p2087
Vboss_radkelu
p2088
sVCSpider
p2089
Vcspider
p2090
sVSnowOgre
p2091
Vsnowogre
p2092
sVWasp
p2093
Vwasp
p2094
sVPoisPod
p2095
Vpoispod
p2096
sVSpider
p2097
Vspider
p2098
sVSnowBat
p2099
Vsnowbat
p2100
sVWorm
p2101
Vworm
p2102
sVGiantJelly
p2103
Vgiantjelly
p2104
sVPod
p2105
Vpod
p2106
sVGiantWorm
p2107
Vgiantworm
p2108
ssS'tiledef'
p2109
(dp2110
VS_bLRamp
p2111
Vsnow_blramp.png
p2112
sViC_Ice
p2113
Vcaveice.png
p2114
sVF_Dirt_R2
p2115
Vdirtr_edge2.png
p2116
sVF_Dirt_R1
p2117
Vdirtr_edge1.png
p2118
sVS_Railing_1
p2119
Vsnow_railing1.png
p2120
sVS_Railing_2
p2121
Vsnow_railing2.png
p2122
sVC_Suit of Armour
p2123
Vsuit_armour.png
p2124
sVS_UCleft
p2125
Vsnow_undercorner_left.png
p2126
sVF_Right_Halframp1
p2127
VR_HR1.png
p2128
sVF_Right_Halframp2
p2129
VR_HR2.png
p2130
sVF_GrassRedge
p2131
Vgrassr_edge.png
p2132
sVS_ECleft
p2133
Vsnow_edgecorner_left.png
p2134
sViC_wr2
p2135
Vcavewr2.png
p2136
sVF_Tuft1
p2137
Vtuft1.png
p2138
sVF_Tuft2
p2139
Vtuft2.png
p2140
sVS_Tree
p2141
Vsnow_tree.png
p2142
sVF_Grass
p2143
Vgrass.png
p2144
sVS_Railing_L
p2145
Vsnow_railing_left.png
p2146
sVC_Castle HRR
p2147
Vcstl_hr_r.png
p2148
sVS_RRamp
p2149
Vsnow_rramp.png
p2150
sVC_Castle HRL
p2151
Vcstl_hr_l.png
p2152
sVS_Pillar
p2153
Vsnow_pillar.png
p2154
sVS_Railing_R
p2155
Vsnow_railing_right.png
p2156
sVS_Tree2
p2157
Vsnow_tree2.png
p2158
sVS_Ground1
p2159
Vsnow_ground1.png
p2160
sVF_Stump
p2161
Vtreestump.png
p2162
sVC_Castle Ground 2
p2163
Vcstl_ground2.png
p2164
sVC_Castle Ground 3
p2165
Vcstl_ground3.png
p2166
sVC_Castle Ground 1
p2167
Vcstl_ground1.png
p2168
sVS_Snow2
p2169
Vsnow_snow2.png
p2170
sVF_Grass_Alt_5
p2171
Vgrassc5.png
p2172
sViC_jl
p2173
Vcavejl.png
p2174
sVS_bRRamp
p2175
Vsnow_brramp.png
p2176
sViC_TopL
p2177
Vcavetl.png
p2178
sViC_Floor 1
p2179
Vcavefloor1.png
p2180
sViC_Floor 3
p2181
Vcavefloor3.png
p2182
sViC_Floor 2
p2183
Vcavefloor2.png
p2184
sViC_TopR
p2185
Vcavetr.png
p2186
sViC_jr
p2187
Vcavejr.png
p2188
sVC_Castle Floor 2
p2189
Vcstl_floor2.png
p2190
sVS_Snow
p2191
Vsnow_snow.png
p2192
sVF_Grass_Alt_2
p2193
Vgrassc2.png
p2194
sVF_ExitSign
p2195
Vexitsign.png
p2196
sVF_Grass->Dirttop
p2197
Vgrassmdirt.png
p2198
sVS_UCright
p2199
Vsnow_undercorner_right.png
p2200
sVS_Pillartop
p2201
Vsnow_pillartop.png
p2202
sViC_wr
p2203
Vcavewr.png
p2204
sVF_Dirttop->Grass
p2205
Vdirtmgrass.png
p2206
sVS_ECright
p2207
Vsnow_edgecorner_right.png
p2208
sVC_Castle HRmL
p2209
Vcstl_hr_m_l.png
p2210
sVC_Castle Wall L
p2211
Vcstl_wleft.png
p2212
sVC_Castle Wall R
p2213
Vcstl_wright.png
p2214
sVC_Castle HRmR
p2215
Vcstl_hr_m_r.png
p2216
sVF_Ice
p2217
Vtile5.png
p2218
sViC_wl
p2219
Vcavewl.png
p2220
sVC_Castle Floor 4
p2221
Vcstl_floor4.png
p2222
sVF_Grass_Alt_4
p2223
Vgrassc4.png
p2224
sVF_Grass_Alt_1
p2225
Vgrassc1.png
p2226
sVC_Castle Floor 1
p2227
Vcstl_floor1.png
p2228
sVF_Grass_Alt_3
p2229
Vgrassc3.png
p2230
sVC_Castle Floor 3
p2231
Vcstl_floor3.png
p2232
sVS_edgewleft1
p2233
Vsnow_edgewall_left1.png
p2234
sVS_edgewleft2
p2235
Vsnow_edgewall_left2.png
p2236
sVS_UCJright
p2237
Vsnow_undercorner_join_right.png
p2238
sVS_LRamp
p2239
Vsnow_lramp.png
p2240
sVC_Castle Floor Edge R
p2241
Vcstl_floor_edge_right.png
p2242
sVF_Dirt_L1
p2243
Vdirtl_edge1.png
p2244
sVF_Dirt_L2
p2245
Vdirtl_edge2.png
p2246
sVC_Castle Floor Edge L
p2247
Vcstl_floor_edge_left.png
p2248
sVF_Left_Halframp2
p2249
VL_HR2.png
p2250
sVF_Left_Halframp1
p2251
VL_HR1.png
p2252
sVF_Shrooms2
p2253
Vshrooms2.png
p2254
sVF_Shrooms3
p2255
Vshrooms3.png
p2256
sVF_Shrooms1
p2257
Vshrooms1.png
p2258
sVF_RampJoinL
p2259
Vramp_mid_dirt_l.png
p2260
sVC_Castle Wall->Floor R
p2261
Vcstl_wfright.png
p2262
sVF_RampJoinR
p2263
Vramp_mid_dirt_r.png
p2264
sVF_GrassLedge
p2265
Vgrassl_edge.png
p2266
sVS_Stones
p2267
Vsnow_stones.png
p2268
sVS_edgeright
p2269
Vsnow_edge_right.png
p2270
sVS_edgewright2
p2271
Vsnow_edgewall_right2.png
p2272
sVS_edgewright1
p2273
Vsnow_edgewall_right1.png
p2274
sVF_Dirtb
p2275
Vdirtb.png
p2276
sVF_Right_Ramp
p2277
VR_R.png
p2278
sVF_HalframpJoinL
p2279
Vhalframp_mid_dirt_l.png
p2280
sVF_Dirt_BL
p2281
Vdirtl_bedge.png
p2282
sVF_HalframpJoinR
p2283
Vhalframp_mid_dirt_r.png
p2284
sVF_Dirt_BR
p2285
Vdirtr_bedge.png
p2286
sVF_Dirtb2
p2287
Vdirtb2.png
p2288
sVF_Left_Ramp
p2289
VL_R.png
p2290
sVC_Castle Wall->Floor L
p2291
Vcstl_wfleft.png
p2292
sVS_UCJleft
p2293
Vsnow_undercorner_join_left.png
p2294
sVF_Dirt
p2295
Vdirt.png
p2296
sVF_Grass->DirtL
p2297
Vgrass_dirt_l.png
p2298
sVS_edgeleft
p2299
Vsnow_edge_left.png
p2300
sVF_Dirttop
p2301
Vdirttop.png
p2302
sVF_Dirt_Alt_4
p2303
Vdirtc4.png
p2304
sVF_Dirt_Alt_3
p2305
Vdirtc3.png
p2306
sVF_Dirt_Alt_2
p2307
Vdirtc2.png
p2308
sVF_Dirt_Alt_1
p2309
Vdirtc1.png
p2310
sVF_Grass->DirtR
p2311
Vgrass_dirt_r.png
p2312
sViC_wl2
p2313
Vcavewl2.png
p2314
ssb.