(imapping
Map
p1
(dp2
S'enemy'
p3
(lp4
(lp5
NaNaNaNaNaNaNaNaNaNaNaNaa(lp6
NaNaNaNaNaNaNaNaNaNaNaNaa(lp7
NaNaNaNaNaNaNaNaNaNaNaNaa(lp8
NaNaNaNaNaNaNaNaNaNaNaNaa(lp9
NaNaNaNaNaNaNaNaNaNaNaNaa(lp10
NaNaNaNaNaNaNaNaNaNaNaNaa(lp11
NaNaNaNaNaNaNaNaNaNaNaNaa(lp12
NaVPod
p13
aNaNaNaNaNaNaNaNaNaNaa(lp14
NaNaNaNaNaNaNaNaNaNaNaNaa(lp15
NaNaNaNaNaNaNaNaNaNaNaNaa(lp16
NaNaNaNaNaNaNaNaNaNaNaNaa(lp17
NaNaNaNaNaNaNaNaNaNaNaNaa(lp18
NaNaNaNaNaNaNaNaNaNaNaNaa(lp19
NaNaNaNaNaNaNaNaNaNaNaNaa(lp20
NaNaNaNaNaNaNaNaNaNaNaNaa(lp21
NaNaNaNaNaNaNaNaNaNaNaNaa(lp22
NaNaNaNaNaNaNaNaNaNaNaNaa(lp23
NaNaNaNaNaNaNaNaNaNaNaNaa(lp24
NaNaNaNaNaNaNaNaNaNaNaNaa(lp25
NaNaNaNaNaNaNaNaNaNaNaNaa(lp26
NaNaNaNaNaNaNaNaNaVWasp
p27
aNaNaa(lp28
NaNaNaNaNaNaNaNaNaVWasp
p29
aNaNaa(lp30
NaNaNaNaNaNaNaNaNaNaNaNaa(lp31
NaNaNaNaNaNaNaNaNaNaNaNaa(lp32
NaNaNaNaNaNaNaNaNaNaNaNaa(lp33
NaNaNaNaNaNaNaNaNaNaNaNaa(lp34
NaNaNaNaNaNaNaNaNaNaNaNaa(lp35
NaNaNaNaNaNaNaVWasp
p36
aNaNaNaNaa(lp37
NaNaNaNaNaNaNaNaNaNaNaNaa(lp38
NaNaNaNaNaNaNaNaNaNaNaNaa(lp39
NaNaNaNaNaNaNaNaNaNaNaNaa(lp40
NaNaNaNaNaNaNaNaNaNaNaNaa(lp41
NaNaNaNaNaNaNaNaNaNaNaNaa(lp42
NaNaNaNaNaNaNaNaNaNaNaNaa(lp43
NaNaNaNaNaVWorm
p44
aNaNaNaNaNaNaa(lp45
NaNaNaNaNaNaNaNaNaNaNaNaa(lp46
NaNaNaNaNaNaNaNaNaNaNaNaa(lp47
NaNaNaNaNaNaNaNaNaNaNaNaa(lp48
NaNaNaNaNaNaNaNaNaNaNaNaa(lp49
NaNaNaNaNaNaVSpider
p50
aNaNaNaNaNaa(lp51
NaNaNaNaNaNaNaNaNaNaNaNaa(lp52
NaNaNaNaNaNaNaNaNaNaNaNaa(lp53
NaNaNaNaNaNaNaNaNaNaNaNaa(lp54
NaNaNaNaNaNaNaNaNaNaNaNaa(lp55
NaNaNaNaNaNaNaNaNaNaNaNaa(lp56
NaNaNaNaNaNaNaNaVSpider
p57
aNaNaNaa(lp58
NaNaNaNaNaNaNaNaVSpider
p59
aNaNaNaa(lp60
NaNaNaNaNaNaNaNaNaNaNaNaa(lp61
NaNaNaNaNaNaNaNaNaNaNaNaa(lp62
NaNaNaNaNaNaNaNaNaNaNaNaa(lp63
NaNaNaNaNaNaNaNaVPod
p64
aNaNaNaa(lp65
NaNaNaNaNaNaNaNaNaNaNaNaa(lp66
NaNaNaNaNaNaNaNaNaNaNaNaa(lp67
NaNaNaNaNaNaNaNaNaNaNaNaa(lp68
NaNaNaNaNaNaVSpider
p69
aNaNaNaNaNaa(lp70
NaNaNaNaNaNaVSpider
p71
aNaNaNaNaNaa(lp72
NaNaNaNaNaNaNaNaNaNaNaNaa(lp73
NaNaNaNaNaNaNaNaNaNaNaNaa(lp74
NaNaNaNaNaNaNaNaVWorm
p75
aNaNaNaa(lp76
NaNaNaNaNaNaNaNaNaNaNaNaa(lp77
NaNaNaNaNaNaNaNaNaNaNaNaa(lp78
NaNaNaNaNaNaNaNaNaNaNaNaa(lp79
NaNaNaNaNaNaVSpider
p80
aNaNaNaNaNaa(lp81
NaNaNaNaNaNaNaNaNaNaNaNaa(lp82
NaNaNaNaNaNaNaNaNaNaNaNaa(lp83
NaNaNaNaNaNaNaNaNaNaNaNaa(lp84
NaNaNaNaNaNaNaNaNaNaNaNaa(lp85
NaNaNaNaNaVPod
p86
aNaNaNaNaNaNaa(lp87
NaNaNaNaNaNaNaNaNaNaNaNaa(lp88
NaNaNaNaNaNaNaNaNaNaNaNaa(lp89
NaNaNaNaNaNaNaNaNaNaNaNaa(lp90
NaNaNaNaVWasp
p91
aNaNaNaNaNaNaNaa(lp92
NaNaNaNaNaNaNaNaNaNaNaNaa(lp93
NaNaNaNaNaNaNaNaNaNaNaNaa(lp94
NaNaNaNaNaVWorm
p95
aNaNaNaNaNaNaa(lp96
NaNaNaNaNaNaNaNaNaNaNaNaa(lp97
NaNaNaNaNaNaNaNaNaNaNaNaa(lp98
NaNaNaNaNaNaNaNaNaNaNaNaa(lp99
NaNaNaNaNaNaNaNaNaNaNaNaa(lp100
NaNaNaNaNaNaNaNaNaNaNaNaa(lp101
NaNaNaNaNaNaNaNaNaNaNaNaa(lp102
NaNaVWorm
p103
aNaNaNaNaNaNaNaNaNaa(lp104
NaNaNaNaNaNaNaNaNaNaNaNaa(lp105
NaNaNaNaNaNaNaNaNaNaNaNaa(lp106
NaNaNaNaNaNaNaNaNaNaNaNaa(lp107
NaNaNaNaNaNaNaNaNaNaNaNaa(lp108
NaNaNaNaNaNaNaNaNaNaNaNaa(lp109
NaNaNaNaNaNaNaNaNaNaNaNaa(lp110
NaNaNaNaNaNaNaNaNaNaNaNaa(lp111
NaNaNaNaNaNaNaNaNaNaNaNaa(lp112
NaNaNaNaNaNaNaNaNaNaNaNaa(lp113
NaNaNaNaNaNaNaNaNaNaNaNaa(lp114
NaNaNaNaNaNaNaNaNaNaNaNaa(lp115
NaNaNaNaNaNaNaNaNaNaNaNaa(lp116
NaNaNaNaNaNaNaNaNaNaNaNaa(lp117
NaNaNaNaNaNaNaNaNaNaNaNaa(lp118
NaNaNaNaNaNaNaNaNaVWasp
p119
aNaNaa(lp120
NaNaNaNaNaNaNaNaNaNaNaNaa(lp121
NaNaNaNaNaNaNaNaNaNaNaNaa(lp122
NaNaNaNaNaNaNaNaNaNaNaNaa(lp123
NaNaNaNaNaNaNaNaNaNaNaNaa(lp124
NaNaNaNaNaNaNaNaNaNaNaNaa(lp125
NaNaNaNaNaNaNaVWorm
p126
aNaNaNaNaa(lp127
NaNaNaNaNaNaNaNaNaNaNaNaa(lp128
NaNaNaNaNaNaNaNaNaNaNaNaa(lp129
NaNaNaNaNaNaVPod
p130
aNaNaNaNaNaa(lp131
NaNaNaNaNaNaNaNaNaNaNaNaa(lp132
NaNaNaNaNaNaNaNaNaNaNaNaa(lp133
NaNaNaNaNaNaNaNaNaNaNaNaa(lp134
NaNaNaNaNaNaNaNaNaNaNaNaa(lp135
NaNaNaNaNaNaNaNaNaNaNaNaa(lp136
NaNaNaNaNaNaNaNaNaNaNaNaa(lp137
NaNaNaNaNaNaNaNaNaNaNaNaa(lp138
NaNaNaNaNaNaNaNaNaNaNaNaa(lp139
NaNaNaNaNaNaNaNaNaNaNaNaa(lp140
NaNaNaNaNaNaNaNaNaNaNaNaa(lp141
NaNaNaNaNaNaNaNaNaNaNaNaa(lp142
NaNaNaNaNaNaNaNaNaNaNaNaa(lp143
NaNaNaNaNaNaNaNaNaNaNaNaa(lp144
NaNaNaNaNaNaNaNaNaNaNaNaa(lp145
NaNaNaNaNaNaNaNaNaNaNaNaa(lp146
NaNaNaNaNaNaNaNaNaNaNaNaa(lp147
NaNaNaNaNaNaNaNaNaNaNaNaa(lp148
NaNaNaNaNaNaNaNaNaNaNaNaa(lp149
NaNaNaNaNaNaNaNaNaNaNaNaa(lp150
NaNaNaNaNaNaNaNaNaNaNaNaa(lp151
NaNaNaNaNaNaNaNaNaNaNaNaa(lp152
NaNaNaNaNaNaNaNaNaNaNaNaasS'objdef'
p153
(dp154
VButterfly
p155
VButterfly.png
p156
sVLevel_End
p157
VEnd.png
p158
sVShield
p159
VShield.png
p160
sVPlayer_Start
p161
VStart.png
p162
sVLever_Snow
p163
VLever1.png
p164
sVTorchref
p165
VTorchref.png
p166
sVWalltorch
p167
VWalltorch.png
p168
sVFirepit
p169
VPit.png
p170
sVSign
p171
VSign.png
p172
sVButterflyC
p173
VButterflyC.png
p174
sVButterflyB
p175
VButterflyB.png
p176
sVSword
p177
VSword.png
p178
sVTreasureBoxC
p179
VTreasureC_Closed.png
p180
sVTreasureBoxB
p181
VTreasureB_Closed.png
p182
sVTreasureBox
p183
VTreasure_Closed.png
p184
sVFallingRock
p185
VRock.png
p186
sVObelisk_Snow
p187
VObelisk_Snow.png
p188
ssS'obj'
p189
(lp190
(lp191
NaNaNaNaNaNaNaNaNaVTreasureBox
p192
aNaNaa(lp193
NaNaNaNaNaVButterflyB
p194
aNaNaNaNaNaNaa(lp195
NaNaNaNaNaNaNaNaNaNaNaNaa(lp196
NaNaNaNaNaNaNaNaVButterfly
p197
aNaNaNaa(lp198
NaNaNaNaNaNaNaNaNaNaNaNaa(lp199
NaNaNaNaNaNaNaNaNaNaNaNaa(lp200
NaNaNaNaNaNaNaNaNaNaNaNaa(lp201
NaNaNaNaNaNaNaNaNaNaNaNaa(lp202
NaNaNaNaNaNaNaNaNaNaNaNaa(lp203
NaNaNaNaNaNaNaNaNaNaNaNaa(lp204
NaNaNaNaNaNaNaNaNaNaNaNaa(lp205
NaNaVButterflyC
p206
aNaNaNaNaNaNaNaNaNaa(lp207
NaNaNaNaNaNaNaNaNaNaNaNaa(lp208
NaNaNaNaNaNaNaNaNaNaNaNaa(lp209
NaNaNaNaNaNaNaVButterflyB
p210
aNaVPlayer_Start
p211
aNaNaa(lp212
NaNaNaNaNaNaNaNaNaNaNaNaa(lp213
NaNaNaNaNaNaNaNaNaNaNaNaa(lp214
NaNaNaNaNaNaNaNaNaNaNaNaa(lp215
NaNaNaNaNaNaNaVButterflyC
p216
aNaNaNaNaa(lp217
NaNaNaNaNaNaNaNaNaNaNaNaa(lp218
NaNaNaNaNaNaNaNaNaNaNaNaa(lp219
NaNaNaNaNaNaNaNaNaNaNaNaa(lp220
NaNaNaNaNaNaNaNaNaNaNaNaa(lp221
NaNaNaNaNaNaNaNaNaVButterfly
p222
aNaNaa(lp223
NaNaNaNaNaNaNaNaNaNaNaNaa(lp224
NaNaNaNaNaNaNaNaNaVTreasureBox
p225
aNaNaa(lp226
NaNaNaNaNaNaNaNaNaNaNaNaa(lp227
NaNaNaNaNaNaNaNaNaNaNaNaa(lp228
NaNaNaNaNaNaNaNaNaNaNaNaa(lp229
NaNaNaNaNaVButterflyB
p230
aNaNaNaNaNaNaa(lp231
NaNaNaNaNaNaNaNaNaNaNaNaa(lp232
NaNaNaNaNaNaNaNaNaNaNaNaa(lp233
NaNaNaNaNaVButterflyC
p234
aNaNaNaNaNaNaa(lp235
NaNaNaNaNaNaNaNaNaNaNaNaa(lp236
NaNaNaNaNaNaNaNaNaNaNaNaa(lp237
NaNaNaNaNaNaNaNaNaNaNaNaa(lp238
NaNaNaNaNaNaNaNaNaNaNaNaa(lp239
NaNaNaNaNaNaNaNaNaNaNaNaa(lp240
NaNaNaNaVButterfly
p241
aNaNaNaNaNaNaNaa(lp242
NaNaNaNaNaNaNaNaNaNaNaNaa(lp243
NaNaNaNaNaNaNaNaVTreasureBox
p244
aNaNaNaa(lp245
NaNaNaNaNaNaNaNaNaNaNaNaa(lp246
NaNaNaNaVButterflyB
p247
aNaNaNaNaNaNaNaa(lp248
NaNaNaNaNaNaNaNaNaNaNaNaa(lp249
NaNaNaNaNaNaNaNaNaNaNaNaa(lp250
NaNaNaNaNaNaNaNaVButterflyB
p251
aNaNaNaa(lp252
NaNaNaNaNaNaNaNaNaNaNaNaa(lp253
NaNaNaNaNaVButterflyC
p254
aNaNaNaNaNaNaa(lp255
NaNaNaNaNaNaNaNaNaNaNaNaa(lp256
NaNaNaNaNaNaNaNaNaNaNaNaa(lp257
NaNaNaNaNaNaNaNaNaNaNaNaa(lp258
NaNaNaNaNaNaNaNaNaNaNaNaa(lp259
NaNaNaNaNaNaNaNaNaNaNaNaa(lp260
NaNaNaNaNaNaNaNaNaNaNaNaa(lp261
NaNaNaNaNaNaNaNaNaNaNaNaa(lp262
NaNaNaNaNaNaNaVTreasureBox
p263
aNaNaNaNaa(lp264
NaNaNaNaNaNaNaNaNaNaNaNaa(lp265
NaNaNaNaNaNaNaNaNaNaNaNaa(lp266
NaNaNaNaNaNaNaNaNaNaNaNaa(lp267
NaNaVButterflyB
p268
aNaNaVButterfly
p269
aNaNaNaNaNaNaa(lp270
NaNaNaNaNaNaNaNaNaNaNaNaa(lp271
NaNaNaNaNaNaNaNaNaNaNaNaa(lp272
NaNaNaVButterfly
p273
aNaNaNaNaNaNaNaNaa(lp274
NaNaNaVButterflyC
p275
aNaNaNaNaNaNaNaNaa(lp276
NaNaNaNaNaNaNaNaNaNaNaNaa(lp277
NaNaNaNaNaNaNaNaNaNaNaNaa(lp278
NaNaNaNaNaNaNaNaNaNaNaNaa(lp279
NaNaNaNaNaNaNaNaNaNaNaNaa(lp280
NaNaNaNaNaNaNaNaNaNaNaNaa(lp281
NaNaNaNaNaNaNaNaNaNaNaNaa(lp282
NaNaVButterflyB
p283
aNaNaNaNaNaNaNaNaNaa(lp284
NaNaNaNaNaNaNaNaNaNaNaNaa(lp285
NaNaNaNaNaNaNaNaNaNaNaNaa(lp286
NaNaNaNaNaNaVTreasureBox
p287
aNaNaNaNaNaa(lp288
NaNaNaNaNaNaNaNaNaNaNaNaa(lp289
NaNaNaNaNaNaNaNaNaNaNaNaa(lp290
NaNaNaNaNaNaNaNaNaNaNaNaa(lp291
NaNaNaNaNaNaNaNaNaNaNaNaa(lp292
NaNaVButterfly
p293
aNaNaNaNaNaNaNaNaNaa(lp294
NaNaNaNaNaNaNaNaNaNaNaNaa(lp295
NaNaNaNaNaNaNaNaNaNaNaNaa(lp296
NaVButterflyC
p297
aNaNaNaNaNaNaNaNaNaNaa(lp298
NaNaNaNaNaNaNaNaNaNaNaNaa(lp299
NaNaNaNaNaNaNaNaNaNaNaNaa(lp300
NaNaNaNaVButterflyB
p301
aNaNaNaNaNaNaNaa(lp302
NaNaNaNaNaNaNaNaNaNaNaNaa(lp303
NaNaVButterflyC
p304
aNaNaNaNaNaNaNaNaNaa(lp305
NaNaNaNaNaNaNaNaNaNaNaNaa(lp306
NaNaNaNaNaNaNaNaNaNaNaNaa(lp307
NaNaNaNaNaNaNaNaNaNaNaNaa(lp308
NaNaNaNaNaNaNaNaNaNaNaNaa(lp309
NaNaNaNaNaNaNaNaNaNaNaNaa(lp310
NaNaNaNaNaNaNaNaNaNaNaNaa(lp311
NaNaNaNaNaNaNaNaNaNaNaNaa(lp312
NaNaNaNaNaNaNaNaNaNaNaNaa(lp313
NaNaNaNaNaNaNaNaNaNaNaNaa(lp314
NaNaNaNaNaNaNaNaNaNaNaNaa(lp315
NaNaNaNaNaNaNaNaNaNaNaNaa(lp316
NaNaNaNaNaNaNaNaNaNaNaNaa(lp317
NaNaNaNaNaNaNaNaNaNaNaNaa(lp318
NaNaNaNaNaNaNaNaNaNaNaNaa(lp319
NaNaNaNaNaNaNaNaNaNaNaNaa(lp320
NaNaNaNaNaNaNaNaNaNaNaNaa(lp321
NaNaNaNaNaNaNaNaNaNaNaNaa(lp322
NaNaNaNaNaNaNaNaNaNaNaNaa(lp323
NaNaNaNaNaNaNaNaNaNaNaNaa(lp324
NaNaNaNaNaNaNaNaNaNaNaNaa(lp325
NaNaNaNaNaNaVLevel_End
p326
aNaNaNaNaNaa(lp327
NaNaNaNaNaNaNaNaNaNaNaNaa(lp328
NaNaNaNaNaNaNaNaNaNaNaNaa(lp329
NaNaNaNaNaNaNaNaNaNaNaNaa(lp330
NaNaNaNaNaNaNaNaNaNaNaNaa(lp331
NaNaNaNaNaNaNaNaNaNaNaNaa(lp332
NaNaNaNaNaNaNaNaNaNaNaNaa(lp333
NaNaNaNaNaNaNaNaNaNaNaNaa(lp334
NaNaNaNaNaNaNaNaNaNaNaNaa(lp335
NaNaNaNaNaNaNaNaNaNaNaNaa(lp336
NaNaNaNaNaNaNaNaNaNaNaNaa(lp337
NaNaNaNaNaNaNaNaNaNaNaNaa(lp338
NaNaNaNaNaNaNaNaNaNaNaNaa(lp339
NaNaNaNaNaNaNaNaNaNaNaNaa(lp340
NaNaNaNaNaNaNaNaNaNaNaNaa(lp341
NaNaNaNaNaNaNaNaNaNaNaNaa(lp342
NaNaNaNaNaNaNaNaNaNaNaNaa(lp343
NaNaNaNaNaNaNaNaNaNaNaNaa(lp344
NaNaNaNaNaNaNaNaNaNaNaNaa(lp345
NaNaNaNaNaNaNaNaNaNaNaNaa(lp346
NaNaNaNaNaNaNaNaNaNaNaNaasS'name'
p347
Vent4
p348
sS'map'
p349
(lp350
(lp351
NaNaNaNaNaNaNaNaNaNa(imapping
Tile
p352
(dp353
S'collidetype'
p354
S'BOX'
p355
sS'type'
p356
VF_Grass_Alt_1
p357
sS'friction'
p358
F1
sS'overhead'
p359
I00
sba(imapping
Tile
p360
(dp361
g354
g355
sg356
VF_Dirt
p362
sg358
F1
sg359
I00
sbaa(lp363
NaNaNaNaNaNaNaNaNaNa(imapping
Tile
p364
(dp365
g354
g355
sg356
VF_GrassRedge
p366
sg358
F1
sg359
I00
sba(imapping
Tile
p367
(dp368
g354
g355
sg356
VF_Dirt_R1
p369
sg358
F1
sg359
I00
sbaa(lp370
NaNaNaNaNaNaNaNaNaNaNaNaa(lp371
NaNaNaNaNaNaNaNaNaNaNaNaa(lp372
NaNaNaNaNaNaNaNaNaNaNaNaa(lp373
NaNaNaNaNaNaNaNaNaNa(imapping
Tile
p374
(dp375
g354
g355
sg356
VF_GrassLedge
p376
sg358
F1
sg359
I00
sba(imapping
Tile
p377
(dp378
g354
g355
sg356
VF_Dirt_L2
p379
sg358
F1
sg359
I00
sbaa(lp380
NaNa(imapping
Tile
p381
(dp382
g354
g355
sg356
VF_GrassLedge
p383
sg358
F1
sg359
I00
sba(imapping
Tile
p384
(dp385
g354
g355
sg356
VF_Dirt_L2
p386
sg358
F1
sg359
I00
sba(imapping
Tile
p387
(dp388
g354
g355
sg356
VF_Dirt_L2
p389
sg358
F1
sg359
I00
sba(imapping
Tile
p390
(dp391
g354
g355
sg356
VF_Dirt_L2
p392
sg358
F1
sg359
I00
sba(imapping
Tile
p393
(dp394
g354
g355
sg356
VF_Dirt_L2
p395
sg358
F1
sg359
I00
sba(imapping
Tile
p396
(dp397
g354
g355
sg356
VF_Dirt_L2
p398
sg358
F1
sg359
I00
sba(imapping
Tile
p399
(dp400
g354
g355
sg356
VF_Dirt_L2
p401
sg358
F1
sg359
I00
sba(imapping
Tile
p402
(dp403
g354
g355
sg356
VF_Dirt_L2
p404
sg358
F1
sg359
I00
sba(imapping
Tile
p405
(dp406
g354
g355
sg356
VF_Grass->DirtL
p407
sg358
F1
sg359
I00
sba(imapping
Tile
p408
(dp409
g354
g355
sg356
VF_Dirt
p410
sg358
F1
sg359
I00
sbaa(lp411
NaNa(imapping
Tile
p412
(dp413
g354
g355
sg356
VF_Grass
p414
sg358
F1
sg359
I00
sba(imapping
Tile
p415
(dp416
g354
g355
sg356
VF_Dirt
p417
sg358
F1
sg359
I00
sba(imapping
Tile
p418
(dp419
g354
g355
sg356
VF_Dirt
p420
sg358
F1
sg359
I00
sba(imapping
Tile
p421
(dp422
g354
g355
sg356
VF_Dirt
p423
sg358
F1
sg359
I00
sba(imapping
Tile
p424
(dp425
g354
g355
sg356
VF_Dirt
p426
sg358
F1
sg359
I00
sba(imapping
Tile
p427
(dp428
g354
g355
sg356
VF_Dirt
p429
sg358
F1
sg359
I00
sba(imapping
Tile
p430
(dp431
g354
g355
sg356
VF_Dirt
p432
sg358
F1
sg359
I00
sba(imapping
Tile
p433
(dp434
g354
g355
sg356
VF_Dirt
p435
sg358
F1
sg359
I00
sba(imapping
Tile
p436
(dp437
g354
g355
sg356
VF_Dirt
p438
sg358
F1
sg359
I00
sba(imapping
Tile
p439
(dp440
g354
g355
sg356
VF_Dirt
p441
sg358
F1
sg359
I00
sbaa(lp442
NaNa(imapping
Tile
p443
(dp444
g354
g355
sg356
VF_GrassRedge
p445
sg358
F1
sg359
I00
sba(imapping
Tile
p446
(dp447
g354
g355
sg356
VF_Dirt_R1
p448
sg358
F1
sg359
I00
sba(imapping
Tile
p449
(dp450
g354
g355
sg356
VF_Grass->DirtR
p451
sg358
F1
sg359
I00
sba(imapping
Tile
p452
(dp453
g354
g355
sg356
VF_Dirt
p454
sg358
F1
sg359
I00
sba(imapping
Tile
p455
(dp456
g354
g355
sg356
VF_Dirt
p457
sg358
F1
sg359
I00
sba(imapping
Tile
p458
(dp459
g354
g355
sg356
VF_Dirt
p460
sg358
F1
sg359
I00
sba(imapping
Tile
p461
(dp462
g354
g355
sg356
VF_Dirt
p463
sg358
F1
sg359
I00
sba(imapping
Tile
p464
(dp465
g354
g355
sg356
VF_Dirt
p466
sg358
F1
sg359
I00
sba(imapping
Tile
p467
(dp468
g354
g355
sg356
VF_Dirt
p469
sg358
F1
sg359
I00
sba(imapping
Tile
p470
(dp471
g354
g355
sg356
VF_Dirt
p472
sg358
F1
sg359
I00
sbaa(lp473
NaNaNaNa(imapping
Tile
p474
(dp475
g354
g355
sg356
VF_Grass
p476
sg358
F1
sg359
I00
sba(imapping
Tile
p477
(dp478
g354
g355
sg356
VF_Dirt
p479
sg358
F1
sg359
I00
sba(imapping
Tile
p480
(dp481
g354
g355
sg356
VF_Dirt
p482
sg358
F1
sg359
I00
sba(imapping
Tile
p483
(dp484
g354
g355
sg356
VF_Dirt
p485
sg358
F1
sg359
I00
sba(imapping
Tile
p486
(dp487
g354
g355
sg356
VF_Dirt
p488
sg358
F1
sg359
I00
sba(imapping
Tile
p489
(dp490
g354
g355
sg356
VF_Dirt
p491
sg358
F1
sg359
I00
sba(imapping
Tile
p492
(dp493
g354
g355
sg356
VF_Dirt
p494
sg358
F1
sg359
I00
sba(imapping
Tile
p495
(dp496
g354
g355
sg356
VF_Dirt
p497
sg358
F1
sg359
I00
sbaa(lp498
NaNaNaNa(imapping
Tile
p499
(dp500
g354
g355
sg356
VF_GrassRedge
p501
sg358
F1
sg359
I00
sba(imapping
Tile
p502
(dp503
g354
g355
sg356
VF_Dirt_R1
p504
sg358
F1
sg359
I00
sba(imapping
Tile
p505
(dp506
g354
g355
sg356
VF_Dirt_R1
p507
sg358
F1
sg359
I00
sba(imapping
Tile
p508
(dp509
g354
g355
sg356
VF_Grass->DirtR
p510
sg358
F1
sg359
I00
sba(imapping
Tile
p511
(dp512
g354
g355
sg356
VF_Dirt
p513
sg358
F1
sg359
I00
sba(imapping
Tile
p514
(dp515
g354
g355
sg356
VF_Dirt
p516
sg358
F1
sg359
I00
sba(imapping
Tile
p517
(dp518
g354
g355
sg356
VF_Dirt
p519
sg358
F1
sg359
I00
sba(imapping
Tile
p520
(dp521
g354
g355
sg356
VF_Dirt
p522
sg358
F1
sg359
I00
sbaa(lp523
NaNaNaNaNaNaNa(imapping
Tile
p524
(dp525
g354
g355
sg356
VF_Grass
p526
sg358
F1
sg359
I00
sba(imapping
Tile
p527
(dp528
g354
g355
sg356
VF_Dirt
p529
sg358
F1
sg359
I00
sba(imapping
Tile
p530
(dp531
g354
g355
sg356
VF_Dirt
p532
sg358
F1
sg359
I00
sba(imapping
Tile
p533
(dp534
g354
g355
sg356
VF_Dirt
p535
sg358
F1
sg359
I00
sba(imapping
Tile
p536
(dp537
g354
g355
sg356
VF_Dirt
p538
sg358
F1
sg359
I00
sbaa(lp539
NaNaNaNaNaNaNa(imapping
Tile
p540
(dp541
g354
g355
sg356
VF_GrassRedge
p542
sg358
F1
sg359
I00
sba(imapping
Tile
p543
(dp544
g354
g355
sg356
VF_Dirt_R1
p545
sg358
F1
sg359
I00
sba(imapping
Tile
p546
(dp547
g354
g355
sg356
VF_Dirt_R1
p548
sg358
F1
sg359
I00
sba(imapping
Tile
p549
(dp550
g354
g355
sg356
VF_Grass->DirtR
p551
sg358
F1
sg359
I00
sba(imapping
Tile
p552
(dp553
g354
g355
sg356
VF_Dirt
p554
sg358
F1
sg359
I00
sbaa(lp555
NaNaNaNaNaNaNaNaNaNa(imapping
Tile
p556
(dp557
g354
g355
sg356
VF_Grass
p558
sg358
F1
sg359
I00
sba(imapping
Tile
p559
(dp560
g354
g355
sg356
VF_Dirt
p561
sg358
F1
sg359
I00
sbaa(lp562
NaNaNaNaNaNaNaNaNaNa(imapping
Tile
p563
(dp564
g354
g355
sg356
VF_Grass
p565
sg358
F1
sg359
I00
sba(imapping
Tile
p566
(dp567
g354
g355
sg356
VF_Dirt
p568
sg358
F1
sg359
I00
sbaa(lp569
NaNaNaNaNaNaNaNaNaNa(imapping
Tile
p570
(dp571
g354
g355
sg356
VF_GrassRedge
p572
sg358
F1
sg359
I00
sba(imapping
Tile
p573
(dp574
g354
g355
sg356
VF_Dirt_R1
p575
sg358
F1
sg359
I00
sbaa(lp576
NaNaNaNaNaNaNaNaNaNaNaNaa(lp577
NaNaNaNaNaNaNaNaNaNaNaNaa(lp578
NaNaNaNaNaNaNaNaNaNaNaNaa(lp579
NaNaNaNaNaNaNaNaNaNaNa(imapping
Tile
p580
(dp581
g354
g355
sg356
VF_GrassLedge
p582
sg358
F1
sg359
I00
sbaa(lp583
NaNaNaNaNaNaNaNaNaNaNa(imapping
Tile
p584
(dp585
g354
g355
sg356
VF_Grass_Alt_1
p586
sg358
F1
sg359
I00
sbaa(lp587
NaNaNaNaNaNaNaNaNaNaNa(imapping
Tile
p588
(dp589
g354
g355
sg356
VF_Grass
p590
sg358
F1
sg359
I00
sbaa(lp591
NaNaNaNaNaNaNaNaNaNaNa(imapping
Tile
p592
(dp593
g354
g355
sg356
VF_GrassRedge
p594
sg358
F1
sg359
I00
sbaa(lp595
NaNaNaNaNaNaNaNaNaNaNaNaa(lp596
NaNaNaNaNaNaNaNaNaNa(imapping
Tile
p597
(dp598
g354
g355
sg356
VF_GrassLedge
p599
sg358
F1
sg359
I00
sba(imapping
Tile
p600
(dp601
g354
g355
sg356
VF_Dirt_L2
p602
sg358
F1
sg359
I00
sbaa(lp603
NaNaNaNaNaNaNaNaNaNa(imapping
Tile
p604
(dp605
g354
g355
sg356
VF_Grass
p606
sg358
F1
sg359
I00
sba(imapping
Tile
p607
(dp608
g354
g355
sg356
VF_Dirt
p609
sg358
F1
sg359
I00
sbaa(lp610
NaNaNaNaNaNaNaNaNa(imapping
Tile
p611
(dp612
g354
S'NONE_R'
p613
sg356
VF_Shrooms3
p614
sg358
F1
sg359
I00
sba(imapping
Tile
p615
(dp616
g354
g355
sg356
VF_Grass
p617
sg358
F1
sg359
I00
sba(imapping
Tile
p618
(dp619
g354
g355
sg356
VF_Dirt
p620
sg358
F1
sg359
I00
sbaa(lp621
NaNaNaNaNaNaNaNa(imapping
Tile
p622
(dp623
g354
g613
sg356
VF_Shrooms1
p624
sg358
F1
sg359
I00
sba(imapping
Tile
p625
(dp626
g354
g355
sg356
VF_GrassLedge
p627
sg358
F1
sg359
I00
sba(imapping
Tile
p628
(dp629
g354
g355
sg356
VF_Grass->DirtL
p630
sg358
F1
sg359
I00
sba(imapping
Tile
p631
(dp632
g354
g355
sg356
VF_Dirt
p633
sg358
F1
sg359
I00
sbaa(lp634
NaNaNaNaNaNaNaNa(imapping
Tile
p635
(dp636
g354
S'NONE'
p637
sg356
VF_Shrooms2
p638
sg358
F1
sg359
I00
sba(imapping
Tile
p639
(dp640
g354
g355
sg356
VF_Grass
p641
sg358
F1
sg359
I00
sba(imapping
Tile
p642
(dp643
g354
g355
sg356
VF_Dirt
p644
sg358
F1
sg359
I00
sba(imapping
Tile
p645
(dp646
g354
g355
sg356
VF_Dirt
p647
sg358
F1
sg359
I00
sbaa(lp648
NaNaNaNaNaNaNaNa(imapping
Tile
p649
(dp650
g354
S'RIGHT_HINCLINATION1'
p651
sg356
VF_Right_Halframp1
p652
sg358
F1
sg359
I00
sba(imapping
Tile
p653
(dp654
g354
g355
sg356
VF_HalframpJoinR
p655
sg358
F1
sg359
I00
sba(imapping
Tile
p656
(dp657
g354
g355
sg356
VF_Dirt
p658
sg358
F1
sg359
I00
sba(imapping
Tile
p659
(dp660
g354
g355
sg356
VF_Dirt
p661
sg358
F1
sg359
I00
sbaa(lp662
NaNaNaNaNaNaNaNa(imapping
Tile
p663
(dp664
g354
S'RIGHT_HINCLINATION2'
p665
sg356
VF_Right_Halframp2
p666
sg358
F1
sg359
I00
sba(imapping
Tile
p667
(dp668
g354
g355
sg356
VF_Dirt
p669
sg358
F1
sg359
I00
sba(imapping
Tile
p670
(dp671
g354
g355
sg356
VF_Dirt
p672
sg358
F1
sg359
I00
sba(imapping
Tile
p673
(dp674
g354
g355
sg356
VF_Dirt
p675
sg358
F1
sg359
I00
sbaa(lp676
NaNaNaNaNaNaNa(imapping
Tile
p677
(dp678
g354
g651
sg356
VF_Right_Halframp1
p679
sg358
F1
sg359
I00
sba(imapping
Tile
p680
(dp681
g354
g355
sg356
VF_HalframpJoinR
p682
sg358
F1
sg359
I00
sba(imapping
Tile
p683
(dp684
g354
g355
sg356
VF_Dirt
p685
sg358
F1
sg359
I00
sba(imapping
Tile
p686
(dp687
g354
g355
sg356
VF_Dirt
p688
sg358
F1
sg359
I00
sba(imapping
Tile
p689
(dp690
g354
g355
sg356
VF_Dirt
p691
sg358
F1
sg359
I00
sbaa(lp692
NaNaNaNaNaNaNa(imapping
Tile
p693
(dp694
g354
g665
sg356
VF_Right_Halframp2
p695
sg358
F1
sg359
I00
sba(imapping
Tile
p696
(dp697
g354
g355
sg356
VF_Dirt
p698
sg358
F1
sg359
I00
sba(imapping
Tile
p699
(dp700
g354
g355
sg356
VF_Dirt
p701
sg358
F1
sg359
I00
sba(imapping
Tile
p702
(dp703
g354
g355
sg356
VF_Dirt
p704
sg358
F1
sg359
I00
sba(imapping
Tile
p705
(dp706
g354
g355
sg356
VF_Dirt
p707
sg358
F1
sg359
I00
sbaa(lp708
NaNaNaNaNaNa(imapping
Tile
p709
(dp710
g354
S'RIGHT_INCLINATION'
p711
sg356
VF_Right_Ramp
p712
sg358
F1
sg359
I00
sba(imapping
Tile
p713
(dp714
g354
g355
sg356
VF_RampJoinR
p715
sg358
F1
sg359
I00
sba(imapping
Tile
p716
(dp717
g354
g355
sg356
VF_Dirt
p718
sg358
F1
sg359
I00
sba(imapping
Tile
p719
(dp720
g354
g355
sg356
VF_Dirt
p721
sg358
F1
sg359
I00
sba(imapping
Tile
p722
(dp723
g354
g355
sg356
VF_Dirt
p724
sg358
F1
sg359
I00
sba(imapping
Tile
p725
(dp726
g354
g355
sg356
VF_Dirt
p727
sg358
F1
sg359
I00
sbaa(lp728
NaNaNaNaNaNa(imapping
Tile
p729
(dp730
g354
g355
sg356
VF_GrassRedge
p731
sg358
F1
sg359
I00
sba(imapping
Tile
p732
(dp733
g354
g355
sg356
VF_Dirt_R1
p734
sg358
F1
sg359
I00
sba(imapping
Tile
p735
(dp736
g354
g355
sg356
VF_Dirt_R1
p737
sg358
F1
sg359
I00
sba(imapping
Tile
p738
(dp739
g354
g355
sg356
VF_Dirt_R1
p740
sg358
F1
sg359
I00
sba(imapping
Tile
p741
(dp742
g354
g355
sg356
VF_Dirt_R1
p743
sg358
F1
sg359
I00
sba(imapping
Tile
p744
(dp745
g354
g355
sg356
VF_Dirt_R1
p746
sg358
F1
sg359
I00
sbaa(lp747
NaNaNaNaNaNaNaNaNaNaNaNaa(lp748
NaNaNaNaNa(imapping
Tile
p749
(dp750
g354
g637
sg356
VF_Tuft1
p751
sg358
F1
sg359
I00
sba(imapping
Tile
p752
(dp753
g354
g355
sg356
VF_GrassLedge
p754
sg358
F1
sg359
I00
sba(imapping
Tile
p755
(dp756
g354
g355
sg356
VF_Dirt_L2
p757
sg358
F1
sg359
I00
sba(imapping
Tile
p758
(dp759
g354
g355
sg356
VF_Dirt_L2
p760
sg358
F1
sg359
I00
sba(imapping
Tile
p761
(dp762
g354
g355
sg356
VF_Dirt_L2
p763
sg358
F1
sg359
I00
sba(imapping
Tile
p764
(dp765
g354
g355
sg356
VF_Dirt_L2
p766
sg358
F1
sg359
I00
sba(imapping
Tile
p767
(dp768
g354
g355
sg356
VF_Dirt_L2
p769
sg358
F1
sg359
I00
sbaa(lp770
NaNaNaNaNaNa(imapping
Tile
p771
(dp772
g354
S'LEFT_INCLINATION'
p773
sg356
VF_Left_Ramp
p774
sg358
F1
sg359
I00
sba(imapping
Tile
p775
(dp776
g354
g355
sg356
VF_RampJoinL
p777
sg358
F1
sg359
I00
sba(imapping
Tile
p778
(dp779
g354
g355
sg356
VF_Dirt
p780
sg358
F1
sg359
I00
sba(imapping
Tile
p781
(dp782
g354
g355
sg356
VF_Dirt
p783
sg358
F1
sg359
I00
sba(imapping
Tile
p784
(dp785
g354
g355
sg356
VF_Dirt
p786
sg358
F1
sg359
I00
sba(imapping
Tile
p787
(dp788
g354
g355
sg356
VF_Dirt
p789
sg358
F1
sg359
I00
sbaa(lp790
NaNaNaNaNaNaNa(imapping
Tile
p791
(dp792
g354
g773
sg356
VF_Left_Ramp
p793
sg358
F1
sg359
I00
sba(imapping
Tile
p794
(dp795
g354
g355
sg356
VF_RampJoinL
p796
sg358
F1
sg359
I00
sba(imapping
Tile
p797
(dp798
g354
g355
sg356
VF_Dirt
p799
sg358
F1
sg359
I00
sba(imapping
Tile
p800
(dp801
g354
g355
sg356
VF_Dirt
p802
sg358
F1
sg359
I00
sba(imapping
Tile
p803
(dp804
g354
g355
sg356
VF_Dirt
p805
sg358
F1
sg359
I00
sbaa(lp806
NaNaNaNaNaNaNaNa(imapping
Tile
p807
(dp808
g354
g773
sg356
VF_Left_Ramp
p809
sg358
F1
sg359
I00
sba(imapping
Tile
p810
(dp811
g354
g355
sg356
VF_RampJoinL
p812
sg358
F1
sg359
I00
sba(imapping
Tile
p813
(dp814
g354
g355
sg356
VF_Dirt
p815
sg358
F1
sg359
I00
sba(imapping
Tile
p816
(dp817
g354
g355
sg356
VF_Dirt
p818
sg358
F1
sg359
I00
sbaa(lp819
NaNaNaNaNaNaNaNaNa(imapping
Tile
p820
(dp821
g354
g355
sg356
VF_GrassRedge
p822
sg358
F1
sg359
I00
sba(imapping
Tile
p823
(dp824
g354
g355
sg356
VF_Dirt_R1
p825
sg358
F1
sg359
I00
sba(imapping
Tile
p826
(dp827
g354
g355
sg356
VF_Dirt_R1
p828
sg358
F1
sg359
I00
sbaa(lp829
NaNaNaNaNaNaNaNaNaNaNaNaa(lp830
NaNaNaNaNaNaNaNaNaNaNaNaa(lp831
NaNaNaNaNaNaNaNaNaNa(imapping
Tile
p832
(dp833
g354
g355
sg356
VF_GrassLedge
p834
sg358
F1
sg359
I00
sba(imapping
Tile
p835
(dp836
g354
g355
sg356
VF_Dirt_L2
p837
sg358
F1
sg359
I00
sbaa(lp838
NaNaNaNaNaNaNaNaNaNa(imapping
Tile
p839
(dp840
g354
g355
sg356
VF_Grass
p841
sg358
F1
sg359
I00
sba(imapping
Tile
p842
(dp843
g354
g355
sg356
VF_Dirt
p844
sg358
F1
sg359
I00
sbaa(lp845
NaNaNaNaNaNaNaNaNa(imapping
Tile
p846
(dp847
g354
g637
sg356
VF_Shrooms2
p848
sg358
F1
sg359
I00
sba(imapping
Tile
p849
(dp850
g354
g355
sg356
VF_Grass
p851
sg358
F1
sg359
I00
sba(imapping
Tile
p852
(dp853
g354
g355
sg356
VF_Dirt
p854
sg358
F1
sg359
I00
sbaa(lp855
NaNaNaNaNaNaNaNaNa(imapping
Tile
p856
(dp857
g354
g637
sg356
VF_Tuft1
p858
sg358
F1
sg359
I00
sba(imapping
Tile
p859
(dp860
g354
g355
sg356
VF_Grass
p861
sg358
F1
sg359
I00
sba(imapping
Tile
p862
(dp863
g354
g355
sg356
VF_Dirt
p864
sg358
F1
sg359
I00
sbaa(lp865
NaNaNaNaNaNaNaNaNa(imapping
Tile
p866
(dp867
g354
g637
sg356
VF_Tuft1
p868
sg358
F1
sg359
I00
sba(imapping
Tile
p869
(dp870
g354
g355
sg356
VF_Grass
p871
sg358
F1
sg359
I00
sba(imapping
Tile
p872
(dp873
g354
g355
sg356
VF_Dirt
p874
sg358
F1
sg359
I00
sbaa(lp875
NaNaNaNaNaNaNaNaNa(imapping
Tile
p876
(dp877
g354
g711
sg356
VF_Right_Ramp
p878
sg358
F1
sg359
I00
sba(imapping
Tile
p879
(dp880
g354
g355
sg356
VF_RampJoinR
p881
sg358
F1
sg359
I00
sba(imapping
Tile
p882
(dp883
g354
g355
sg356
VF_Dirt
p884
sg358
F1
sg359
I00
sbaa(lp885
NaNaNaNaNaNaNaNaNa(imapping
Tile
p886
(dp887
g354
g355
sg356
VF_Grass
p888
sg358
F1
sg359
I00
sba(imapping
Tile
p889
(dp890
g354
g355
sg356
VF_Dirt
p891
sg358
F1
sg359
I00
sba(imapping
Tile
p892
(dp893
g354
g355
sg356
VF_Dirt
p894
sg358
F1
sg359
I00
sbaa(lp895
NaNaNaNaNaNaNaNaNa(imapping
Tile
p896
(dp897
g354
g355
sg356
VF_Grass
p898
sg358
F1
sg359
I00
sba(imapping
Tile
p899
(dp900
g354
g355
sg356
VF_Dirt
p901
sg358
F1
sg359
I00
sba(imapping
Tile
p902
(dp903
g354
g355
sg356
VF_Dirt
p904
sg358
F1
sg359
I00
sbaa(lp905
NaNaNaNaNaNaNaNaNa(imapping
Tile
p906
(dp907
g354
g355
sg356
VF_Grass
p908
sg358
F1
sg359
I00
sba(imapping
Tile
p909
(dp910
g354
g355
sg356
VF_Dirt
p911
sg358
F1
sg359
I00
sba(imapping
Tile
p912
(dp913
g354
g355
sg356
VF_Dirt
p914
sg358
F1
sg359
I00
sbaa(lp915
NaNaNaNaNaNaNaNa(imapping
Tile
p916
(dp917
g354
g711
sg356
VF_Right_Ramp
p918
sg358
F1
sg359
I00
sba(imapping
Tile
p919
(dp920
g354
g355
sg356
VF_RampJoinR
p921
sg358
F1
sg359
I00
sba(imapping
Tile
p922
(dp923
g354
g355
sg356
VF_Dirt
p924
sg358
F1
sg359
I00
sba(imapping
Tile
p925
(dp926
g354
g355
sg356
VF_Dirt
p927
sg358
F1
sg359
I00
sbaa(lp928
NaNaNaNaNaNaNaNa(imapping
Tile
p929
(dp930
g354
g355
sg356
VF_Grass
p931
sg358
F1
sg359
I00
sba(imapping
Tile
p932
(dp933
g354
g355
sg356
VF_Dirt
p934
sg358
F1
sg359
I00
sba(imapping
Tile
p935
(dp936
g354
g355
sg356
VF_Dirt
p937
sg358
F1
sg359
I00
sba(imapping
Tile
p938
(dp939
g354
g355
sg356
VF_Dirt
p940
sg358
F1
sg359
I00
sbaa(lp941
NaNaNaNaNaNaNa(imapping
Tile
p942
(dp943
g354
g637
sg356
VF_Tuft2
p944
sg358
F1
sg359
I00
sba(imapping
Tile
p945
(dp946
g354
g355
sg356
VF_Grass
p947
sg358
F1
sg359
I00
sba(imapping
Tile
p948
(dp949
g354
g355
sg356
VF_Dirt
p950
sg358
F1
sg359
I00
sba(imapping
Tile
p951
(dp952
g354
g355
sg356
VF_Dirt
p953
sg358
F1
sg359
I00
sba(imapping
Tile
p954
(dp955
g354
g355
sg356
VF_Dirt
p956
sg358
F1
sg359
I00
sbaa(lp957
NaNaNaNaNaNaNaNa(imapping
Tile
p958
(dp959
g354
g355
sg356
VF_Grass
p960
sg358
F1
sg359
I00
sba(imapping
Tile
p961
(dp962
g354
g355
sg356
VF_Dirt
p963
sg358
F1
sg359
I00
sba(imapping
Tile
p964
(dp965
g354
g355
sg356
VF_Dirt
p966
sg358
F1
sg359
I00
sba(imapping
Tile
p967
(dp968
g354
g355
sg356
VF_Dirt
p969
sg358
F1
sg359
I00
sbaa(lp970
NaNaNaNaNaNaNaNa(imapping
Tile
p971
(dp972
g354
g355
sg356
VF_Grass
p973
sg358
F1
sg359
I00
sba(imapping
Tile
p974
(dp975
g354
g355
sg356
VF_Dirt
p976
sg358
F1
sg359
I00
sba(imapping
Tile
p977
(dp978
g354
g355
sg356
VF_Dirt
p979
sg358
F1
sg359
I00
sba(imapping
Tile
p980
(dp981
g354
g355
sg356
VF_Dirt
p982
sg358
F1
sg359
I00
sbaa(lp983
NaNaNaNaNaNaNaNa(imapping
Tile
p984
(dp985
g354
g773
sg356
VF_Left_Ramp
p986
sg358
F1
sg359
I00
sba(imapping
Tile
p987
(dp988
g354
g355
sg356
VF_RampJoinL
p989
sg358
F1
sg359
I00
sba(imapping
Tile
p990
(dp991
g354
g355
sg356
VF_Dirt
p992
sg358
F1
sg359
I00
sba(imapping
Tile
p993
(dp994
g354
g355
sg356
VF_Dirt
p995
sg358
F1
sg359
I00
sbaa(lp996
NaNaNaNaNaNaNaNaNa(imapping
Tile
p997
(dp998
g354
g355
sg356
VF_Grass
p999
sg358
F1
sg359
I00
sba(imapping
Tile
p1000
(dp1001
g354
g355
sg356
VF_Dirt
p1002
sg358
F1
sg359
I00
sba(imapping
Tile
p1003
(dp1004
g354
g355
sg356
VF_Dirt
p1005
sg358
F1
sg359
I00
sbaa(lp1006
NaNaNaNaNaNaNaNaNa(imapping
Tile
p1007
(dp1008
g354
g355
sg356
VF_Grass
p1009
sg358
F1
sg359
I00
sba(imapping
Tile
p1010
(dp1011
g354
g355
sg356
VF_Dirt
p1012
sg358
F1
sg359
I00
sba(imapping
Tile
p1013
(dp1014
g354
g355
sg356
VF_Dirt
p1015
sg358
F1
sg359
I00
sbaa(lp1016
NaNaNaNaNaNaNaNa(imapping
Tile
p1017
(dp1018
g354
g613
sg356
VF_Shrooms3
p1019
sg358
F1
sg359
I00
sba(imapping
Tile
p1020
(dp1021
g354
g355
sg356
VF_Grass
p1022
sg358
F1
sg359
I00
sba(imapping
Tile
p1023
(dp1024
g354
g355
sg356
VF_Dirt
p1025
sg358
F1
sg359
I00
sba(imapping
Tile
p1026
(dp1027
g354
g355
sg356
VF_Dirt
p1028
sg358
F1
sg359
I00
sbaa(lp1029
NaNaNaNaNaNaNaNaNa(imapping
Tile
p1030
(dp1031
g354
g355
sg356
VF_Grass
p1032
sg358
F1
sg359
I00
sba(imapping
Tile
p1033
(dp1034
g354
g355
sg356
VF_Dirt
p1035
sg358
F1
sg359
I00
sba(imapping
Tile
p1036
(dp1037
g354
g355
sg356
VF_Dirt
p1038
sg358
F1
sg359
I00
sbaa(lp1039
NaNaNaNaNaNaNaNa(imapping
Tile
p1040
(dp1041
g354
g711
sg356
VF_Right_Ramp
p1042
sg358
F1
sg359
I00
sba(imapping
Tile
p1043
(dp1044
g354
g355
sg356
VF_RampJoinR
p1045
sg358
F1
sg359
I00
sba(imapping
Tile
p1046
(dp1047
g354
g355
sg356
VF_Dirt
p1048
sg358
F1
sg359
I00
sba(imapping
Tile
p1049
(dp1050
g354
g355
sg356
VF_Dirt
p1051
sg358
F1
sg359
I00
sbaa(lp1052
NaNaNaNaNaNaNa(imapping
Tile
p1053
(dp1054
g354
g711
sg356
VF_Right_Ramp
p1055
sg358
F1
sg359
I00
sba(imapping
Tile
p1056
(dp1057
g354
g355
sg356
VF_RampJoinR
p1058
sg358
F1
sg359
I00
sba(imapping
Tile
p1059
(dp1060
g354
g355
sg356
VF_Dirt
p1061
sg358
F1
sg359
I00
sba(imapping
Tile
p1062
(dp1063
g354
g355
sg356
VF_Dirt
p1064
sg358
F1
sg359
I00
sba(imapping
Tile
p1065
(dp1066
g354
g355
sg356
VF_Dirt
p1067
sg358
F1
sg359
I00
sbaa(lp1068
NaNaNaNaNaNa(imapping
Tile
p1069
(dp1070
g354
g711
sg356
VF_Right_Ramp
p1071
sg358
F1
sg359
I00
sba(imapping
Tile
p1072
(dp1073
g354
g355
sg356
VF_RampJoinR
p1074
sg358
F1
sg359
I00
sba(imapping
Tile
p1075
(dp1076
g354
g355
sg356
VF_Dirt
p1077
sg358
F1
sg359
I00
sba(imapping
Tile
p1078
(dp1079
g354
g355
sg356
VF_Dirt
p1080
sg358
F1
sg359
I00
sba(imapping
Tile
p1081
(dp1082
g354
g355
sg356
VF_Dirt
p1083
sg358
F1
sg359
I00
sba(imapping
Tile
p1084
(dp1085
g354
g355
sg356
VF_Dirt
p1086
sg358
F1
sg359
I00
sbaa(lp1087
NaNaNaNaNaNa(imapping
Tile
p1088
(dp1089
g354
g355
sg356
VF_Grass
p1090
sg358
F1
sg359
I00
sba(imapping
Tile
p1091
(dp1092
g354
g355
sg356
VF_Dirt
p1093
sg358
F1
sg359
I00
sba(imapping
Tile
p1094
(dp1095
g354
g355
sg356
VF_Dirt
p1096
sg358
F1
sg359
I00
sba(imapping
Tile
p1097
(dp1098
g354
g355
sg356
VF_Dirt
p1099
sg358
F1
sg359
I00
sba(imapping
Tile
p1100
(dp1101
g354
g355
sg356
VF_Dirt
p1102
sg358
F1
sg359
I00
sba(imapping
Tile
p1103
(dp1104
g354
g355
sg356
VF_Dirt
p1105
sg358
F1
sg359
I00
sbaa(lp1106
NaNaNaNaNa(imapping
Tile
p1107
(dp1108
g354
g613
sg356
VF_Shrooms1
p1109
sg358
F1
sg359
I00
sba(imapping
Tile
p1110
(dp1111
g354
g355
sg356
VF_Grass
p1112
sg358
F1
sg359
I00
sba(imapping
Tile
p1113
(dp1114
g354
g355
sg356
VF_Dirt
p1115
sg358
F1
sg359
I00
sba(imapping
Tile
p1116
(dp1117
g354
g355
sg356
VF_Dirt
p1118
sg358
F1
sg359
I00
sba(imapping
Tile
p1119
(dp1120
g354
g355
sg356
VF_Dirt
p1121
sg358
F1
sg359
I00
sba(imapping
Tile
p1122
(dp1123
g354
g355
sg356
VF_Dirt
p1124
sg358
F1
sg359
I00
sba(imapping
Tile
p1125
(dp1126
g354
g355
sg356
VF_Dirt
p1127
sg358
F1
sg359
I00
sbaa(lp1128
NaNaNaNaNaNa(imapping
Tile
p1129
(dp1130
g354
g355
sg356
VF_Grass
p1131
sg358
F1
sg359
I00
sba(imapping
Tile
p1132
(dp1133
g354
g355
sg356
VF_Dirt
p1134
sg358
F1
sg359
I00
sba(imapping
Tile
p1135
(dp1136
g354
g355
sg356
VF_Dirt
p1137
sg358
F1
sg359
I00
sba(imapping
Tile
p1138
(dp1139
g354
g355
sg356
VF_Dirt
p1140
sg358
F1
sg359
I00
sba(imapping
Tile
p1141
(dp1142
g354
g355
sg356
VF_Dirt
p1143
sg358
F1
sg359
I00
sba(imapping
Tile
p1144
(dp1145
g354
g355
sg356
VF_Dirt
p1146
sg358
F1
sg359
I00
sbaa(lp1147
NaNaNaNaNa(imapping
Tile
p1148
(dp1149
g354
g613
sg356
VF_Stump
p1150
sg358
F1
sg359
I00
sba(imapping
Tile
p1151
(dp1152
g354
g355
sg356
VF_Grass
p1153
sg358
F1
sg359
I00
sba(imapping
Tile
p1154
(dp1155
g354
g355
sg356
VF_Dirt
p1156
sg358
F1
sg359
I00
sba(imapping
Tile
p1157
(dp1158
g354
g355
sg356
VF_Dirt
p1159
sg358
F1
sg359
I00
sba(imapping
Tile
p1160
(dp1161
g354
g355
sg356
VF_Dirt
p1162
sg358
F1
sg359
I00
sba(imapping
Tile
p1163
(dp1164
g354
g355
sg356
VF_Dirt
p1165
sg358
F1
sg359
I00
sba(imapping
Tile
p1166
(dp1167
g354
g355
sg356
VF_Dirt
p1168
sg358
F1
sg359
I00
sbaa(lp1169
NaNaNaNaNaNa(imapping
Tile
p1170
(dp1171
g354
g355
sg356
VF_Grass
p1172
sg358
F1
sg359
I00
sba(imapping
Tile
p1173
(dp1174
g354
g355
sg356
VF_Dirt
p1175
sg358
F1
sg359
I00
sba(imapping
Tile
p1176
(dp1177
g354
g355
sg356
VF_Dirt
p1178
sg358
F1
sg359
I00
sba(imapping
Tile
p1179
(dp1180
g354
g355
sg356
VF_Dirt
p1181
sg358
F1
sg359
I00
sba(imapping
Tile
p1182
(dp1183
g354
g355
sg356
VF_Dirt
p1184
sg358
F1
sg359
I00
sba(imapping
Tile
p1185
(dp1186
g354
g355
sg356
VF_Dirt
p1187
sg358
F1
sg359
I00
sbaa(lp1188
NaNaNaNaNaNa(imapping
Tile
p1189
(dp1190
g354
g773
sg356
VF_Left_Ramp
p1191
sg358
F1
sg359
I00
sba(imapping
Tile
p1192
(dp1193
g354
g355
sg356
VF_RampJoinL
p1194
sg358
F1
sg359
I00
sba(imapping
Tile
p1195
(dp1196
g354
g355
sg356
VF_Dirt
p1197
sg358
F1
sg359
I00
sba(imapping
Tile
p1198
(dp1199
g354
g355
sg356
VF_Dirt
p1200
sg358
F1
sg359
I00
sba(imapping
Tile
p1201
(dp1202
g354
g355
sg356
VF_Dirt
p1203
sg358
F1
sg359
I00
sba(imapping
Tile
p1204
(dp1205
g354
g355
sg356
VF_Dirt
p1206
sg358
F1
sg359
I00
sbaa(lp1207
NaNaNaNaNaNaNa(imapping
Tile
p1208
(dp1209
g354
g355
sg356
VF_Grass
p1210
sg358
F1
sg359
I00
sba(imapping
Tile
p1211
(dp1212
g354
g355
sg356
VF_Dirt
p1213
sg358
F1
sg359
I00
sba(imapping
Tile
p1214
(dp1215
g354
g355
sg356
VF_Dirt
p1216
sg358
F1
sg359
I00
sba(imapping
Tile
p1217
(dp1218
g354
g355
sg356
VF_Dirt
p1219
sg358
F1
sg359
I00
sba(imapping
Tile
p1220
(dp1221
g354
g355
sg356
VF_Dirt
p1222
sg358
F1
sg359
I00
sbaa(lp1223
NaNaNaNaNaNa(imapping
Tile
p1224
(dp1225
g354
g637
sg356
VF_Tuft1
p1226
sg358
F1
sg359
I00
sba(imapping
Tile
p1227
(dp1228
g354
g355
sg356
VF_Grass
p1229
sg358
F1
sg359
I00
sba(imapping
Tile
p1230
(dp1231
g354
g355
sg356
VF_Dirt
p1232
sg358
F1
sg359
I00
sba(imapping
Tile
p1233
(dp1234
g354
g355
sg356
VF_Dirt
p1235
sg358
F1
sg359
I00
sba(imapping
Tile
p1236
(dp1237
g354
g355
sg356
VF_Dirt
p1238
sg358
F1
sg359
I00
sba(imapping
Tile
p1239
(dp1240
g354
g355
sg356
VF_Dirt
p1241
sg358
F1
sg359
I00
sbaa(lp1242
NaNaNaNaNaNaNa(imapping
Tile
p1243
(dp1244
g354
g355
sg356
VF_Grass
p1245
sg358
F1
sg359
I00
sba(imapping
Tile
p1246
(dp1247
g354
g355
sg356
VF_Dirt
p1248
sg358
F1
sg359
I00
sba(imapping
Tile
p1249
(dp1250
g354
g355
sg356
VF_Dirt
p1251
sg358
F1
sg359
I00
sba(imapping
Tile
p1252
(dp1253
g354
g355
sg356
VF_Dirt
p1254
sg358
F1
sg359
I00
sba(imapping
Tile
p1255
(dp1256
g354
g355
sg356
VF_Dirt
p1257
sg358
F1
sg359
I00
sbaa(lp1258
NaNaNaNaNaNa(imapping
Tile
p1259
(dp1260
g354
g651
sg356
VF_Right_Halframp1
p1261
sg358
F1
sg359
I00
sba(imapping
Tile
p1262
(dp1263
g354
g355
sg356
VF_HalframpJoinR
p1264
sg358
F1
sg359
I00
sba(imapping
Tile
p1265
(dp1266
g354
g355
sg356
VF_Dirt
p1267
sg358
F1
sg359
I00
sba(imapping
Tile
p1268
(dp1269
g354
g355
sg356
VF_Dirt
p1270
sg358
F1
sg359
I00
sba(imapping
Tile
p1271
(dp1272
g354
g355
sg356
VF_Dirt
p1273
sg358
F1
sg359
I00
sba(imapping
Tile
p1274
(dp1275
g354
g355
sg356
VF_Dirt
p1276
sg358
F1
sg359
I00
sbaa(lp1277
NaNaNaNaNaNa(imapping
Tile
p1278
(dp1279
g354
g665
sg356
VF_Right_Halframp2
p1280
sg358
F1
sg359
I00
sba(imapping
Tile
p1281
(dp1282
g354
g355
sg356
VF_Dirt
p1283
sg358
F1
sg359
I00
sba(imapping
Tile
p1284
(dp1285
g354
g355
sg356
VF_Dirt
p1286
sg358
F1
sg359
I00
sba(imapping
Tile
p1287
(dp1288
g354
g355
sg356
VF_Dirt
p1289
sg358
F1
sg359
I00
sba(imapping
Tile
p1290
(dp1291
g354
g355
sg356
VF_Dirt
p1292
sg358
F1
sg359
I00
sba(imapping
Tile
p1293
(dp1294
g354
g355
sg356
VF_Dirt
p1295
sg358
F1
sg359
I00
sbaa(lp1296
NaNaNaNaNa(imapping
Tile
p1297
(dp1298
g354
g651
sg356
VF_Right_Halframp1
p1299
sg358
F1
sg359
I00
sba(imapping
Tile
p1300
(dp1301
g354
g355
sg356
VF_HalframpJoinR
p1302
sg358
F1
sg359
I00
sba(imapping
Tile
p1303
(dp1304
g354
g355
sg356
VF_Dirt
p1305
sg358
F1
sg359
I00
sba(imapping
Tile
p1306
(dp1307
g354
g355
sg356
VF_Dirt
p1308
sg358
F1
sg359
I00
sba(imapping
Tile
p1309
(dp1310
g354
g355
sg356
VF_Dirt
p1311
sg358
F1
sg359
I00
sba(imapping
Tile
p1312
(dp1313
g354
g355
sg356
VF_Dirt
p1314
sg358
F1
sg359
I00
sba(imapping
Tile
p1315
(dp1316
g354
g355
sg356
VF_Dirt
p1317
sg358
F1
sg359
I00
sbaa(lp1318
NaNaNaNaNa(imapping
Tile
p1319
(dp1320
g354
g665
sg356
VF_Right_Halframp2
p1321
sg358
F1
sg359
I00
sba(imapping
Tile
p1322
(dp1323
g354
g355
sg356
VF_Dirt
p1324
sg358
F1
sg359
I00
sba(imapping
Tile
p1325
(dp1326
g354
g355
sg356
VF_Dirt
p1327
sg358
F1
sg359
I00
sba(imapping
Tile
p1328
(dp1329
g354
g355
sg356
VF_Dirt
p1330
sg358
F1
sg359
I00
sba(imapping
Tile
p1331
(dp1332
g354
g355
sg356
VF_Dirt
p1333
sg358
F1
sg359
I00
sba(imapping
Tile
p1334
(dp1335
g354
g355
sg356
VF_Dirt
p1336
sg358
F1
sg359
I00
sba(imapping
Tile
p1337
(dp1338
g354
g355
sg356
VF_Dirt
p1339
sg358
F1
sg359
I00
sbaa(lp1340
NaNaNaNa(imapping
Tile
p1341
(dp1342
g354
g651
sg356
VF_Right_Halframp1
p1343
sg358
F1
sg359
I00
sba(imapping
Tile
p1344
(dp1345
g354
g355
sg356
VF_HalframpJoinR
p1346
sg358
F1
sg359
I00
sba(imapping
Tile
p1347
(dp1348
g354
g355
sg356
VF_Dirt
p1349
sg358
F1
sg359
I00
sba(imapping
Tile
p1350
(dp1351
g354
g355
sg356
VF_Dirt
p1352
sg358
F1
sg359
I00
sba(imapping
Tile
p1353
(dp1354
g354
g355
sg356
VF_Dirt
p1355
sg358
F1
sg359
I00
sba(imapping
Tile
p1356
(dp1357
g354
g355
sg356
VF_Dirt
p1358
sg358
F1
sg359
I00
sba(imapping
Tile
p1359
(dp1360
g354
g355
sg356
VF_Dirt
p1361
sg358
F1
sg359
I00
sba(imapping
Tile
p1362
(dp1363
g354
g355
sg356
VF_Dirt
p1364
sg358
F1
sg359
I00
sbaa(lp1365
NaNaNaNa(imapping
Tile
p1366
(dp1367
g354
g665
sg356
VF_Right_Halframp2
p1368
sg358
F1
sg359
I00
sba(imapping
Tile
p1369
(dp1370
g354
g355
sg356
VF_Dirt
p1371
sg358
F1
sg359
I00
sba(imapping
Tile
p1372
(dp1373
g354
g355
sg356
VF_Dirt
p1374
sg358
F1
sg359
I00
sba(imapping
Tile
p1375
(dp1376
g354
g355
sg356
VF_Dirt
p1377
sg358
F1
sg359
I00
sba(imapping
Tile
p1378
(dp1379
g354
g355
sg356
VF_Dirt
p1380
sg358
F1
sg359
I00
sba(imapping
Tile
p1381
(dp1382
g354
g355
sg356
VF_Dirt
p1383
sg358
F1
sg359
I00
sba(imapping
Tile
p1384
(dp1385
g354
g355
sg356
VF_Dirt
p1386
sg358
F1
sg359
I00
sba(imapping
Tile
p1387
(dp1388
g354
g355
sg356
VF_Dirt
p1389
sg358
F1
sg359
I00
sbaa(lp1390
NaNaNa(imapping
Tile
p1391
(dp1392
g354
g651
sg356
VF_Right_Halframp1
p1393
sg358
F1
sg359
I00
sba(imapping
Tile
p1394
(dp1395
g354
g355
sg356
VF_HalframpJoinR
p1396
sg358
F1
sg359
I00
sba(imapping
Tile
p1397
(dp1398
g354
g355
sg356
VF_Dirt
p1399
sg358
F1
sg359
I00
sba(imapping
Tile
p1400
(dp1401
g354
g355
sg356
VF_Dirt
p1402
sg358
F1
sg359
I00
sba(imapping
Tile
p1403
(dp1404
g354
g355
sg356
VF_Dirt
p1405
sg358
F1
sg359
I00
sba(imapping
Tile
p1406
(dp1407
g354
g355
sg356
VF_Dirt
p1408
sg358
F1
sg359
I00
sba(imapping
Tile
p1409
(dp1410
g354
g355
sg356
VF_Dirt
p1411
sg358
F1
sg359
I00
sba(imapping
Tile
p1412
(dp1413
g354
g355
sg356
VF_Dirt
p1414
sg358
F1
sg359
I00
sba(imapping
Tile
p1415
(dp1416
g354
g355
sg356
VF_Dirt
p1417
sg358
F1
sg359
I00
sbaa(lp1418
NaNaNa(imapping
Tile
p1419
(dp1420
g354
g665
sg356
VF_Right_Halframp2
p1421
sg358
F1
sg359
I00
sba(imapping
Tile
p1422
(dp1423
g354
g355
sg356
VF_Dirt
p1424
sg358
F1
sg359
I00
sba(imapping
Tile
p1425
(dp1426
g354
g355
sg356
VF_Dirt
p1427
sg358
F1
sg359
I00
sba(imapping
Tile
p1428
(dp1429
g354
g355
sg356
VF_Dirt
p1430
sg358
F1
sg359
I00
sba(imapping
Tile
p1431
(dp1432
g354
g355
sg356
VF_Dirt
p1433
sg358
F1
sg359
I00
sba(imapping
Tile
p1434
(dp1435
g354
g355
sg356
VF_Dirt
p1436
sg358
F1
sg359
I00
sba(imapping
Tile
p1437
(dp1438
g354
g355
sg356
VF_Dirt
p1439
sg358
F1
sg359
I00
sba(imapping
Tile
p1440
(dp1441
g354
g355
sg356
VF_Dirt
p1442
sg358
F1
sg359
I00
sba(imapping
Tile
p1443
(dp1444
g354
g355
sg356
VF_Dirt
p1445
sg358
F1
sg359
I00
sbaa(lp1446
NaNaNa(imapping
Tile
p1447
(dp1448
g354
g773
sg356
VF_Left_Ramp
p1449
sg358
F1
sg359
I00
sba(imapping
Tile
p1450
(dp1451
g354
g355
sg356
VF_RampJoinL
p1452
sg358
F1
sg359
I00
sba(imapping
Tile
p1453
(dp1454
g354
g355
sg356
VF_Dirt
p1455
sg358
F1
sg359
I00
sba(imapping
Tile
p1456
(dp1457
g354
g355
sg356
VF_Dirt
p1458
sg358
F1
sg359
I00
sba(imapping
Tile
p1459
(dp1460
g354
g355
sg356
VF_Dirt
p1461
sg358
F1
sg359
I00
sba(imapping
Tile
p1462
(dp1463
g354
g355
sg356
VF_Dirt
p1464
sg358
F1
sg359
I00
sba(imapping
Tile
p1465
(dp1466
g354
g355
sg356
VF_Dirt
p1467
sg358
F1
sg359
I00
sba(imapping
Tile
p1468
(dp1469
g354
g355
sg356
VF_Dirt
p1470
sg358
F1
sg359
I00
sba(imapping
Tile
p1471
(dp1472
g354
g355
sg356
VF_Dirt
p1473
sg358
F1
sg359
I00
sbaa(lp1474
NaNaNaNa(imapping
Tile
p1475
(dp1476
g354
g773
sg356
VF_Left_Ramp
p1477
sg358
F1
sg359
I00
sba(imapping
Tile
p1478
(dp1479
g354
g355
sg356
VF_RampJoinL
p1480
sg358
F1
sg359
I00
sba(imapping
Tile
p1481
(dp1482
g354
g355
sg356
VF_Dirt
p1483
sg358
F1
sg359
I00
sba(imapping
Tile
p1484
(dp1485
g354
g355
sg356
VF_Dirt
p1486
sg358
F1
sg359
I00
sba(imapping
Tile
p1487
(dp1488
g354
g355
sg356
VF_Dirt
p1489
sg358
F1
sg359
I00
sba(imapping
Tile
p1490
(dp1491
g354
g355
sg356
VF_Dirt
p1492
sg358
F1
sg359
I00
sba(imapping
Tile
p1493
(dp1494
g354
g355
sg356
VF_Dirt
p1495
sg358
F1
sg359
I00
sba(imapping
Tile
p1496
(dp1497
g354
g355
sg356
VF_Dirt
p1498
sg358
F1
sg359
I00
sbaa(lp1499
NaNaNaNaNa(imapping
Tile
p1500
(dp1501
g354
g773
sg356
VF_Left_Ramp
p1502
sg358
F1
sg359
I00
sba(imapping
Tile
p1503
(dp1504
g354
g355
sg356
VF_RampJoinL
p1505
sg358
F1
sg359
I00
sba(imapping
Tile
p1506
(dp1507
g354
g355
sg356
VF_Dirt
p1508
sg358
F1
sg359
I00
sba(imapping
Tile
p1509
(dp1510
g354
g355
sg356
VF_Dirt
p1511
sg358
F1
sg359
I00
sba(imapping
Tile
p1512
(dp1513
g354
g355
sg356
VF_Dirt
p1514
sg358
F1
sg359
I00
sba(imapping
Tile
p1515
(dp1516
g354
g355
sg356
VF_Dirt
p1517
sg358
F1
sg359
I00
sba(imapping
Tile
p1518
(dp1519
g354
g355
sg356
VF_Dirt
p1520
sg358
F1
sg359
I00
sbaa(lp1521
NaNaNaNaNaNa(imapping
Tile
p1522
(dp1523
g354
g773
sg356
VF_Left_Ramp
p1524
sg358
F1
sg359
I00
sba(imapping
Tile
p1525
(dp1526
g354
g355
sg356
VF_RampJoinL
p1527
sg358
F1
sg359
I00
sba(imapping
Tile
p1528
(dp1529
g354
g355
sg356
VF_Dirt
p1530
sg358
F1
sg359
I00
sba(imapping
Tile
p1531
(dp1532
g354
g355
sg356
VF_Dirt
p1533
sg358
F1
sg359
I00
sba(imapping
Tile
p1534
(dp1535
g354
g355
sg356
VF_Dirt
p1536
sg358
F1
sg359
I00
sba(imapping
Tile
p1537
(dp1538
g354
g355
sg356
VF_Dirt
p1539
sg358
F1
sg359
I00
sbaa(lp1540
NaNaNaNaNaNaNa(imapping
Tile
p1541
(dp1542
g354
g773
sg356
VF_Left_Ramp
p1543
sg358
F1
sg359
I00
sba(imapping
Tile
p1544
(dp1545
g354
g355
sg356
VF_RampJoinL
p1546
sg358
F1
sg359
I00
sba(imapping
Tile
p1547
(dp1548
g354
g355
sg356
VF_Dirt
p1549
sg358
F1
sg359
I00
sba(imapping
Tile
p1550
(dp1551
g354
g355
sg356
VF_Dirt
p1552
sg358
F1
sg359
I00
sba(imapping
Tile
p1553
(dp1554
g354
g355
sg356
VF_Dirt
p1555
sg358
F1
sg359
I00
sbaa(lp1556
NaNaNaNa(imapping
Tile
p1557
(dp1558
g354
g637
sg356
VF_Tuft2
p1559
sg358
F1
sg359
I00
sba(imapping
Tile
p1560
(dp1561
g354
g355
sg356
VF_GrassLedge
p1562
sg358
F1
sg359
I00
sba(imapping
Tile
p1563
(dp1564
g354
g355
sg356
VF_Dirt_L2
p1565
sg358
F1
sg359
I00
sba(imapping
Tile
p1566
(dp1567
g354
g355
sg356
VF_Dirt_L2
p1568
sg358
F1
sg359
I00
sba(imapping
Tile
p1569
(dp1570
g354
g355
sg356
VF_Grass->DirtL
p1571
sg358
F1
sg359
I00
sba(imapping
Tile
p1572
(dp1573
g354
g355
sg356
VF_Dirt
p1574
sg358
F1
sg359
I00
sba(imapping
Tile
p1575
(dp1576
g354
g355
sg356
VF_Dirt
p1577
sg358
F1
sg359
I00
sba(imapping
Tile
p1578
(dp1579
g354
g355
sg356
VF_Dirt
p1580
sg358
F1
sg359
I00
sbaa(lp1581
NaNaNaNaNa(imapping
Tile
p1582
(dp1583
g354
g355
sg356
VF_GrassRedge
p1584
sg358
F1
sg359
I00
sba(imapping
Tile
p1585
(dp1586
g354
g355
sg356
VF_Dirt_R1
p1587
sg358
F1
sg359
I00
sba(imapping
Tile
p1588
(dp1589
g354
g355
sg356
VF_Dirt_R2
p1590
sg358
F1
sg359
I00
sba(imapping
Tile
p1591
(dp1592
g354
g355
sg356
VF_Dirt_R1
p1593
sg358
F1
sg359
I00
sba(imapping
Tile
p1594
(dp1595
g354
g355
sg356
VF_Dirt_R1
p1596
sg358
F1
sg359
I00
sba(imapping
Tile
p1597
(dp1598
g354
g355
sg356
VF_Dirt_R2
p1599
sg358
F1
sg359
I00
sba(imapping
Tile
p1600
(dp1601
g354
g355
sg356
VF_Dirt_R2
p1602
sg358
F1
sg359
I00
sbaa(lp1603
NaNaNaNaNaNaNaNaNaNaNaNaa(lp1604
NaNaNaNaNaNaNaNaNaNaNaNaa(lp1605
NaNaNaNaNaNaNaNaNaNaNaNaa(lp1606
NaNaNaNaNaNaNaNaNaNaNa(imapping
Tile
p1607
(dp1608
g354
g355
sg356
VF_GrassLedge
p1609
sg358
F1
sg359
I00
sbaa(lp1610
NaNaNaNaNaNaNaNaNaNa(imapping
Tile
p1611
(dp1612
g354
g637
sg356
VF_ExitSign
p1613
sg358
F1
sg359
I00
sba(imapping
Tile
p1614
(dp1615
g354
g355
sg356
VF_Grass
p1616
sg358
F1
sg359
I00
sbaa(lp1617
NaNaNaNaNaNaNaNaNaNaNa(imapping
Tile
p1618
(dp1619
g354
g355
sg356
VF_GrassRedge
p1620
sg358
F1
sg359
I00
sbaa(lp1621
NaNaNaNaNaNaNaNaNaNaNaNaa(lp1622
NaNaNaNaNaNaNaNaNaNaNaNaa(lp1623
NaNaNaNaNaNaNaNaNaNaNaNaa(lp1624
NaNaNaNaNaNaNaNaNaNaNa(imapping
Tile
p1625
(dp1626
g354
g355
sg356
VF_GrassLedge
p1627
sg358
F1
sg359
I00
sbaa(lp1628
NaNaNaNaNaNaNaNaNaNa(imapping
Tile
p1629
(dp1630
g354
g711
sg356
VF_Right_Ramp
p1631
sg358
F1
sg359
I00
sba(imapping
Tile
p1632
(dp1633
g354
g355
sg356
VF_RampJoinR
p1634
sg358
F1
sg359
I00
sbaa(lp1635
NaNaNaNaNaNaNaNaNa(imapping
Tile
p1636
(dp1637
g354
g711
sg356
VF_Right_Ramp
p1638
sg358
F1
sg359
I00
sba(imapping
Tile
p1639
(dp1640
g354
g355
sg356
VF_RampJoinR
p1641
sg358
F1
sg359
I00
sba(imapping
Tile
p1642
(dp1643
g354
g355
sg356
VF_Dirt
p1644
sg358
F1
sg359
I00
sbaa(lp1645
NaNaNaNaNaNaNaNa(imapping
Tile
p1646
(dp1647
g354
g651
sg356
VF_Right_Halframp1
p1648
sg358
F1
sg359
I00
sba(imapping
Tile
p1649
(dp1650
g354
g355
sg356
VF_HalframpJoinR
p1651
sg358
F1
sg359
I00
sba(imapping
Tile
p1652
(dp1653
g354
g355
sg356
VF_Dirt
p1654
sg358
F1
sg359
I00
sba(imapping
Tile
p1655
(dp1656
g354
g355
sg356
VF_Dirt
p1657
sg358
F1
sg359
I00
sbaa(lp1658
NaNaNaNaNaNaNaNa(imapping
Tile
p1659
(dp1660
g354
g665
sg356
VF_Right_Halframp2
p1661
sg358
F1
sg359
I00
sba(imapping
Tile
p1662
(dp1663
g354
g355
sg356
VF_Dirt
p1664
sg358
F1
sg359
I00
sba(imapping
Tile
p1665
(dp1666
g354
g355
sg356
VF_Dirt
p1667
sg358
F1
sg359
I00
sba(imapping
Tile
p1668
(dp1669
g354
g355
sg356
VF_Dirt
p1670
sg358
F1
sg359
I00
sbaa(lp1671
NaNaNaNaNaNaNa(imapping
Tile
p1672
(dp1673
g354
g651
sg356
VF_Right_Halframp1
p1674
sg358
F1
sg359
I00
sba(imapping
Tile
p1675
(dp1676
g354
g355
sg356
VF_HalframpJoinR
p1677
sg358
F1
sg359
I00
sba(imapping
Tile
p1678
(dp1679
g354
g355
sg356
VF_Dirt
p1680
sg358
F1
sg359
I00
sba(imapping
Tile
p1681
(dp1682
g354
g355
sg356
VF_Dirt
p1683
sg358
F1
sg359
I00
sba(imapping
Tile
p1684
(dp1685
g354
g355
sg356
VF_Dirt
p1686
sg358
F1
sg359
I00
sbaa(lp1687
NaNaNaNaNaNaNa(imapping
Tile
p1688
(dp1689
g354
g665
sg356
VF_Right_Halframp2
p1690
sg358
F1
sg359
I00
sba(imapping
Tile
p1691
(dp1692
g354
g355
sg356
VF_Dirt
p1693
sg358
F1
sg359
I00
sba(imapping
Tile
p1694
(dp1695
g354
g355
sg356
VF_Dirt
p1696
sg358
F1
sg359
I00
sba(imapping
Tile
p1697
(dp1698
g354
g355
sg356
VF_Dirt
p1699
sg358
F1
sg359
I00
sba(imapping
Tile
p1700
(dp1701
g354
g355
sg356
VF_Dirt
p1702
sg358
F1
sg359
I00
sbaa(lp1703
NaNaNaNaNaNaNa(imapping
Tile
p1704
(dp1705
g354
g355
sg356
VF_Grass
p1706
sg358
F1
sg359
I00
sba(imapping
Tile
p1707
(dp1708
g354
g355
sg356
VF_Dirt
p1709
sg358
F1
sg359
I00
sba(imapping
Tile
p1710
(dp1711
g354
g355
sg356
VF_Dirt
p1712
sg358
F1
sg359
I00
sba(imapping
Tile
p1713
(dp1714
g354
g355
sg356
VF_Dirt
p1715
sg358
F1
sg359
I00
sba(imapping
Tile
p1716
(dp1717
g354
g355
sg356
VF_Dirt
p1718
sg358
F1
sg359
I00
sbaa(lp1719
NaNaNaNaNaNaNa(imapping
Tile
p1720
(dp1721
g354
g355
sg356
VF_Grass
p1722
sg358
F1
sg359
I00
sba(imapping
Tile
p1723
(dp1724
g354
g355
sg356
VF_Dirt
p1725
sg358
F1
sg359
I00
sba(imapping
Tile
p1726
(dp1727
g354
g355
sg356
VF_Dirt
p1728
sg358
F1
sg359
I00
sba(imapping
Tile
p1729
(dp1730
g354
g355
sg356
VF_Dirt
p1731
sg358
F1
sg359
I00
sba(imapping
Tile
p1732
(dp1733
g354
g355
sg356
VF_Dirt
p1734
sg358
F1
sg359
I00
sbaa(lp1735
NaNaNaNaNaNaNa(imapping
Tile
p1736
(dp1737
g354
g355
sg356
VF_Grass
p1738
sg358
F1
sg359
I00
sba(imapping
Tile
p1739
(dp1740
g354
g355
sg356
VF_Dirt
p1741
sg358
F1
sg359
I00
sba(imapping
Tile
p1742
(dp1743
g354
g355
sg356
VF_Dirt
p1744
sg358
F1
sg359
I00
sba(imapping
Tile
p1745
(dp1746
g354
g355
sg356
VF_Dirt
p1747
sg358
F1
sg359
I00
sba(imapping
Tile
p1748
(dp1749
g354
g355
sg356
VF_Dirt
p1750
sg358
F1
sg359
I00
sbaa(lp1751
NaNaNaNaNaNaNa(imapping
Tile
p1752
(dp1753
g354
g355
sg356
VF_Grass
p1754
sg358
F1
sg359
I00
sba(imapping
Tile
p1755
(dp1756
g354
g355
sg356
VF_Dirt
p1757
sg358
F1
sg359
I00
sba(imapping
Tile
p1758
(dp1759
g354
g355
sg356
VF_Dirt
p1760
sg358
F1
sg359
I00
sba(imapping
Tile
p1761
(dp1762
g354
g355
sg356
VF_Dirt
p1763
sg358
F1
sg359
I00
sba(imapping
Tile
p1764
(dp1765
g354
g355
sg356
VF_Dirt
p1766
sg358
F1
sg359
I00
sbaa(lp1767
NaNaNaNaNaNaNa(imapping
Tile
p1768
(dp1769
g354
g355
sg356
VF_Grass
p1770
sg358
F1
sg359
I00
sba(imapping
Tile
p1771
(dp1772
g354
g355
sg356
VF_Dirt
p1773
sg358
F1
sg359
I00
sba(imapping
Tile
p1774
(dp1775
g354
g355
sg356
VF_Dirt
p1776
sg358
F1
sg359
I00
sba(imapping
Tile
p1777
(dp1778
g354
g355
sg356
VF_Dirt
p1779
sg358
F1
sg359
I00
sba(imapping
Tile
p1780
(dp1781
g354
g355
sg356
VF_Dirt
p1782
sg358
F1
sg359
I00
sbaa(lp1783
NaNaNaNaNaNaNa(imapping
Tile
p1784
(dp1785
g354
g355
sg356
VF_Grass
p1786
sg358
F1
sg359
I00
sba(imapping
Tile
p1787
(dp1788
g354
g355
sg356
VF_Dirt
p1789
sg358
F1
sg359
I00
sba(imapping
Tile
p1790
(dp1791
g354
g355
sg356
VF_Dirt
p1792
sg358
F1
sg359
I00
sba(imapping
Tile
p1793
(dp1794
g354
g355
sg356
VF_Dirt
p1795
sg358
F1
sg359
I00
sba(imapping
Tile
p1796
(dp1797
g354
g355
sg356
VF_Dirt
p1798
sg358
F1
sg359
I00
sbaa(lp1799
NaNaNaNaNaNaNa(imapping
Tile
p1800
(dp1801
g354
g355
sg356
VF_Grass
p1802
sg358
F1
sg359
I00
sba(imapping
Tile
p1803
(dp1804
g354
g355
sg356
VF_Dirt
p1805
sg358
F1
sg359
I00
sba(imapping
Tile
p1806
(dp1807
g354
g355
sg356
VF_Dirt
p1808
sg358
F1
sg359
I00
sba(imapping
Tile
p1809
(dp1810
g354
g355
sg356
VF_Dirt
p1811
sg358
F1
sg359
I00
sba(imapping
Tile
p1812
(dp1813
g354
g355
sg356
VF_Dirt
p1814
sg358
F1
sg359
I00
sbaa(lp1815
NaNaNaNaNaNaNa(imapping
Tile
p1816
(dp1817
g354
g355
sg356
VF_Grass
p1818
sg358
F1
sg359
I00
sba(imapping
Tile
p1819
(dp1820
g354
g355
sg356
VF_Dirt
p1821
sg358
F1
sg359
I00
sba(imapping
Tile
p1822
(dp1823
g354
g355
sg356
VF_Dirt
p1824
sg358
F1
sg359
I00
sba(imapping
Tile
p1825
(dp1826
g354
g355
sg356
VF_Dirt
p1827
sg358
F1
sg359
I00
sba(imapping
Tile
p1828
(dp1829
g354
g355
sg356
VF_Dirt
p1830
sg358
F1
sg359
I00
sbaa(lp1831
NaNaNaNaNaNaNa(imapping
Tile
p1832
(dp1833
g354
g355
sg356
VF_Grass
p1834
sg358
F1
sg359
I00
sba(imapping
Tile
p1835
(dp1836
g354
g355
sg356
VF_Dirt
p1837
sg358
F1
sg359
I00
sba(imapping
Tile
p1838
(dp1839
g354
g355
sg356
VF_Dirt
p1840
sg358
F1
sg359
I00
sba(imapping
Tile
p1841
(dp1842
g354
g355
sg356
VF_Dirt
p1843
sg358
F1
sg359
I00
sba(imapping
Tile
p1844
(dp1845
g354
g355
sg356
VF_Dirt
p1846
sg358
F1
sg359
I00
sbaa(lp1847
NaNaNaNaNaNaNa(imapping
Tile
p1848
(dp1849
g354
g355
sg356
VF_Grass
p1850
sg358
F1
sg359
I00
sba(imapping
Tile
p1851
(dp1852
g354
g355
sg356
VF_Dirt
p1853
sg358
F1
sg359
I00
sba(imapping
Tile
p1854
(dp1855
g354
g355
sg356
VF_Dirt
p1856
sg358
F1
sg359
I00
sba(imapping
Tile
p1857
(dp1858
g354
g355
sg356
VF_Dirt
p1859
sg358
F1
sg359
I00
sba(imapping
Tile
p1860
(dp1861
g354
g355
sg356
VF_Dirt
p1862
sg358
F1
sg359
I00
sbaa(lp1863
NaNaNaNaNaNaNa(imapping
Tile
p1864
(dp1865
g354
g355
sg356
VF_Grass
p1866
sg358
F1
sg359
I00
sba(imapping
Tile
p1867
(dp1868
g354
g355
sg356
VF_Dirt
p1869
sg358
F1
sg359
I00
sba(imapping
Tile
p1870
(dp1871
g354
g355
sg356
VF_Dirt
p1872
sg358
F1
sg359
I00
sba(imapping
Tile
p1873
(dp1874
g354
g355
sg356
VF_Dirt
p1875
sg358
F1
sg359
I00
sba(imapping
Tile
p1876
(dp1877
g354
g355
sg356
VF_Dirt
p1878
sg358
F1
sg359
I00
sbaa(lp1879
NaNaNaNaNaNaNa(imapping
Tile
p1880
(dp1881
g354
g355
sg356
VF_Grass
p1882
sg358
F1
sg359
I00
sba(imapping
Tile
p1883
(dp1884
g354
g355
sg356
VF_Dirt
p1885
sg358
F1
sg359
I00
sba(imapping
Tile
p1886
(dp1887
g354
g355
sg356
VF_Dirt
p1888
sg358
F1
sg359
I00
sba(imapping
Tile
p1889
(dp1890
g354
g355
sg356
VF_Dirt
p1891
sg358
F1
sg359
I00
sba(imapping
Tile
p1892
(dp1893
g354
g355
sg356
VF_Dirt
p1894
sg358
F1
sg359
I00
sbaa(lp1895
NaNaNaNaNaNaNa(imapping
Tile
p1896
(dp1897
g354
g355
sg356
VF_Grass
p1898
sg358
F1
sg359
I00
sba(imapping
Tile
p1899
(dp1900
g354
g355
sg356
VF_Dirt
p1901
sg358
F1
sg359
I00
sba(imapping
Tile
p1902
(dp1903
g354
g355
sg356
VF_Dirt
p1904
sg358
F1
sg359
I00
sba(imapping
Tile
p1905
(dp1906
g354
g355
sg356
VF_Dirt
p1907
sg358
F1
sg359
I00
sba(imapping
Tile
p1908
(dp1909
g354
g355
sg356
VF_Dirt
p1910
sg358
F1
sg359
I00
sbaa(lp1911
NaNaNaNaNaNaNa(imapping
Tile
p1912
(dp1913
g354
g355
sg356
VF_Grass
p1914
sg358
F1
sg359
I00
sba(imapping
Tile
p1915
(dp1916
g354
g355
sg356
VF_Dirt
p1917
sg358
F1
sg359
I00
sba(imapping
Tile
p1918
(dp1919
g354
g355
sg356
VF_Dirt
p1920
sg358
F1
sg359
I00
sba(imapping
Tile
p1921
(dp1922
g354
g355
sg356
VF_Dirt
p1923
sg358
F1
sg359
I00
sba(imapping
Tile
p1924
(dp1925
g354
g355
sg356
VF_Dirt
p1926
sg358
F1
sg359
I00
sbaa(lp1927
NaNaNaNaNaNaNa(imapping
Tile
p1928
(dp1929
g354
g355
sg356
VF_Grass
p1930
sg358
F1
sg359
I00
sba(imapping
Tile
p1931
(dp1932
g354
g355
sg356
VF_Dirt
p1933
sg358
F1
sg359
I00
sba(imapping
Tile
p1934
(dp1935
g354
g355
sg356
VF_Dirt
p1936
sg358
F1
sg359
I00
sba(imapping
Tile
p1937
(dp1938
g354
g355
sg356
VF_Dirt
p1939
sg358
F1
sg359
I00
sba(imapping
Tile
p1940
(dp1941
g354
g355
sg356
VF_Dirt
p1942
sg358
F1
sg359
I00
sbaa(lp1943
NaNaNaNaNaNaNa(imapping
Tile
p1944
(dp1945
g354
g355
sg356
VF_Grass
p1946
sg358
F1
sg359
I00
sba(imapping
Tile
p1947
(dp1948
g354
g355
sg356
VF_Dirt
p1949
sg358
F1
sg359
I00
sba(imapping
Tile
p1950
(dp1951
g354
g355
sg356
VF_Dirt
p1952
sg358
F1
sg359
I00
sba(imapping
Tile
p1953
(dp1954
g354
g355
sg356
VF_Dirt
p1955
sg358
F1
sg359
I00
sba(imapping
Tile
p1956
(dp1957
g354
g355
sg356
VF_Dirt
p1958
sg358
F1
sg359
I00
sbaa(lp1959
NaNaNaNaNaNaNa(imapping
Tile
p1960
(dp1961
g354
g355
sg356
VF_Grass
p1962
sg358
F1
sg359
I00
sba(imapping
Tile
p1963
(dp1964
g354
g355
sg356
VF_Dirt
p1965
sg358
F1
sg359
I00
sba(imapping
Tile
p1966
(dp1967
g354
g355
sg356
VF_Dirt
p1968
sg358
F1
sg359
I00
sba(imapping
Tile
p1969
(dp1970
g354
g355
sg356
VF_Dirt
p1971
sg358
F1
sg359
I00
sba(imapping
Tile
p1972
(dp1973
g354
g355
sg356
VF_Dirt
p1974
sg358
F1
sg359
I00
sbaa(lp1975
NaNaNaNaNaNaNa(imapping
Tile
p1976
(dp1977
g354
g355
sg356
VF_Grass
p1978
sg358
F1
sg359
I00
sba(imapping
Tile
p1979
(dp1980
g354
g355
sg356
VF_Dirt
p1981
sg358
F1
sg359
I00
sba(imapping
Tile
p1982
(dp1983
g354
g355
sg356
VF_Dirt
p1984
sg358
F1
sg359
I00
sba(imapping
Tile
p1985
(dp1986
g354
g355
sg356
VF_Dirt
p1987
sg358
F1
sg359
I00
sba(imapping
Tile
p1988
(dp1989
g354
g355
sg356
VF_Dirt
p1990
sg358
F1
sg359
I00
sbaa(lp1991
NaNaNaNaNaNaNa(imapping
Tile
p1992
(dp1993
g354
g355
sg356
VF_Grass
p1994
sg358
F1
sg359
I00
sba(imapping
Tile
p1995
(dp1996
g354
g355
sg356
VF_Dirt
p1997
sg358
F1
sg359
I00
sba(imapping
Tile
p1998
(dp1999
g354
g355
sg356
VF_Dirt
p2000
sg358
F1
sg359
I00
sba(imapping
Tile
p2001
(dp2002
g354
g355
sg356
VF_Dirt
p2003
sg358
F1
sg359
I00
sba(imapping
Tile
p2004
(dp2005
g354
g355
sg356
VF_Dirt
p2006
sg358
F1
sg359
I00
sbaa(lp2007
NaNaNaNaNaNaNa(imapping
Tile
p2008
(dp2009
g354
g355
sg356
VF_Grass
p2010
sg358
F1
sg359
I00
sba(imapping
Tile
p2011
(dp2012
g354
g355
sg356
VF_Dirt
p2013
sg358
F1
sg359
I00
sba(imapping
Tile
p2014
(dp2015
g354
g355
sg356
VF_Dirt
p2016
sg358
F1
sg359
I00
sba(imapping
Tile
p2017
(dp2018
g354
g355
sg356
VF_Dirt
p2019
sg358
F1
sg359
I00
sba(imapping
Tile
p2020
(dp2021
g354
g355
sg356
VF_Dirt
p2022
sg358
F1
sg359
I00
sbaa(lp2023
NaNaNaNaNaNaNa(imapping
Tile
p2024
(dp2025
g354
g355
sg356
VF_Grass
p2026
sg358
F1
sg359
I00
sba(imapping
Tile
p2027
(dp2028
g354
g355
sg356
VF_Dirt
p2029
sg358
F1
sg359
I00
sba(imapping
Tile
p2030
(dp2031
g354
g355
sg356
VF_Dirt
p2032
sg358
F1
sg359
I00
sba(imapping
Tile
p2033
(dp2034
g354
g355
sg356
VF_Dirt
p2035
sg358
F1
sg359
I00
sba(imapping
Tile
p2036
(dp2037
g354
g355
sg356
VF_Dirt
p2038
sg358
F1
sg359
I00
sbaa(lp2039
NaNaNaNaNaNaNa(imapping
Tile
p2040
(dp2041
g354
g355
sg356
VF_Grass
p2042
sg358
F1
sg359
I00
sba(imapping
Tile
p2043
(dp2044
g354
g355
sg356
VF_Dirt
p2045
sg358
F1
sg359
I00
sba(imapping
Tile
p2046
(dp2047
g354
g355
sg356
VF_Dirt
p2048
sg358
F1
sg359
I00
sba(imapping
Tile
p2049
(dp2050
g354
g355
sg356
VF_Dirt
p2051
sg358
F1
sg359
I00
sba(imapping
Tile
p2052
(dp2053
g354
g355
sg356
VF_Dirt
p2054
sg358
F1
sg359
I00
sbaa(lp2055
NaNaNaNaNaNaNa(imapping
Tile
p2056
(dp2057
g354
g355
sg356
VF_Grass
p2058
sg358
F1
sg359
I00
sba(imapping
Tile
p2059
(dp2060
g354
g355
sg356
VF_Dirt
p2061
sg358
F1
sg359
I00
sba(imapping
Tile
p2062
(dp2063
g354
g355
sg356
VF_Dirt
p2064
sg358
F1
sg359
I00
sba(imapping
Tile
p2065
(dp2066
g354
g355
sg356
VF_Dirt
p2067
sg358
F1
sg359
I00
sba(imapping
Tile
p2068
(dp2069
g354
g355
sg356
VF_Dirt
p2070
sg358
F1
sg359
I00
sbaasS'bgmusic'
p2071
VSempridge2.ogg
p2072
sS'theme'
p2073
VForest
p2074
sS'endef'
p2075
(dp2076
VBoss_Radkelu
p2077
Vboss_radkelu
p2078
sVCSpider
p2079
Vcspider
p2080
sVSnowOgre
p2081
Vsnowogre
p2082
sVWasp
p2083
Vwasp
p2084
sVPoisPod
p2085
Vpoispod
p2086
sVSpider
p2087
Vspider
p2088
sVSnowBat
p2089
Vsnowbat
p2090
sVWorm
p2091
Vworm
p2092
sVGiantJelly
p2093
Vgiantjelly
p2094
sVPod
p2095
Vpod
p2096
sVGiantWorm
p2097
Vgiantworm
p2098
ssS'tiledef'
p2099
(dp2100
VS_bLRamp
p2101
Vsnow_blramp.png
p2102
sViC_Ice
p2103
Vcaveice.png
p2104
sVF_Dirt_R2
p2105
Vdirtr_edge2.png
p2106
sVF_Dirt_R1
p2107
Vdirtr_edge1.png
p2108
sVS_Railing_1
p2109
Vsnow_railing1.png
p2110
sVS_Railing_2
p2111
Vsnow_railing2.png
p2112
sVC_Suit of Armour
p2113
Vsuit_armour.png
p2114
sVS_UCleft
p2115
Vsnow_undercorner_left.png
p2116
sVF_Right_Halframp1
p2117
VR_HR1.png
p2118
sVF_Right_Halframp2
p2119
VR_HR2.png
p2120
sVF_GrassRedge
p2121
Vgrassr_edge.png
p2122
sVS_ECleft
p2123
Vsnow_edgecorner_left.png
p2124
sViC_wr2
p2125
Vcavewr2.png
p2126
sVF_Tuft1
p2127
Vtuft1.png
p2128
sVF_Tuft2
p2129
Vtuft2.png
p2130
sVS_Tree
p2131
Vsnow_tree.png
p2132
sVF_Grass
p2133
Vgrass.png
p2134
sVS_Railing_L
p2135
Vsnow_railing_left.png
p2136
sVC_Castle HRR
p2137
Vcstl_hr_r.png
p2138
sVS_RRamp
p2139
Vsnow_rramp.png
p2140
sVC_Castle HRL
p2141
Vcstl_hr_l.png
p2142
sVS_Pillar
p2143
Vsnow_pillar.png
p2144
sVS_Railing_R
p2145
Vsnow_railing_right.png
p2146
sVS_Tree2
p2147
Vsnow_tree2.png
p2148
sVS_Ground1
p2149
Vsnow_ground1.png
p2150
sVF_Stump
p2151
Vtreestump.png
p2152
sVC_Castle Ground 2
p2153
Vcstl_ground2.png
p2154
sVC_Castle Ground 3
p2155
Vcstl_ground3.png
p2156
sVC_Castle Ground 1
p2157
Vcstl_ground1.png
p2158
sVS_Snow2
p2159
Vsnow_snow2.png
p2160
sVF_Grass_Alt_5
p2161
Vgrassc5.png
p2162
sViC_jl
p2163
Vcavejl.png
p2164
sVS_bRRamp
p2165
Vsnow_brramp.png
p2166
sViC_TopL
p2167
Vcavetl.png
p2168
sViC_Floor 1
p2169
Vcavefloor1.png
p2170
sViC_Floor 3
p2171
Vcavefloor3.png
p2172
sViC_Floor 2
p2173
Vcavefloor2.png
p2174
sViC_TopR
p2175
Vcavetr.png
p2176
sViC_jr
p2177
Vcavejr.png
p2178
sVC_Castle Floor 2
p2179
Vcstl_floor2.png
p2180
sVS_Snow
p2181
Vsnow_snow.png
p2182
sVF_Grass_Alt_2
p2183
Vgrassc2.png
p2184
sVF_ExitSign
p2185
Vexitsign.png
p2186
sVF_Grass->Dirttop
p2187
Vgrassmdirt.png
p2188
sVS_UCright
p2189
Vsnow_undercorner_right.png
p2190
sVS_Pillartop
p2191
Vsnow_pillartop.png
p2192
sViC_wr
p2193
Vcavewr.png
p2194
sVF_Dirttop->Grass
p2195
Vdirtmgrass.png
p2196
sVS_ECright
p2197
Vsnow_edgecorner_right.png
p2198
sVC_Castle HRmL
p2199
Vcstl_hr_m_l.png
p2200
sVC_Castle Wall L
p2201
Vcstl_wleft.png
p2202
sVC_Castle Wall R
p2203
Vcstl_wright.png
p2204
sVC_Castle HRmR
p2205
Vcstl_hr_m_r.png
p2206
sVF_Ice
p2207
Vtile5.png
p2208
sViC_wl
p2209
Vcavewl.png
p2210
sVC_Castle Floor 4
p2211
Vcstl_floor4.png
p2212
sVF_Grass_Alt_4
p2213
Vgrassc4.png
p2214
sVF_Grass_Alt_1
p2215
Vgrassc1.png
p2216
sVC_Castle Floor 1
p2217
Vcstl_floor1.png
p2218
sVF_Grass_Alt_3
p2219
Vgrassc3.png
p2220
sVC_Castle Floor 3
p2221
Vcstl_floor3.png
p2222
sVS_edgewleft1
p2223
Vsnow_edgewall_left1.png
p2224
sVS_edgewleft2
p2225
Vsnow_edgewall_left2.png
p2226
sVS_UCJright
p2227
Vsnow_undercorner_join_right.png
p2228
sVS_LRamp
p2229
Vsnow_lramp.png
p2230
sVC_Castle Floor Edge R
p2231
Vcstl_floor_edge_right.png
p2232
sVF_Dirt_L1
p2233
Vdirtl_edge1.png
p2234
sVF_Dirt_L2
p2235
Vdirtl_edge2.png
p2236
sVC_Castle Floor Edge L
p2237
Vcstl_floor_edge_left.png
p2238
sVF_Left_Halframp2
p2239
VL_HR2.png
p2240
sVF_Left_Halframp1
p2241
VL_HR1.png
p2242
sVF_Shrooms2
p2243
Vshrooms2.png
p2244
sVF_Shrooms3
p2245
Vshrooms3.png
p2246
sVF_Shrooms1
p2247
Vshrooms1.png
p2248
sVF_RampJoinL
p2249
Vramp_mid_dirt_l.png
p2250
sVC_Castle Wall->Floor R
p2251
Vcstl_wfright.png
p2252
sVF_RampJoinR
p2253
Vramp_mid_dirt_r.png
p2254
sVF_GrassLedge
p2255
Vgrassl_edge.png
p2256
sVS_Stones
p2257
Vsnow_stones.png
p2258
sVS_edgeright
p2259
Vsnow_edge_right.png
p2260
sVS_edgewright2
p2261
Vsnow_edgewall_right2.png
p2262
sVS_edgewright1
p2263
Vsnow_edgewall_right1.png
p2264
sVF_Dirtb
p2265
Vdirtb.png
p2266
sVF_Right_Ramp
p2267
VR_R.png
p2268
sVF_HalframpJoinL
p2269
Vhalframp_mid_dirt_l.png
p2270
sVF_Dirt_BL
p2271
Vdirtl_bedge.png
p2272
sVF_HalframpJoinR
p2273
Vhalframp_mid_dirt_r.png
p2274
sVF_Dirt_BR
p2275
Vdirtr_bedge.png
p2276
sVF_Dirtb2
p2277
Vdirtb2.png
p2278
sVF_Left_Ramp
p2279
VL_R.png
p2280
sVC_Castle Wall->Floor L
p2281
Vcstl_wfleft.png
p2282
sVS_UCJleft
p2283
Vsnow_undercorner_join_left.png
p2284
sVF_Dirt
p2285
Vdirt.png
p2286
sVF_Grass->DirtL
p2287
Vgrass_dirt_l.png
p2288
sVS_edgeleft
p2289
Vsnow_edge_left.png
p2290
sVF_Dirttop
p2291
Vdirttop.png
p2292
sVF_Dirt_Alt_4
p2293
Vdirtc4.png
p2294
sVF_Dirt_Alt_3
p2295
Vdirtc3.png
p2296
sVF_Dirt_Alt_2
p2297
Vdirtc2.png
p2298
sVF_Dirt_Alt_1
p2299
Vdirtc1.png
p2300
sVF_Grass->DirtR
p2301
Vgrass_dirt_r.png
p2302
sViC_wl2
p2303
Vcavewl2.png
p2304
ssb.