(imapping
Map
p1
(dp2
S'enemy'
p3
(lp4
(lp5
NaNaNaNaNaNaNaNaNaNaNaNaa(lp6
NaNaNaNaNaNaNaNaNaNaNaNaa(lp7
NaNaNaNaNaNaNaNaNaNaNaNaa(lp8
NaNaNaNaNaNaNaNaNaNaNaNaa(lp9
NaNaNaNaNaNaNaNaNaNaNaNaa(lp10
NaNaNaNaNaNaNaNaNaNaNaNaa(lp11
NaNaNaNaNaNaNaNaVSpider
p12
aNaNaNaa(lp13
NaNaNaNaNaNaNaNaNaNaNaNaa(lp14
NaNaNaNaNaNaNaNaNaNaNaNaa(lp15
NaNaNaNaNaNaNaNaNaVPod
p16
aNaNaa(lp17
NaNaNaNaNaNaNaNaNaNaNaNaa(lp18
NaNaNaNaNaNaNaNaVWasp
p19
aNaNaNaa(lp20
NaNaNaNaNaNaNaNaNaNaNaNaa(lp21
NaNaNaNaNaNaNaNaNaNaNaNaa(lp22
NaNaNaNaNaNaNaNaNaNaNaNaa(lp23
NaNaNaNaNaNaNaVSpider
p24
aNaNaNaNaa(lp25
NaNaNaNaNaNaNaNaNaNaNaNaa(lp26
NaNaNaNaNaNaNaVSpider
p27
aNaNaNaNaa(lp28
NaNaNaNaNaNaNaNaNaNaNaNaa(lp29
NaNaNaNaNaNaNaNaNaNaNaNaa(lp30
NaNaNaNaNaNaNaNaNaNaNaNaa(lp31
NaNaNaNaNaNaNaNaNaNaNaNaa(lp32
NaNaNaNaNaNaNaNaNaNaNaNaa(lp33
NaNaVPod
p34
aNaNaNaNaNaNaNaNaNaa(lp35
NaNaNaNaNaNaNaNaNaNaNaNaa(lp36
NaNaNaNaNaNaNaNaNaNaNaNaa(lp37
NaNaNaNaNaNaNaNaNaNaNaNaa(lp38
NaNaNaNaNaNaNaNaNaNaNaNaa(lp39
NaNaNaNaNaNaNaNaNaNaVPod
p40
aNaa(lp41
NaNaNaNaNaNaNaNaNaNaNaNaa(lp42
NaNaNaNaNaNaNaNaNaNaNaNaa(lp43
NaNaNaNaNaNaNaNaNaNaNaNaa(lp44
NaNaNaNaNaNaNaNaNaVWasp
p45
aNaNaa(lp46
NaNaNaNaVPod
p47
aNaNaNaNaNaNaNaa(lp48
NaNaNaNaVPod
p49
aNaNaNaNaNaNaNaa(lp50
NaNaNaNaNaNaNaNaNaNaNaNaa(lp51
NaNaNaNaNaNaNaVWasp
p52
aNaNaNaNaa(lp53
NaNaNaNaNaNaNaNaNaNaNaNaa(lp54
NaNaNaNaNaNaNaNaNaNaNaNaa(lp55
NaNaNaNaNaVWorm
p56
aNaNaNaNaNaNaa(lp57
NaNaNaNaNaNaNaNaNaNaNaNaa(lp58
NaNaNaNaNaNaNaNaNaNaNaNaa(lp59
NaNaNaNaNaNaNaNaNaNaNaNaa(lp60
NaNaNaNaVSpider
p61
aNaNaNaNaNaNaNaa(lp62
NaNaNaNaNaNaNaNaNaNaNaNaa(lp63
NaNaNaNaNaNaNaNaNaNaNaNaa(lp64
NaNaNaNaNaNaNaNaNaNaNaNaa(lp65
NaNaNaNaNaVPod
p66
aNaNaNaNaNaNaa(lp67
NaNaNaNaVSpider
p68
aNaNaNaNaNaNaNaa(lp69
NaNaNaNaNaNaNaNaNaNaNaNaa(lp70
NaNaNaNaNaNaNaNaNaNaNaNaa(lp71
NaNaNaNaNaNaNaNaNaNaVPod
p72
aNaa(lp73
NaNaNaNaNaNaNaNaNaNaNaNaa(lp74
NaNaNaNaNaNaNaNaVSpider
p75
aNaNaNaa(lp76
NaNaNaNaNaNaNaNaNaNaNaNaa(lp77
NaNaNaNaNaNaNaNaNaNaNaNaa(lp78
NaNaNaNaNaNaNaNaNaNaNaNaa(lp79
NaNaNaNaNaNaNaNaVWorm
p80
aNaNaNaa(lp81
NaNaNaNaNaNaNaNaNaNaNaNaa(lp82
NaNaNaNaNaNaNaNaNaNaNaNaa(lp83
NaNaNaNaNaNaNaNaNaNaNaNaa(lp84
NaNaNaNaNaNaNaNaNaNaNaNaa(lp85
NaNaNaNaNaNaVWorm
p86
aNaNaNaNaNaa(lp87
NaNaNaNaNaNaNaNaNaNaNaNaa(lp88
NaNaNaNaNaNaNaNaNaNaNaNaa(lp89
NaNaNaNaNaNaNaNaNaNaNaNaa(lp90
NaNaNaNaNaNaNaNaNaNaNaNaa(lp91
NaNaNaNaNaNaNaNaNaNaNaNaa(lp92
NaNaNaNaNaVWasp
p93
aNaNaNaNaNaNaa(lp94
NaNaNaNaNaNaNaNaNaNaNaNaa(lp95
NaNaNaNaNaNaNaNaNaNaNaNaa(lp96
NaNaNaNaNaNaNaNaNaNaVPod
p97
aNaa(lp98
NaNaNaNaNaNaNaNaNaNaNaNaa(lp99
NaNaNaNaNaNaNaNaNaNaNaNaa(lp100
NaNaNaNaNaNaNaNaNaNaVWorm
p101
aNaa(lp102
NaNaNaNaNaNaNaNaNaNaNaNaa(lp103
NaNaNaNaNaNaNaNaNaNaNaNaa(lp104
NaNaNaNaNaNaNaNaNaNaNaNaa(lp105
NaNaNaNaNaNaNaNaNaNaNaNaa(lp106
NaNaNaNaNaNaNaNaNaNaNaNaa(lp107
NaNaNaNaNaNaNaNaNaNaNaNaa(lp108
NaNaNaNaNaNaNaNaNaNaVPod
p109
aNaa(lp110
NaNaNaNaNaNaNaNaNaNaNaNaa(lp111
NaNaNaNaNaNaNaNaNaNaVWasp
p112
aNaa(lp113
NaNaNaNaNaNaNaNaNaNaNaNaa(lp114
NaNaNaNaNaNaNaNaNaNaNaNaa(lp115
NaNaNaNaNaNaNaNaNaNaNaNaa(lp116
NaNaNaNaNaNaNaNaNaNaNaNaa(lp117
NaNaNaNaNaNaNaNaNaNaNaNaa(lp118
NaNaNaNaNaNaNaNaNaNaNaNaa(lp119
NaNaNaNaNaNaNaNaNaNaNaNaa(lp120
NaNaNaNaNaNaNaNaNaNaNaNaa(lp121
NaNaNaNaNaNaNaNaNaNaNaNaa(lp122
NaNaNaNaNaNaNaNaNaNaNaNaa(lp123
NaNaNaNaNaNaNaNaNaNaNaNaa(lp124
NaNaNaNaNaNaNaNaNaNaNaNaa(lp125
NaNaNaNaNaNaNaNaNaNaNaNaa(lp126
NaNaNaNaNaNaNaNaNaNaNaNaa(lp127
NaNaNaNaNaNaNaNaNaNaNaNaa(lp128
NaNaNaNaNaNaNaNaNaNaNaNaa(lp129
NaNaNaNaNaNaNaNaNaNaNaNaa(lp130
NaNaNaNaNaNaNaNaNaNaNaNaa(lp131
NaNaNaNaNaNaNaNaNaNaNaNaa(lp132
NaNaNaNaNaNaNaNaNaNaNaNaa(lp133
NaNaNaNaNaNaNaNaNaNaNaNaa(lp134
NaNaNaNaNaNaNaNaNaNaNaNaa(lp135
NaNaNaNaNaNaNaNaNaNaNaNaa(lp136
NaNaNaNaNaNaNaNaNaNaNaNaa(lp137
NaNaNaNaNaNaNaNaNaNaNaNaa(lp138
NaNaNaNaNaNaNaNaNaNaNaNaa(lp139
NaNaNaNaNaNaNaNaNaNaNaNaa(lp140
NaNaNaNaNaNaNaNaNaNaNaNaa(lp141
NaNaNaNaNaNaNaNaNaNaNaNaa(lp142
NaNaNaNaNaNaNaNaNaNaNaNaa(lp143
NaNaNaNaNaNaNaNaNaNaNaNaa(lp144
NaNaNaNaNaNaNaNaNaNaNaNaa(lp145
NaNaNaNaNaNaNaNaNaNaNaNaa(lp146
NaNaNaNaNaNaNaNaNaNaNaNaa(lp147
NaNaNaNaNaNaNaNaNaNaNaNaa(lp148
NaNaNaNaNaNaNaNaNaNaNaNaa(lp149
NaNaNaNaNaNaNaNaNaNaNaNaa(lp150
NaNaNaNaNaNaNaNaNaNaNaNaa(lp151
NaNaNaNaNaNaNaNaNaNaNaNaa(lp152
NaNaNaNaNaNaNaNaNaNaNaNaa(lp153
NaNaNaNaNaNaNaNaNaNaNaNaa(lp154
NaNaNaNaNaNaNaNaNaNaNaNaa(lp155
NaNaNaNaNaNaNaNaNaNaNaNaa(lp156
NaNaNaNaNaNaNaNaNaNaNaNaasS'objdef'
p157
(dp158
VButterfly
p159
VButterfly.png
p160
sVLevel_End
p161
VEnd.png
p162
sVShield
p163
VShield.png
p164
sVPlayer_Start
p165
VStart.png
p166
sVLever_Snow
p167
VLever1.png
p168
sVTorchref
p169
VTorchref.png
p170
sVWalltorch
p171
VWalltorch.png
p172
sVFirepit
p173
VPit.png
p174
sVSign
p175
VSign.png
p176
sVButterflyC
p177
VButterflyC.png
p178
sVButterflyB
p179
VButterflyB.png
p180
sVSword
p181
VSword.png
p182
sVTreasureBoxC
p183
VTreasureC_Closed.png
p184
sVTreasureBoxB
p185
VTreasureB_Closed.png
p186
sVTreasureBox
p187
VTreasure_Closed.png
p188
sVFallingRock
p189
VRock.png
p190
sVObelisk_Snow
p191
VObelisk_Snow.png
p192
ssS'obj'
p193
(lp194
(lp195
NaNaNaNaNaNaNaNaNaNaNaNaa(lp196
NaNaNaNaNaNaNaNaNaNaNaNaa(lp197
NaNaNaNaNaNaNaNaNaVPlayer_Start
p198
aNaNaa(lp199
NaNaNaNaNaNaNaVButterfly
p200
aNaNaNaNaa(lp201
NaNaNaNaNaNaNaNaVButterflyC
p202
aNaNaNaa(lp203
NaNaNaNaNaNaNaNaNaNaNaNaa(lp204
NaNaNaNaNaNaNaNaNaNaNaNaa(lp205
NaNaNaNaNaNaNaNaNaNaNaNaa(lp206
NaNaNaNaNaNaNaNaNaNaNaNaa(lp207
NaNaNaNaNaNaNaNaNaNaNaNaa(lp208
NaNaNaNaNaNaNaNaNaNaNaNaa(lp209
NaNaNaNaNaNaNaNaNaNaNaNaa(lp210
NaNaNaNaNaNaNaNaNaNaNaNaa(lp211
NaNaNaNaNaNaNaNaNaNaNaNaa(lp212
NaNaNaNaNaNaNaNaNaNaNaNaa(lp213
NaNaNaNaNaVButterflyC
p214
aNaNaNaNaNaNaa(lp215
NaNaNaNaNaNaNaNaNaNaNaNaa(lp216
NaNaNaNaNaNaNaNaNaNaNaNaa(lp217
NaNaNaNaNaVButterflyB
p218
aNaNaNaNaNaNaa(lp219
NaNaNaNaNaNaNaNaNaNaNaNaa(lp220
NaNaNaNaNaNaNaNaNaNaNaNaa(lp221
NaNaNaNaNaNaNaNaNaNaNaNaa(lp222
NaNaNaNaNaNaNaNaNaNaNaNaa(lp223
NaNaNaNaNaNaNaNaNaNaNaNaa(lp224
NaNaNaNaNaNaNaNaNaNaNaNaa(lp225
NaNaNaNaNaNaNaNaNaNaNaNaa(lp226
NaNaNaNaNaNaNaNaNaVButterfly
p227
aNaNaa(lp228
NaNaNaNaNaNaNaNaNaNaNaNaa(lp229
NaNaNaNaNaNaNaNaNaNaNaNaa(lp230
NaNaNaNaVTreasureBox
p231
aNaNaNaNaNaNaNaa(lp232
NaNaNaNaNaNaNaNaNaNaNaNaa(lp233
NaNaVButterflyC
p234
aNaNaNaNaNaNaNaNaNaa(lp235
NaNaNaNaNaNaNaNaNaNaNaNaa(lp236
NaNaNaNaNaNaNaNaNaNaNaNaa(lp237
NaNaNaNaNaNaNaNaNaNaNaNaa(lp238
NaNaNaNaNaNaNaNaVButterfly
p239
aNaNaNaa(lp240
NaNaNaNaNaNaNaNaNaNaNaNaa(lp241
NaNaNaNaNaNaNaNaNaNaNaNaa(lp242
NaNaNaNaNaNaNaNaNaNaNaNaa(lp243
NaNaNaNaNaNaNaNaNaNaNaNaa(lp244
NaNaNaVButterfly
p245
aNaNaNaNaNaNaNaNaa(lp246
NaNaNaNaNaNaNaNaNaNaNaNaa(lp247
NaNaNaNaNaNaNaNaNaNaNaNaa(lp248
NaNaNaNaNaNaNaNaNaNaNaNaa(lp249
NaNaNaNaVButterflyB
p250
aNaNaNaNaNaNaNaa(lp251
NaNaNaNaNaNaNaNaNaNaNaNaa(lp252
NaNaNaNaVButterfly
p253
aNaNaNaNaNaNaNaa(lp254
NaNaNaNaNaNaNaNaNaNaNaNaa(lp255
NaNaVButterflyB
p256
aNaNaNaNaNaNaNaNaNaa(lp257
NaNaNaNaNaNaNaNaNaNaNaNaa(lp258
NaNaNaNaNaNaNaNaNaNaNaNaa(lp259
NaNaNaNaNaNaNaNaVButterflyC
p260
aNaNaNaa(lp261
NaNaNaNaNaNaNaNaNaNaNaNaa(lp262
NaNaNaNaNaNaNaNaNaNaNaNaa(lp263
NaNaNaNaNaNaNaVButterflyC
p264
aNaNaNaNaa(lp265
NaNaNaNaNaNaNaVButterflyB
p266
aNaNaNaNaa(lp267
NaNaNaNaNaNaNaNaNaNaNaNaa(lp268
NaNaNaNaNaNaNaNaNaNaNaNaa(lp269
NaNaNaNaVButterflyC
p270
aNaNaNaNaNaNaNaa(lp271
NaNaNaNaNaNaNaNaNaNaNaNaa(lp272
NaNaNaNaNaNaVButterfly
p273
aNaNaNaNaNaa(lp274
NaNaNaNaNaNaNaNaNaNaNaNaa(lp275
NaNaNaNaNaNaNaNaNaNaNaNaa(lp276
NaNaNaNaNaNaNaNaNaNaNaNaa(lp277
NaNaNaNaNaNaNaNaNaNaNaNaa(lp278
NaNaNaVButterfly
p279
aNaNaNaNaNaNaNaNaa(lp280
NaNaNaVButterfly
p281
aNaNaNaNaNaNaNaNaa(lp282
NaNaNaNaNaNaNaNaNaNaNaNaa(lp283
NaNaNaNaNaNaNaNaNaNaNaNaa(lp284
NaNaNaNaVButterfly
p285
aNaNaNaNaNaNaNaa(lp286
NaNaNaVTreasureBox
p287
aNaNaNaNaNaNaNaNaa(lp288
NaNaNaNaNaNaNaNaNaVButterfly
p289
aNaNaa(lp290
NaNaNaNaNaNaNaNaNaNaNaNaa(lp291
NaNaNaNaNaNaNaNaNaVButterflyC
p292
aNaNaa(lp293
NaNaNaNaNaNaNaNaNaNaNaNaa(lp294
NaNaNaNaNaNaNaNaNaNaNaNaa(lp295
NaNaNaNaNaNaNaNaNaNaNaNaa(lp296
NaNaNaNaNaNaNaNaNaNaNaNaa(lp297
NaNaNaNaNaNaNaNaNaVButterflyC
p298
aNaNaa(lp299
NaNaNaNaNaNaNaNaNaNaNaNaa(lp300
NaNaNaNaNaNaNaNaVButterflyB
p301
aNaVButterflyB
p302
aNaa(lp303
NaNaNaNaNaNaNaNaNaNaNaNaa(lp304
NaNaNaNaNaNaNaNaNaNaNaNaa(lp305
NaNaNaNaNaNaNaNaNaNaNaNaa(lp306
NaNaNaNaNaNaNaNaNaVButterflyC
p307
aNaNaa(lp308
NaNaNaNaNaNaNaNaNaNaNaNaa(lp309
NaNaNaVButterfly
p310
aNaNaNaNaNaVButterfly
p311
aNaNaa(lp312
NaNaNaNaNaNaNaNaNaNaNaNaa(lp313
NaNaNaNaNaNaNaVButterflyB
p314
aNaNaNaNaa(lp315
NaNaNaNaNaVButterflyC
p316
aNaNaNaNaNaNaa(lp317
NaNaNaNaNaNaNaNaNaNaNaNaa(lp318
NaNaNaNaNaNaNaNaNaNaVLevel_End
p319
aNaa(lp320
NaNaNaNaNaNaNaNaNaNaNaNaa(lp321
NaNaNaNaNaNaNaNaNaNaNaNaa(lp322
NaNaNaNaNaNaNaNaNaNaNaNaa(lp323
NaNaNaNaNaNaNaNaNaNaNaNaa(lp324
NaNaNaNaNaNaNaNaNaNaNaNaa(lp325
NaNaNaNaNaNaNaNaNaNaNaNaa(lp326
NaNaNaNaNaNaNaNaNaNaNaNaa(lp327
NaNaNaNaNaNaNaNaNaNaNaNaa(lp328
NaNaNaNaNaNaNaNaNaNaNaNaa(lp329
NaNaNaNaNaNaNaNaNaNaNaNaa(lp330
NaNaNaNaNaNaNaNaNaNaNaNaa(lp331
NaNaNaNaNaNaNaNaNaNaNaNaa(lp332
NaNaNaNaNaNaNaNaNaNaNaNaa(lp333
NaNaNaNaNaNaNaNaNaNaNaNaa(lp334
NaNaNaNaNaNaNaNaNaNaNaNaa(lp335
NaNaNaNaNaNaNaNaNaNaNaNaa(lp336
NaNaNaNaNaNaNaNaNaNaNaNaa(lp337
NaNaNaNaNaNaNaNaNaNaNaNaa(lp338
NaNaNaNaNaNaNaNaNaNaNaNaa(lp339
NaNaNaNaNaNaNaNaNaNaNaNaa(lp340
NaNaNaNaNaNaNaNaNaNaNaNaa(lp341
NaNaNaNaNaNaNaNaNaNaNaNaa(lp342
NaNaNaNaNaNaNaNaNaNaNaNaa(lp343
NaNaNaNaNaNaNaNaNaNaNaNaa(lp344
NaNaNaNaNaNaNaNaNaNaNaNaa(lp345
NaNaNaNaNaNaNaNaNaNaNaNaa(lp346
NaNaNaNaNaNaNaNaNaNaNaNaa(lp347
NaNaNaNaNaNaNaNaNaNaNaNaa(lp348
NaNaNaNaNaNaNaNaNaNaNaNaa(lp349
NaNaNaNaNaNaNaNaNaNaNaNaa(lp350
NaNaNaNaNaNaNaNaNaNaNaNaa(lp351
NaNaNaNaNaNaNaNaNaNaNaNaa(lp352
NaNaNaNaNaNaNaNaNaNaNaNaa(lp353
NaNaNaNaNaNaNaNaNaNaNaNaa(lp354
NaNaNaNaNaNaNaNaNaNaNaNaa(lp355
NaNaNaNaNaNaNaNaNaNaNaNaasS'name'
p356
Vent3
p357
sS'map'
p358
(lp359
(lp360
NaNaNaNaNaNaNaNaNaNaNaNaa(lp361
NaNaNaNaNaNaNaNaNaNa(imapping
Tile
p362
(dp363
S'collidetype'
p364
S'BOX'
p365
sS'type'
p366
VF_GrassLedge
p367
sS'friction'
p368
F1
sS'overhead'
p369
I00
sba(imapping
Tile
p370
(dp371
g364
g365
sg366
VF_Dirt_L2
p372
sg368
F1
sg369
I00
sbaa(lp373
NaNaNaNaNaNaNaNaNaNa(imapping
Tile
p374
(dp375
g364
g365
sg366
VF_Grass_Alt_1
p376
sg368
F1
sg369
I00
sba(imapping
Tile
p377
(dp378
g364
g365
sg366
VF_Dirt
p379
sg368
F1
sg369
I00
sbaa(lp380
NaNaNaNaNaNaNaNaNaNa(imapping
Tile
p381
(dp382
g364
g365
sg366
VF_Grass
p383
sg368
F1
sg369
I00
sba(imapping
Tile
p384
(dp385
g364
g365
sg366
VF_Dirt
p386
sg368
F1
sg369
I00
sbaa(lp387
NaNaNaNaNaNaNaNaNa(imapping
Tile
p388
(dp389
g364
S'NONE_R'
p390
sg366
VF_Shrooms1
p391
sg368
F1
sg369
I00
sba(imapping
Tile
p392
(dp393
g364
g365
sg366
VF_Grass
p394
sg368
F1
sg369
I00
sba(imapping
Tile
p395
(dp396
g364
g365
sg366
VF_Dirt_Alt_4
p397
sg368
F1
sg369
I00
sbaa(lp398
NaNaNaNaNaNaNaNaNa(imapping
Tile
p399
(dp400
g364
S'NONE'
p401
sg366
VF_Shrooms2
p402
sg368
F1
sg369
I00
sba(imapping
Tile
p403
(dp404
g364
g365
sg366
VF_Grass
p405
sg368
F1
sg369
I00
sba(imapping
Tile
p406
(dp407
g364
g365
sg366
VF_Dirt
p408
sg368
F1
sg369
I00
sbaa(lp409
NaNaNaNaNaNaNaNaNaNa(imapping
Tile
p410
(dp411
g364
g365
sg366
VF_Grass_Alt_1
p412
sg368
F1
sg369
I00
sba(imapping
Tile
p413
(dp414
g364
g365
sg366
VF_Dirt_Alt_3
p415
sg368
F1
sg369
I00
sbaa(lp416
NaNaNaNaNaNaNaNaNaNa(imapping
Tile
p417
(dp418
g364
g365
sg366
VF_Grass
p419
sg368
F1
sg369
I00
sba(imapping
Tile
p420
(dp421
g364
g365
sg366
VF_Dirt_Alt_2
p422
sg368
F1
sg369
I00
sbaa(lp423
NaNaNaNaNaNaNaNaNa(imapping
Tile
p424
(dp425
g364
g390
sg366
VF_Stump
p426
sg368
F1
sg369
I00
sba(imapping
Tile
p427
(dp428
g364
g365
sg366
VF_Grass_Alt_1
p429
sg368
F1
sg369
I00
sba(imapping
Tile
p430
(dp431
g364
g365
sg366
VF_Dirt
p432
sg368
F1
sg369
I00
sbaa(lp433
NaNaNaNaNaNaNaNaNaNa(imapping
Tile
p434
(dp435
g364
g365
sg366
VF_Grass_Alt_2
p436
sg368
F1
sg369
I00
sba(imapping
Tile
p437
(dp438
g364
g365
sg366
VF_Dirt_Alt_4
p439
sg368
F1
sg369
I00
sbaa(lp440
NaNaNaNaNaNaNaNaNaNa(imapping
Tile
p441
(dp442
g364
g365
sg366
VF_Grass_Alt_1
p443
sg368
F1
sg369
I00
sba(imapping
Tile
p444
(dp445
g364
g365
sg366
VF_Dirt
p446
sg368
F1
sg369
I00
sbaa(lp447
NaNaNaNaNaNaNaNaNaNa(imapping
Tile
p448
(dp449
g364
g365
sg366
VF_GrassRedge
p450
sg368
F1
sg369
I00
sba(imapping
Tile
p451
(dp452
g364
g365
sg366
VF_Dirt_R2
p453
sg368
F1
sg369
I00
sbaa(lp454
NaNaNaNaNaNaNaNaNaNaNaNaa(lp455
NaNaNaNaNaNaNaNa(imapping
Tile
p456
(dp457
g364
g401
sg366
VF_Tuft1
p458
sg368
F1
sg369
I00
sba(imapping
Tile
p459
(dp460
g364
g365
sg366
VF_GrassLedge
p461
sg368
F1
sg369
I00
sba(imapping
Tile
p462
(dp463
g364
g365
sg366
VF_Dirt_L2
p464
sg368
F1
sg369
I00
sba(imapping
Tile
p465
(dp466
g364
g365
sg366
VF_Dirt_L1
p467
sg368
F1
sg369
I00
sbaa(lp468
NaNaNaNaNaNaNaNa(imapping
Tile
p469
(dp470
g364
g390
sg366
VF_Shrooms1
p471
sg368
F1
sg369
I00
sba(imapping
Tile
p472
(dp473
g364
g365
sg366
VF_Grass
p474
sg368
F1
sg369
I00
sba(imapping
Tile
p475
(dp476
g364
g365
sg366
VF_Dirt
p477
sg368
F1
sg369
I00
sba(imapping
Tile
p478
(dp479
g364
g365
sg366
VF_Dirt
p480
sg368
F1
sg369
I00
sbaa(lp481
NaNaNaNaNaNaNaNaNa(imapping
Tile
p482
(dp483
g364
S'LEFT_HINCLINATION2'
p484
sg366
VF_Left_Halframp2
p485
sg368
F1
sg369
I00
sba(imapping
Tile
p486
(dp487
g364
g365
sg366
VF_Dirt
p488
sg368
F1
sg369
I00
sba(imapping
Tile
p489
(dp490
g364
g365
sg366
VF_Dirt
p491
sg368
F1
sg369
I00
sbaa(lp492
NaNaNaNaNaNaNaNaNa(imapping
Tile
p493
(dp494
g364
S'LEFT_HINCLINATION1'
p495
sg366
VF_Left_Halframp1
p496
sg368
F1
sg369
I00
sba(imapping
Tile
p497
(dp498
g364
g365
sg366
VF_HalframpJoinL
p499
sg368
F1
sg369
I00
sba(imapping
Tile
p500
(dp501
g364
g365
sg366
VF_Dirt
p502
sg368
F1
sg369
I00
sbaa(lp503
NaNaNaNaNaNaNaNaNa(imapping
Tile
p504
(dp505
g364
S'RIGHT_INCLINATION'
p506
sg366
VF_Right_Ramp
p507
sg368
F1
sg369
I00
sba(imapping
Tile
p508
(dp509
g364
g365
sg366
VF_RampJoinR
p510
sg368
F1
sg369
I00
sba(imapping
Tile
p511
(dp512
g364
g365
sg366
VF_Dirt
p513
sg368
F1
sg369
I00
sbaa(lp514
NaNaNaNaNaNaNaNa(imapping
Tile
p515
(dp516
g364
g506
sg366
VF_Right_Ramp
p517
sg368
F1
sg369
I00
sba(imapping
Tile
p518
(dp519
g364
g365
sg366
VF_RampJoinR
p520
sg368
F1
sg369
I00
sba(imapping
Tile
p521
(dp522
g364
g365
sg366
VF_Dirt
p523
sg368
F1
sg369
I00
sba(imapping
Tile
p524
(dp525
g364
g365
sg366
VF_Dirt
p526
sg368
F1
sg369
I00
sbaa(lp527
NaNaNaNaNaNaNa(imapping
Tile
p528
(dp529
g364
g506
sg366
VF_Right_Ramp
p530
sg368
F1
sg369
I00
sba(imapping
Tile
p531
(dp532
g364
g365
sg366
VF_RampJoinR
p533
sg368
F1
sg369
I00
sba(imapping
Tile
p534
(dp535
g364
g365
sg366
VF_Dirt
p536
sg368
F1
sg369
I00
sba(imapping
Tile
p537
(dp538
g364
g365
sg366
VF_Dirt
p539
sg368
F1
sg369
I00
sba(imapping
Tile
p540
(dp541
g364
g365
sg366
VF_Dirt
p542
sg368
F1
sg369
I00
sbaa(lp543
NaNaNaNaNaNa(imapping
Tile
p544
(dp545
g364
g401
sg366
VF_Tuft2
p546
sg368
F1
sg369
I00
sba(imapping
Tile
p547
(dp548
g364
g365
sg366
VF_Grass
p549
sg368
F1
sg369
I00
sba(imapping
Tile
p550
(dp551
g364
g365
sg366
VF_Dirt
p552
sg368
F1
sg369
I00
sba(imapping
Tile
p553
(dp554
g364
g365
sg366
VF_Dirt
p555
sg368
F1
sg369
I00
sba(imapping
Tile
p556
(dp557
g364
g365
sg366
VF_Dirt_Alt_3
p558
sg368
F1
sg369
I00
sba(imapping
Tile
p559
(dp560
g364
g365
sg366
VF_Dirt_Alt_3
p561
sg368
F1
sg369
I00
sbaa(lp562
NaNaNaNaNa(imapping
Tile
p563
(dp564
g364
g365
sg366
VF_GrassLedge
p565
sg368
F1
sg369
I00
sba(imapping
Tile
p566
(dp567
g364
g365
sg366
VF_Dirt_L2
p568
sg368
F1
sg369
I00
sba(imapping
Tile
p569
(dp570
g364
g365
sg366
VF_Grass->DirtL
p571
sg368
F1
sg369
I00
sba(imapping
Tile
p572
(dp573
g364
g365
sg366
VF_Dirt
p574
sg368
F1
sg369
I00
sba(imapping
Tile
p575
(dp576
g364
g365
sg366
VF_Dirt
p577
sg368
F1
sg369
I00
sba(imapping
Tile
p578
(dp579
g364
g365
sg366
VF_Dirt
p580
sg368
F1
sg369
I00
sba(imapping
Tile
p581
(dp582
g364
g365
sg366
VF_Dirt_Alt_3
p583
sg368
F1
sg369
I00
sbaa(lp584
NaNaNa(imapping
Tile
p585
(dp586
g364
g365
sg366
VF_GrassLedge
p587
sg368
F1
sg369
I00
sba(imapping
Tile
p588
(dp589
g364
g365
sg366
VF_Dirt_L2
p590
sg368
F1
sg369
I00
sba(imapping
Tile
p591
(dp592
g364
g365
sg366
VF_Grass->DirtL
p593
sg368
F1
sg369
I00
sba(imapping
Tile
p594
(dp595
g364
g365
sg366
VF_Dirt
p596
sg368
F1
sg369
I00
sba(imapping
Tile
p597
(dp598
g364
g365
sg366
VF_Dirt
p599
sg368
F1
sg369
I00
sba(imapping
Tile
p600
(dp601
g364
g365
sg366
VF_Dirt_Alt_3
p602
sg368
F1
sg369
I00
sba(imapping
Tile
p603
(dp604
g364
g365
sg366
VF_Dirt_Alt_3
p605
sg368
F1
sg369
I00
sba(imapping
Tile
p606
(dp607
g364
g365
sg366
VF_Dirt
p608
sg368
F1
sg369
I00
sba(imapping
Tile
p609
(dp610
g364
g365
sg366
VF_Dirt
p611
sg368
F1
sg369
I00
sbaa(lp612
NaNa(imapping
Tile
p613
(dp614
g364
g390
sg366
VF_Shrooms3
p615
sg368
F1
sg369
I00
sba(imapping
Tile
p616
(dp617
g364
g365
sg366
VF_Grass
p618
sg368
F1
sg369
I00
sba(imapping
Tile
p619
(dp620
g364
g365
sg366
VF_Dirt
p621
sg368
F1
sg369
I00
sba(imapping
Tile
p622
(dp623
g364
g365
sg366
VF_Dirt
p624
sg368
F1
sg369
I00
sba(imapping
Tile
p625
(dp626
g364
g365
sg366
VF_Dirt
p627
sg368
F1
sg369
I00
sba(imapping
Tile
p628
(dp629
g364
g365
sg366
VF_Dirt_Alt_3
p630
sg368
F1
sg369
I00
sba(imapping
Tile
p631
(dp632
g364
g365
sg366
VF_Dirt_Alt_3
p633
sg368
F1
sg369
I00
sba(imapping
Tile
p634
(dp635
g364
g365
sg366
VF_Dirt
p636
sg368
F1
sg369
I00
sba(imapping
Tile
p637
(dp638
g364
g365
sg366
VF_Dirt
p639
sg368
F1
sg369
I00
sba(imapping
Tile
p640
(dp641
g364
g365
sg366
VF_Dirt
p642
sg368
F1
sg369
I00
sbaa(lp643
NaNaNa(imapping
Tile
p644
(dp645
g364
g365
sg366
VF_GrassRedge
p646
sg368
F1
sg369
I00
sba(imapping
Tile
p647
(dp648
g364
g365
sg366
VF_Dirt_R2
p649
sg368
F1
sg369
I00
sba(imapping
Tile
p650
(dp651
g364
g365
sg366
VF_Dirt_R1
p652
sg368
F1
sg369
I00
sba(imapping
Tile
p653
(dp654
g364
g365
sg366
VF_Dirt_R1
p655
sg368
F1
sg369
I00
sba(imapping
Tile
p656
(dp657
g364
g365
sg366
VF_Dirt_R2
p658
sg368
F1
sg369
I00
sba(imapping
Tile
p659
(dp660
g364
g365
sg366
VF_Dirt_R1
p661
sg368
F1
sg369
I00
sba(imapping
Tile
p662
(dp663
g364
g365
sg366
VF_Dirt_R2
p664
sg368
F1
sg369
I00
sba(imapping
Tile
p665
(dp666
g364
g365
sg366
VF_Dirt_R1
p667
sg368
F1
sg369
I00
sba(imapping
Tile
p668
(dp669
g364
g365
sg366
VF_Grass->DirtR
p670
sg368
F1
sg369
I00
sbaa(lp671
NaNaNaNaNaNaNaNaNaNa(imapping
Tile
p672
(dp673
g364
g401
sg366
VF_Tuft1
p674
sg368
F1
sg369
I00
sba(imapping
Tile
p675
(dp676
g364
g365
sg366
VF_Grass
p677
sg368
F1
sg369
I00
sbaa(lp678
(imapping
Tile
p679
(dp680
g364
g365
sg366
VF_Dirt_L2
p681
sg368
F1
sg369
I00
sba(imapping
Tile
p682
(dp683
g364
g365
sg366
VF_Dirt_L1
p684
sg368
F1
sg369
I00
sba(imapping
Tile
p685
(dp686
g364
g365
sg366
VF_Dirt_L2
p687
sg368
F1
sg369
I00
sba(imapping
Tile
p688
(dp689
g364
g365
sg366
VF_Dirt_L2
p690
sg368
F1
sg369
I00
sba(imapping
Tile
p691
(dp692
g364
g365
sg366
VF_Dirt_L1
p693
sg368
F1
sg369
I00
sba(imapping
Tile
p694
(dp695
g364
g365
sg366
VF_Dirt_L2
p696
sg368
F1
sg369
I00
sba(imapping
Tile
p697
(dp698
g364
g365
sg366
VF_Dirt_L1
p699
sg368
F1
sg369
I00
sba(imapping
Tile
p700
(dp701
g364
g365
sg366
VF_Dirt_L2
p702
sg368
F1
sg369
I00
sba(imapping
Tile
p703
(dp704
g364
g365
sg366
VF_Dirt_BL
p705
sg368
F1
sg369
I00
sbaNaNa(imapping
Tile
p706
(dp707
g364
g365
sg366
VF_Grass->Dirttop
p708
sg368
F1
sg369
I00
sbaa(lp709
(imapping
Tile
p710
(dp711
g364
g365
sg366
VF_Dirt
p712
sg368
F1
sg369
I00
sba(imapping
Tile
p713
(dp714
g364
g365
sg366
VF_Dirt_Alt_4
p715
sg368
F1
sg369
I00
sba(imapping
Tile
p716
(dp717
g364
g365
sg366
VF_Dirt
p718
sg368
F1
sg369
I00
sba(imapping
Tile
p719
(dp720
g364
g365
sg366
VF_Dirt
p721
sg368
F1
sg369
I00
sba(imapping
Tile
p722
(dp723
g364
g365
sg366
VF_Dirt
p724
sg368
F1
sg369
I00
sba(imapping
Tile
p725
(dp726
g364
g365
sg366
VF_Dirt
p727
sg368
F1
sg369
I00
sba(imapping
Tile
p728
(dp729
g364
g365
sg366
VF_Dirt_Alt_3
p730
sg368
F1
sg369
I00
sba(imapping
Tile
p731
(dp732
g364
g365
sg366
VF_Dirt_Alt_4
p733
sg368
F1
sg369
I00
sba(imapping
Tile
p734
(dp735
g364
g365
sg366
VF_Dirtb2
p736
sg368
F1
sg369
I00
sbaNaNa(imapping
Tile
p737
(dp738
g364
g365
sg366
VF_Dirttop
p739
sg368
F1
sg369
I00
sbaa(lp740
(imapping
Tile
p741
(dp742
g364
g365
sg366
VF_Dirt_R2
p743
sg368
F1
sg369
I00
sba(imapping
Tile
p744
(dp745
g364
g365
sg366
VF_Dirt_R1
p746
sg368
F1
sg369
I00
sba(imapping
Tile
p747
(dp748
g364
g365
sg366
VF_Dirt_R2
p749
sg368
F1
sg369
I00
sba(imapping
Tile
p750
(dp751
g364
g365
sg366
VF_Dirt_R1
p752
sg368
F1
sg369
I00
sba(imapping
Tile
p753
(dp754
g364
g365
sg366
VF_Dirt_R2
p755
sg368
F1
sg369
I00
sba(imapping
Tile
p756
(dp757
g364
g365
sg366
VF_Grass->DirtR
p758
sg368
F1
sg369
I00
sba(imapping
Tile
p759
(dp760
g364
g365
sg366
VF_Dirt
p761
sg368
F1
sg369
I00
sba(imapping
Tile
p762
(dp763
g364
g365
sg366
VF_Dirt
p764
sg368
F1
sg369
I00
sba(imapping
Tile
p765
(dp766
g364
g365
sg366
VF_Dirtb2
p767
sg368
F1
sg369
I00
sbaNaNa(imapping
Tile
p768
(dp769
g364
g365
sg366
VF_Dirttop
p770
sg368
F1
sg369
I00
sbaa(lp771
NaNaNaNaNa(imapping
Tile
p772
(dp773
g364
g365
sg366
VF_Grass
p774
sg368
F1
sg369
I00
sba(imapping
Tile
p775
(dp776
g364
g365
sg366
VF_Dirt
p777
sg368
F1
sg369
I00
sba(imapping
Tile
p778
(dp779
g364
g365
sg366
VF_Dirt
p780
sg368
F1
sg369
I00
sba(imapping
Tile
p781
(dp782
g364
g365
sg366
VF_Dirtb
p783
sg368
F1
sg369
I00
sbaNaNa(imapping
Tile
p784
(dp785
g364
g365
sg366
VF_Dirttop
p786
sg368
F1
sg369
I00
sbaa(lp787
NaNaNaNa(imapping
Tile
p788
(dp789
g364
g390
sg366
VF_Shrooms3
p790
sg368
F1
sg369
I00
sba(imapping
Tile
p791
(dp792
g364
g365
sg366
VF_GrassRedge
p793
sg368
F1
sg369
I00
sba(imapping
Tile
p794
(dp795
g364
g365
sg366
VF_Dirt_R2
p796
sg368
F1
sg369
I00
sba(imapping
Tile
p797
(dp798
g364
g365
sg366
VF_Dirt_R2
p799
sg368
F1
sg369
I00
sba(imapping
Tile
p800
(dp801
g364
g365
sg366
VF_Dirt_BR
p802
sg368
F1
sg369
I00
sbaNaNa(imapping
Tile
p803
(dp804
g364
g365
sg366
VF_Dirttop
p805
sg368
F1
sg369
I00
sbaa(lp806
NaNaNaNaNaNaNaNaNaNaNa(imapping
Tile
p807
(dp808
g364
g365
sg366
VF_Dirttop
p809
sg368
F1
sg369
I00
sbaa(lp810
NaNaNaNaNaNaNaNaNaNaNa(imapping
Tile
p811
(dp812
g364
g365
sg366
VF_Dirttop->Grass
p813
sg368
F1
sg369
I00
sbaa(lp814
NaNaNaNaNa(imapping
Tile
p815
(dp816
g364
g365
sg366
VF_GrassLedge
p817
sg368
F1
sg369
I00
sba(imapping
Tile
p818
(dp819
g364
g365
sg366
VF_Dirt_BL
p820
sg368
F1
sg369
I00
sbaNaNaNa(imapping
Tile
p821
(dp822
g364
S'RIGHT_HINCLINATION1'
p823
sg366
VF_Right_Halframp1
p824
sg368
F1
sg369
I00
sba(imapping
Tile
p825
(dp826
g364
g365
sg366
VF_HalframpJoinR
p827
sg368
F1
sg369
I00
sbaa(lp828
NaNaNaNaNa(imapping
Tile
p829
(dp830
g364
g365
sg366
VF_GrassRedge
p831
sg368
F1
sg369
I00
sba(imapping
Tile
p832
(dp833
g364
g365
sg366
VF_Dirt_BR
p834
sg368
F1
sg369
I00
sbaNaNaNa(imapping
Tile
p835
(dp836
g364
S'RIGHT_HINCLINATION2'
p837
sg366
VF_Right_Halframp2
p838
sg368
F1
sg369
I00
sba(imapping
Tile
p839
(dp840
g364
g365
sg366
VF_Dirt
p841
sg368
F1
sg369
I00
sbaa(lp842
NaNaNaNaNaNaNaNaNa(imapping
Tile
p843
(dp844
g364
g506
sg366
VF_Right_Ramp
p845
sg368
F1
sg369
I00
sba(imapping
Tile
p846
(dp847
g364
g365
sg366
VF_RampJoinR
p848
sg368
F1
sg369
I00
sba(imapping
Tile
p849
(dp850
g364
g365
sg366
VF_Dirt
p851
sg368
F1
sg369
I00
sbaa(lp852
NaNaNaNaNaNaNaNa(imapping
Tile
p853
(dp854
g364
g506
sg366
VF_Right_Ramp
p855
sg368
F1
sg369
I00
sba(imapping
Tile
p856
(dp857
g364
g365
sg366
VF_RampJoinR
p858
sg368
F1
sg369
I00
sba(imapping
Tile
p859
(dp860
g364
g365
sg366
VF_Dirt
p861
sg368
F1
sg369
I00
sba(imapping
Tile
p862
(dp863
g364
g365
sg366
VF_Dirt
p864
sg368
F1
sg369
I00
sbaa(lp865
NaNaNaNaNaNaNa(imapping
Tile
p866
(dp867
g364
g506
sg366
VF_Right_Ramp
p868
sg368
F1
sg369
I00
sba(imapping
Tile
p869
(dp870
g364
g365
sg366
VF_RampJoinR
p871
sg368
F1
sg369
I00
sba(imapping
Tile
p872
(dp873
g364
g365
sg366
VF_Dirt
p874
sg368
F1
sg369
I00
sba(imapping
Tile
p875
(dp876
g364
g365
sg366
VF_Dirt
p877
sg368
F1
sg369
I00
sba(imapping
Tile
p878
(dp879
g364
g365
sg366
VF_Dirt
p880
sg368
F1
sg369
I00
sbaa(lp881
NaNaNaNaNaNa(imapping
Tile
p882
(dp883
g364
g506
sg366
VF_Right_Ramp
p884
sg368
F1
sg369
I00
sba(imapping
Tile
p885
(dp886
g364
g365
sg366
VF_RampJoinR
p887
sg368
F1
sg369
I00
sba(imapping
Tile
p888
(dp889
g364
g365
sg366
VF_Dirt
p890
sg368
F1
sg369
I00
sba(imapping
Tile
p891
(dp892
g364
g365
sg366
VF_Dirt
p893
sg368
F1
sg369
I00
sba(imapping
Tile
p894
(dp895
g364
g365
sg366
VF_Dirt_Alt_3
p896
sg368
F1
sg369
I00
sba(imapping
Tile
p897
(dp898
g364
g365
sg366
VF_Dirt_Alt_3
p899
sg368
F1
sg369
I00
sbaa(lp900
NaNaNaNaNa(imapping
Tile
p901
(dp902
g364
g401
sg366
VF_Tuft2
p903
sg368
F1
sg369
I00
sba(imapping
Tile
p904
(dp905
g364
g365
sg366
VF_Grass
p906
sg368
F1
sg369
I00
sba(imapping
Tile
p907
(dp908
g364
g365
sg366
VF_Dirt
p909
sg368
F1
sg369
I00
sba(imapping
Tile
p910
(dp911
g364
g365
sg366
VF_Dirt
p912
sg368
F1
sg369
I00
sba(imapping
Tile
p913
(dp914
g364
g365
sg366
VF_Dirt
p915
sg368
F1
sg369
I00
sba(imapping
Tile
p916
(dp917
g364
g365
sg366
VF_Dirt_Alt_4
p918
sg368
F1
sg369
I00
sba(imapping
Tile
p919
(dp920
g364
g365
sg366
VF_Dirt
p921
sg368
F1
sg369
I00
sbaa(lp922
NaNaNaNaNa(imapping
Tile
p923
(dp924
g364
g401
sg366
VF_Shrooms2
p925
sg368
F1
sg369
I00
sba(imapping
Tile
p926
(dp927
g364
g365
sg366
VF_Grass
p928
sg368
F1
sg369
I00
sba(imapping
Tile
p929
(dp930
g364
g365
sg366
VF_Dirt
p931
sg368
F1
sg369
I00
sba(imapping
Tile
p932
(dp933
g364
g365
sg366
VF_Dirt_Alt_3
p934
sg368
F1
sg369
I00
sba(imapping
Tile
p935
(dp936
g364
g365
sg366
VF_Dirt
p937
sg368
F1
sg369
I00
sba(imapping
Tile
p938
(dp939
g364
g365
sg366
VF_Dirt
p940
sg368
F1
sg369
I00
sba(imapping
Tile
p941
(dp942
g364
g365
sg366
VF_Dirt
p943
sg368
F1
sg369
I00
sbaa(lp944
NaNaNaNaNaNa(imapping
Tile
p945
(dp946
g364
g484
sg366
VF_Left_Halframp2
p947
sg368
F1
sg369
I00
sba(imapping
Tile
p948
(dp949
g364
g365
sg366
VF_Dirt
p950
sg368
F1
sg369
I00
sba(imapping
Tile
p951
(dp952
g364
g365
sg366
VF_Dirt
p953
sg368
F1
sg369
I00
sba(imapping
Tile
p954
(dp955
g364
g365
sg366
VF_Dirt_Alt_4
p956
sg368
F1
sg369
I00
sba(imapping
Tile
p957
(dp958
g364
g365
sg366
VF_Dirt
p959
sg368
F1
sg369
I00
sba(imapping
Tile
p960
(dp961
g364
g365
sg366
VF_Dirt_Alt_3
p962
sg368
F1
sg369
I00
sbaa(lp963
NaNaNaNaNaNa(imapping
Tile
p964
(dp965
g364
g495
sg366
VF_Left_Halframp1
p966
sg368
F1
sg369
I00
sba(imapping
Tile
p967
(dp968
g364
g365
sg366
VF_HalframpJoinL
p969
sg368
F1
sg369
I00
sba(imapping
Tile
p970
(dp971
g364
g365
sg366
VF_Dirt
p972
sg368
F1
sg369
I00
sba(imapping
Tile
p973
(dp974
g364
g365
sg366
VF_Dirt
p975
sg368
F1
sg369
I00
sba(imapping
Tile
p976
(dp977
g364
g365
sg366
VF_Dirt
p978
sg368
F1
sg369
I00
sba(imapping
Tile
p979
(dp980
g364
g365
sg366
VF_Dirt
p981
sg368
F1
sg369
I00
sbaa(lp982
NaNaNaNaNaNaNa(imapping
Tile
p983
(dp984
g364
S'LEFT_INCLINATION'
p985
sg366
VF_Left_Ramp
p986
sg368
F1
sg369
I00
sba(imapping
Tile
p987
(dp988
g364
g365
sg366
VF_RampJoinL
p989
sg368
F1
sg369
I00
sba(imapping
Tile
p990
(dp991
g364
g365
sg366
VF_Dirt
p992
sg368
F1
sg369
I00
sba(imapping
Tile
p993
(dp994
g364
g365
sg366
VF_Dirt_Alt_3
p995
sg368
F1
sg369
I00
sba(imapping
Tile
p996
(dp997
g364
g365
sg366
VF_Dirt
p998
sg368
F1
sg369
I00
sbaa(lp999
NaNaNaNaNaNaNa(imapping
Tile
p1000
(dp1001
g364
g401
sg366
VF_Tuft2
p1002
sg368
F1
sg369
I00
sba(imapping
Tile
p1003
(dp1004
g364
g365
sg366
VF_GrassRedge
p1005
sg368
F1
sg369
I00
sba(imapping
Tile
p1006
(dp1007
g364
g365
sg366
VF_Dirt_R2
p1008
sg368
F1
sg369
I00
sba(imapping
Tile
p1009
(dp1010
g364
g365
sg366
VF_Dirt_R1
p1011
sg368
F1
sg369
I00
sba(imapping
Tile
p1012
(dp1013
g364
g365
sg366
VF_Dirt_R2
p1014
sg368
F1
sg369
I00
sbaa(lp1015
NaNaNaNaNaNaNaNaNaNaNaNaa(lp1016
NaNaNaNaNa(imapping
Tile
p1017
(dp1018
g364
g401
sg366
VF_Tuft1
p1019
sg368
F1
sg369
I00
sba(imapping
Tile
p1020
(dp1021
g364
g365
sg366
VF_GrassLedge
p1022
sg368
F1
sg369
I00
sba(imapping
Tile
p1023
(dp1024
g364
g365
sg366
VF_Dirt_L2
p1025
sg368
F1
sg369
I00
sba(imapping
Tile
p1026
(dp1027
g364
g365
sg366
VF_Dirt_L1
p1028
sg368
F1
sg369
I00
sba(imapping
Tile
p1029
(dp1030
g364
g365
sg366
VF_Dirt_L2
p1031
sg368
F1
sg369
I00
sba(imapping
Tile
p1032
(dp1033
g364
g365
sg366
VF_Dirt_L2
p1034
sg368
F1
sg369
I00
sba(imapping
Tile
p1035
(dp1036
g364
g365
sg366
VF_Dirt_L1
p1037
sg368
F1
sg369
I00
sbaa(lp1038
NaNaNaNaNaNa(imapping
Tile
p1039
(dp1040
g364
g365
sg366
VF_Grass
p1041
sg368
F1
sg369
I00
sba(imapping
Tile
p1042
(dp1043
g364
g365
sg366
VF_Dirt_Alt_3
p1044
sg368
F1
sg369
I00
sba(imapping
Tile
p1045
(dp1046
g364
g365
sg366
VF_Dirt_Alt_1
p1047
sg368
F1
sg369
I00
sba(imapping
Tile
p1048
(dp1049
g364
g365
sg366
VF_Dirt
p1050
sg368
F1
sg369
I00
sba(imapping
Tile
p1051
(dp1052
g364
g365
sg366
VF_Dirt_Alt_1
p1053
sg368
F1
sg369
I00
sba(imapping
Tile
p1054
(dp1055
g364
g365
sg366
VF_Dirt
p1056
sg368
F1
sg369
I00
sbaa(lp1057
NaNaNaNaNa(imapping
Tile
p1058
(dp1059
g364
g390
sg366
VF_Stump
p1060
sg368
F1
sg369
I00
sba(imapping
Tile
p1061
(dp1062
g364
g365
sg366
VF_Grass
p1063
sg368
F1
sg369
I00
sba(imapping
Tile
p1064
(dp1065
g364
g365
sg366
VF_Dirt_Alt_3
p1066
sg368
F1
sg369
I00
sba(imapping
Tile
p1067
(dp1068
g364
g365
sg366
VF_Dirt_Alt_3
p1069
sg368
F1
sg369
I00
sba(imapping
Tile
p1070
(dp1071
g364
g365
sg366
VF_Dirt
p1072
sg368
F1
sg369
I00
sba(imapping
Tile
p1073
(dp1074
g364
g365
sg366
VF_Dirt
p1075
sg368
F1
sg369
I00
sba(imapping
Tile
p1076
(dp1077
g364
g365
sg366
VF_Dirt
p1078
sg368
F1
sg369
I00
sbaa(lp1079
NaNaNaNaNaNa(imapping
Tile
p1080
(dp1081
g364
g365
sg366
VF_GrassRedge
p1082
sg368
F1
sg369
I00
sba(imapping
Tile
p1083
(dp1084
g364
g365
sg366
VF_Dirt_R2
p1085
sg368
F1
sg369
I00
sba(imapping
Tile
p1086
(dp1087
g364
g365
sg366
VF_Dirt_R1
p1088
sg368
F1
sg369
I00
sba(imapping
Tile
p1089
(dp1090
g364
g365
sg366
VF_Dirt_R2
p1091
sg368
F1
sg369
I00
sba(imapping
Tile
p1092
(dp1093
g364
g365
sg366
VF_Dirt_R1
p1094
sg368
F1
sg369
I00
sba(imapping
Tile
p1095
(dp1096
g364
g365
sg366
VF_Grass->DirtR
p1097
sg368
F1
sg369
I00
sbaa(lp1098
NaNaNaNaNaNaNaNaNaNaNa(imapping
Tile
p1099
(dp1100
g364
g365
sg366
VF_Grass
p1101
sg368
F1
sg369
I00
sbaa(lp1102
NaNaNaNaNaNaNaNaNaNa(imapping
Tile
p1103
(dp1104
g364
g401
sg366
VF_Tuft2
p1105
sg368
F1
sg369
I00
sba(imapping
Tile
p1106
(dp1107
g364
g365
sg366
VF_Grass
p1108
sg368
F1
sg369
I00
sbaa(lp1109
NaNaNaNaNaNaNaNaNaNa(imapping
Tile
p1110
(dp1111
g364
g401
sg366
VF_Tuft2
p1112
sg368
F1
sg369
I00
sba(imapping
Tile
p1113
(dp1114
g364
g365
sg366
VF_Grass
p1115
sg368
F1
sg369
I00
sbaa(lp1116
NaNaNaNaNaNaNaNaNaNaNa(imapping
Tile
p1117
(dp1118
g364
g365
sg366
VF_Grass
p1119
sg368
F1
sg369
I00
sbaa(lp1120
NaNaNaNaNaNaNaNaNaNa(imapping
Tile
p1121
(dp1122
g364
g390
sg366
VF_Shrooms3
p1123
sg368
F1
sg369
I00
sba(imapping
Tile
p1124
(dp1125
g364
g365
sg366
VF_Grass
p1126
sg368
F1
sg369
I00
sbaa(lp1127
NaNaNaNaNaNaNaNaNaNaNa(imapping
Tile
p1128
(dp1129
g364
g365
sg366
VF_Grass
p1130
sg368
F1
sg369
I00
sbaa(lp1131
NaNaNaNaNaNaNaNaNaNa(imapping
Tile
p1132
(dp1133
g364
g823
sg366
VF_Right_Halframp1
p1134
sg368
F1
sg369
I00
sba(imapping
Tile
p1135
(dp1136
g364
g365
sg366
VF_HalframpJoinR
p1137
sg368
F1
sg369
I00
sbaa(lp1138
NaNaNaNaNaNaNaNaNaNa(imapping
Tile
p1139
(dp1140
g364
g837
sg366
VF_Right_Halframp2
p1141
sg368
F1
sg369
I00
sba(imapping
Tile
p1142
(dp1143
g364
g365
sg366
VF_Dirt
p1144
sg368
F1
sg369
I00
sbaa(lp1145
NaNaNaNaNaNaNaNaNa(imapping
Tile
p1146
(dp1147
g364
g823
sg366
VF_Right_Halframp1
p1148
sg368
F1
sg369
I00
sba(imapping
Tile
p1149
(dp1150
g364
g365
sg366
VF_HalframpJoinR
p1151
sg368
F1
sg369
I00
sba(imapping
Tile
p1152
(dp1153
g364
g365
sg366
VF_Dirt
p1154
sg368
F1
sg369
I00
sbaa(lp1155
NaNaNaNaNaNaNaNaNa(imapping
Tile
p1156
(dp1157
g364
g837
sg366
VF_Right_Halframp2
p1158
sg368
F1
sg369
I00
sba(imapping
Tile
p1159
(dp1160
g364
g365
sg366
VF_Dirt
p1161
sg368
F1
sg369
I00
sba(imapping
Tile
p1162
(dp1163
g364
g365
sg366
VF_Dirt
p1164
sg368
F1
sg369
I00
sbaa(lp1165
NaNaNaNaNaNaNaNa(imapping
Tile
p1166
(dp1167
g364
g823
sg366
VF_Right_Halframp1
p1168
sg368
F1
sg369
I00
sba(imapping
Tile
p1169
(dp1170
g364
g365
sg366
VF_HalframpJoinR
p1171
sg368
F1
sg369
I00
sba(imapping
Tile
p1172
(dp1173
g364
g365
sg366
VF_Dirt
p1174
sg368
F1
sg369
I00
sba(imapping
Tile
p1175
(dp1176
g364
g365
sg366
VF_Dirt
p1177
sg368
F1
sg369
I00
sbaa(lp1178
NaNaNaNaNaNaNaNa(imapping
Tile
p1179
(dp1180
g364
g837
sg366
VF_Right_Halframp2
p1181
sg368
F1
sg369
I00
sba(imapping
Tile
p1182
(dp1183
g364
g365
sg366
VF_Dirt
p1184
sg368
F1
sg369
I00
sba(imapping
Tile
p1185
(dp1186
g364
g365
sg366
VF_Dirt
p1187
sg368
F1
sg369
I00
sba(imapping
Tile
p1188
(dp1189
g364
g365
sg366
VF_Dirt
p1190
sg368
F1
sg369
I00
sbaa(lp1191
NaNaNaNaNaNaNa(imapping
Tile
p1192
(dp1193
g364
g823
sg366
VF_Right_Halframp1
p1194
sg368
F1
sg369
I00
sba(imapping
Tile
p1195
(dp1196
g364
g365
sg366
VF_HalframpJoinR
p1197
sg368
F1
sg369
I00
sba(imapping
Tile
p1198
(dp1199
g364
g365
sg366
VF_Dirt
p1200
sg368
F1
sg369
I00
sba(imapping
Tile
p1201
(dp1202
g364
g365
sg366
VF_Dirt_Alt_3
p1203
sg368
F1
sg369
I00
sba(imapping
Tile
p1204
(dp1205
g364
g365
sg366
VF_Dirt_Alt_2
p1206
sg368
F1
sg369
I00
sbaa(lp1207
NaNaNaNaNaNaNa(imapping
Tile
p1208
(dp1209
g364
g837
sg366
VF_Right_Halframp2
p1210
sg368
F1
sg369
I00
sba(imapping
Tile
p1211
(dp1212
g364
g365
sg366
VF_Dirt
p1213
sg368
F1
sg369
I00
sba(imapping
Tile
p1214
(dp1215
g364
g365
sg366
VF_Dirt_Alt_3
p1216
sg368
F1
sg369
I00
sba(imapping
Tile
p1217
(dp1218
g364
g365
sg366
VF_Dirt_Alt_3
p1219
sg368
F1
sg369
I00
sba(imapping
Tile
p1220
(dp1221
g364
g365
sg366
VF_Dirt
p1222
sg368
F1
sg369
I00
sbaa(lp1223
NaNaNaNaNaNa(imapping
Tile
p1224
(dp1225
g364
g823
sg366
VF_Right_Halframp1
p1226
sg368
F1
sg369
I00
sba(imapping
Tile
p1227
(dp1228
g364
g365
sg366
VF_HalframpJoinR
p1229
sg368
F1
sg369
I00
sba(imapping
Tile
p1230
(dp1231
g364
g365
sg366
VF_Dirt
p1232
sg368
F1
sg369
I00
sba(imapping
Tile
p1233
(dp1234
g364
g365
sg366
VF_Dirt
p1235
sg368
F1
sg369
I00
sba(imapping
Tile
p1236
(dp1237
g364
g365
sg366
VF_Dirt_Alt_4
p1238
sg368
F1
sg369
I00
sba(imapping
Tile
p1239
(dp1240
g364
g365
sg366
VF_Dirt
p1241
sg368
F1
sg369
I00
sbaa(lp1242
NaNaNaNaNaNa(imapping
Tile
p1243
(dp1244
g364
g837
sg366
VF_Right_Halframp2
p1245
sg368
F1
sg369
I00
sba(imapping
Tile
p1246
(dp1247
g364
g365
sg366
VF_Dirt
p1248
sg368
F1
sg369
I00
sba(imapping
Tile
p1249
(dp1250
g364
g365
sg366
VF_Dirt_Alt_4
p1251
sg368
F1
sg369
I00
sba(imapping
Tile
p1252
(dp1253
g364
g365
sg366
VF_Dirt_Alt_2
p1254
sg368
F1
sg369
I00
sba(imapping
Tile
p1255
(dp1256
g364
g365
sg366
VF_Dirt_Alt_2
p1257
sg368
F1
sg369
I00
sba(imapping
Tile
p1258
(dp1259
g364
g365
sg366
VF_Dirt_Alt_2
p1260
sg368
F1
sg369
I00
sbaa(lp1261
NaNaNaNaNa(imapping
Tile
p1262
(dp1263
g364
g390
sg366
VF_Shrooms1
p1264
sg368
F1
sg369
I00
sba(imapping
Tile
p1265
(dp1266
g364
g365
sg366
VF_Grass
p1267
sg368
F1
sg369
I00
sba(imapping
Tile
p1268
(dp1269
g364
g365
sg366
VF_Dirt
p1270
sg368
F1
sg369
I00
sba(imapping
Tile
p1271
(dp1272
g364
g365
sg366
VF_Dirt_Alt_1
p1273
sg368
F1
sg369
I00
sba(imapping
Tile
p1274
(dp1275
g364
g365
sg366
VF_Dirt_Alt_3
p1276
sg368
F1
sg369
I00
sba(imapping
Tile
p1277
(dp1278
g364
g365
sg366
VF_Dirt
p1279
sg368
F1
sg369
I00
sba(imapping
Tile
p1280
(dp1281
g364
g365
sg366
VF_Dirt
p1282
sg368
F1
sg369
I00
sbaa(lp1283
NaNaNaNaNaNa(imapping
Tile
p1284
(dp1285
g364
g365
sg366
VF_Grass
p1286
sg368
F1
sg369
I00
sba(imapping
Tile
p1287
(dp1288
g364
g365
sg366
VF_Dirt
p1289
sg368
F1
sg369
I00
sba(imapping
Tile
p1290
(dp1291
g364
g365
sg366
VF_Dirt_Alt_2
p1292
sg368
F1
sg369
I00
sba(imapping
Tile
p1293
(dp1294
g364
g365
sg366
VF_Dirt
p1295
sg368
F1
sg369
I00
sba(imapping
Tile
p1296
(dp1297
g364
g365
sg366
VF_Dirt
p1298
sg368
F1
sg369
I00
sba(imapping
Tile
p1299
(dp1300
g364
g365
sg366
VF_Dirt
p1301
sg368
F1
sg369
I00
sbaa(lp1302
NaNaNaNaNaNa(imapping
Tile
p1303
(dp1304
g364
g365
sg366
VF_GrassRedge
p1305
sg368
F1
sg369
I00
sba(imapping
Tile
p1306
(dp1307
g364
g365
sg366
VF_Dirt_R1
p1308
sg368
F1
sg369
I00
sba(imapping
Tile
p1309
(dp1310
g364
g365
sg366
VF_Dirt_R2
p1311
sg368
F1
sg369
I00
sba(imapping
Tile
p1312
(dp1313
g364
g365
sg366
VF_Dirt_R1
p1314
sg368
F1
sg369
I00
sba(imapping
Tile
p1315
(dp1316
g364
g365
sg366
VF_Grass->DirtR
p1317
sg368
F1
sg369
I00
sba(imapping
Tile
p1318
(dp1319
g364
g365
sg366
VF_Dirt
p1320
sg368
F1
sg369
I00
sbaa(lp1321
NaNaNaNaNaNaNaNaNaNa(imapping
Tile
p1322
(dp1323
g364
g985
sg366
VF_Left_Ramp
p1324
sg368
F1
sg369
I00
sba(imapping
Tile
p1325
(dp1326
g364
g365
sg366
VF_HalframpJoinL
p1327
sg368
F1
sg369
I00
sbaa(lp1328
NaNaNaNa(imapping
Tile
p1329
(dp1330
g364
g365
sg366
VF_GrassLedge
p1331
sg368
F1
sg369
I00
sba(imapping
Tile
p1332
(dp1333
g364
g365
sg366
VF_Dirt_L1
p1334
sg368
F1
sg369
I00
sba(imapping
Tile
p1335
(dp1336
g364
g365
sg366
VF_Dirt_L1
p1337
sg368
F1
sg369
I00
sba(imapping
Tile
p1338
(dp1339
g364
g365
sg366
VF_Dirt_BL
p1340
sg368
F1
sg369
I00
sbaNaNaNa(imapping
Tile
p1341
(dp1342
g364
g365
sg366
VF_Grass
p1343
sg368
F1
sg369
I00
sbaa(lp1344
(imapping
Tile
p1345
(dp1346
g364
g365
sg366
VF_Dirt_L2
p1347
sg368
F1
sg369
I00
sba(imapping
Tile
p1348
(dp1349
g364
g365
sg366
VF_Dirt_L2
p1350
sg368
F1
sg369
I00
sba(imapping
Tile
p1351
(dp1352
g364
g365
sg366
VF_Dirt_L2
p1353
sg368
F1
sg369
I00
sba(imapping
Tile
p1354
(dp1355
g364
g365
sg366
VF_Dirt_L2
p1356
sg368
F1
sg369
I00
sba(imapping
Tile
p1357
(dp1358
g364
g365
sg366
VF_Grass->DirtL
p1359
sg368
F1
sg369
I00
sba(imapping
Tile
p1360
(dp1361
g364
g365
sg366
VF_Dirt
p1362
sg368
F1
sg369
I00
sba(imapping
Tile
p1363
(dp1364
g364
g365
sg366
VF_Dirt_Alt_3
p1365
sg368
F1
sg369
I00
sba(imapping
Tile
p1366
(dp1367
g364
g365
sg366
VF_Dirtb2
p1368
sg368
F1
sg369
I00
sbaNaNaNa(imapping
Tile
p1369
(dp1370
g364
g365
sg366
VF_Grass
p1371
sg368
F1
sg369
I00
sbaa(lp1372
(imapping
Tile
p1373
(dp1374
g364
g365
sg366
VF_Dirt
p1375
sg368
F1
sg369
I00
sba(imapping
Tile
p1376
(dp1377
g364
g365
sg366
VF_Dirt
p1378
sg368
F1
sg369
I00
sba(imapping
Tile
p1379
(dp1380
g364
g365
sg366
VF_Dirt_Alt_3
p1381
sg368
F1
sg369
I00
sba(imapping
Tile
p1382
(dp1383
g364
g365
sg366
VF_Dirt
p1384
sg368
F1
sg369
I00
sba(imapping
Tile
p1385
(dp1386
g364
g365
sg366
VF_Dirt
p1387
sg368
F1
sg369
I00
sba(imapping
Tile
p1388
(dp1389
g364
g365
sg366
VF_Dirt
p1390
sg368
F1
sg369
I00
sba(imapping
Tile
p1391
(dp1392
g364
g365
sg366
VF_Dirt
p1393
sg368
F1
sg369
I00
sba(imapping
Tile
p1394
(dp1395
g364
g365
sg366
VF_Dirtb
p1396
sg368
F1
sg369
I00
sbaNaNa(imapping
Tile
p1397
(dp1398
g364
g390
sg366
VF_Shrooms1
p1399
sg368
F1
sg369
I00
sba(imapping
Tile
p1400
(dp1401
g364
g365
sg366
VF_Grass
p1402
sg368
F1
sg369
I00
sbaa(lp1403
(imapping
Tile
p1404
(dp1405
g364
g365
sg366
VF_Dirt_Alt_3
p1406
sg368
F1
sg369
I00
sba(imapping
Tile
p1407
(dp1408
g364
g365
sg366
VF_Dirt
p1409
sg368
F1
sg369
I00
sba(imapping
Tile
p1410
(dp1411
g364
g365
sg366
VF_Dirt
p1412
sg368
F1
sg369
I00
sba(imapping
Tile
p1413
(dp1414
g364
g365
sg366
VF_Dirt
p1415
sg368
F1
sg369
I00
sba(imapping
Tile
p1416
(dp1417
g364
g365
sg366
VF_Dirt_Alt_1
p1418
sg368
F1
sg369
I00
sba(imapping
Tile
p1419
(dp1420
g364
g365
sg366
VF_Dirt_Alt_3
p1421
sg368
F1
sg369
I00
sba(imapping
Tile
p1422
(dp1423
g364
g365
sg366
VF_Dirt
p1424
sg368
F1
sg369
I00
sba(imapping
Tile
p1425
(dp1426
g364
g365
sg366
VF_Dirtb
p1427
sg368
F1
sg369
I00
sbaNaNaNa(imapping
Tile
p1428
(dp1429
g364
g365
sg366
VF_Grass
p1430
sg368
F1
sg369
I00
sbaa(lp1431
(imapping
Tile
p1432
(dp1433
g364
g365
sg366
VF_Dirt
p1434
sg368
F1
sg369
I00
sba(imapping
Tile
p1435
(dp1436
g364
g365
sg366
VF_Dirt
p1437
sg368
F1
sg369
I00
sba(imapping
Tile
p1438
(dp1439
g364
g365
sg366
VF_Dirt
p1440
sg368
F1
sg369
I00
sba(imapping
Tile
p1441
(dp1442
g364
g365
sg366
VF_Dirt_Alt_1
p1443
sg368
F1
sg369
I00
sba(imapping
Tile
p1444
(dp1445
g364
g365
sg366
VF_Dirt
p1446
sg368
F1
sg369
I00
sba(imapping
Tile
p1447
(dp1448
g364
g365
sg366
VF_Dirt
p1449
sg368
F1
sg369
I00
sba(imapping
Tile
p1450
(dp1451
g364
g365
sg366
VF_Dirt
p1452
sg368
F1
sg369
I00
sba(imapping
Tile
p1453
(dp1454
g364
g365
sg366
VF_Dirtb2
p1455
sg368
F1
sg369
I00
sbaNaNaNa(imapping
Tile
p1456
(dp1457
g364
g365
sg366
VF_Grass
p1458
sg368
F1
sg369
I00
sbaa(lp1459
(imapping
Tile
p1460
(dp1461
g364
g365
sg366
VF_Dirt
p1462
sg368
F1
sg369
I00
sba(imapping
Tile
p1463
(dp1464
g364
g365
sg366
VF_Dirt
p1465
sg368
F1
sg369
I00
sba(imapping
Tile
p1466
(dp1467
g364
g365
sg366
VF_Dirt
p1468
sg368
F1
sg369
I00
sba(imapping
Tile
p1469
(dp1470
g364
g365
sg366
VF_Dirt_Alt_2
p1471
sg368
F1
sg369
I00
sba(imapping
Tile
p1472
(dp1473
g364
g365
sg366
VF_Dirt_Alt_4
p1474
sg368
F1
sg369
I00
sba(imapping
Tile
p1475
(dp1476
g364
g365
sg366
VF_Dirt_Alt_3
p1477
sg368
F1
sg369
I00
sba(imapping
Tile
p1478
(dp1479
g364
g365
sg366
VF_Dirt
p1480
sg368
F1
sg369
I00
sba(imapping
Tile
p1481
(dp1482
g364
g365
sg366
VF_Dirtb
p1483
sg368
F1
sg369
I00
sbaNaNa(imapping
Tile
p1484
(dp1485
g364
g401
sg366
VF_ExitSign
p1486
sg368
F1
sg369
I00
sba(imapping
Tile
p1487
(dp1488
g364
g365
sg366
VF_Grass
p1489
sg368
F1
sg369
I00
sbaa(lp1490
(imapping
Tile
p1491
(dp1492
g364
g365
sg366
VF_Dirt
p1493
sg368
F1
sg369
I00
sba(imapping
Tile
p1494
(dp1495
g364
g365
sg366
VF_Dirt
p1496
sg368
F1
sg369
I00
sba(imapping
Tile
p1497
(dp1498
g364
g365
sg366
VF_Dirt_Alt_1
p1499
sg368
F1
sg369
I00
sba(imapping
Tile
p1500
(dp1501
g364
g365
sg366
VF_Dirt
p1502
sg368
F1
sg369
I00
sba(imapping
Tile
p1503
(dp1504
g364
g365
sg366
VF_Dirt_Alt_4
p1505
sg368
F1
sg369
I00
sba(imapping
Tile
p1506
(dp1507
g364
g365
sg366
VF_Dirt_Alt_4
p1508
sg368
F1
sg369
I00
sba(imapping
Tile
p1509
(dp1510
g364
g365
sg366
VF_Dirt
p1511
sg368
F1
sg369
I00
sba(imapping
Tile
p1512
(dp1513
g364
g365
sg366
VF_Dirtb2
p1514
sg368
F1
sg369
I00
sbaNaNaNa(imapping
Tile
p1515
(dp1516
g364
g365
sg366
VF_Grass
p1517
sg368
F1
sg369
I00
sbaa(lp1518
(imapping
Tile
p1519
(dp1520
g364
g365
sg366
VF_Dirt
p1521
sg368
F1
sg369
I00
sba(imapping
Tile
p1522
(dp1523
g364
g365
sg366
VF_Dirt
p1524
sg368
F1
sg369
I00
sba(imapping
Tile
p1525
(dp1526
g364
g365
sg366
VF_Dirt
p1527
sg368
F1
sg369
I00
sba(imapping
Tile
p1528
(dp1529
g364
g365
sg366
VF_Dirt_Alt_2
p1530
sg368
F1
sg369
I00
sba(imapping
Tile
p1531
(dp1532
g364
g365
sg366
VF_Dirt
p1533
sg368
F1
sg369
I00
sba(imapping
Tile
p1534
(dp1535
g364
g365
sg366
VF_Dirt_Alt_1
p1536
sg368
F1
sg369
I00
sba(imapping
Tile
p1537
(dp1538
g364
g365
sg366
VF_Dirt
p1539
sg368
F1
sg369
I00
sba(imapping
Tile
p1540
(dp1541
g364
g365
sg366
VF_Dirtb2
p1542
sg368
F1
sg369
I00
sbaNaNaNa(imapping
Tile
p1543
(dp1544
g364
g365
sg366
VF_GrassRedge
p1545
sg368
F1
sg369
I00
sbaa(lp1546
(imapping
Tile
p1547
(dp1548
g364
g365
sg366
VF_Dirt
p1549
sg368
F1
sg369
I00
sba(imapping
Tile
p1550
(dp1551
g364
g365
sg366
VF_Dirt_Alt_1
p1552
sg368
F1
sg369
I00
sba(imapping
Tile
p1553
(dp1554
g364
g365
sg366
VF_Dirt
p1555
sg368
F1
sg369
I00
sba(imapping
Tile
p1556
(dp1557
g364
g365
sg366
VF_Dirt_Alt_1
p1558
sg368
F1
sg369
I00
sba(imapping
Tile
p1559
(dp1560
g364
g365
sg366
VF_Dirt_Alt_3
p1561
sg368
F1
sg369
I00
sba(imapping
Tile
p1562
(dp1563
g364
g365
sg366
VF_Dirt
p1564
sg368
F1
sg369
I00
sba(imapping
Tile
p1565
(dp1566
g364
g365
sg366
VF_Dirt_Alt_2
p1567
sg368
F1
sg369
I00
sba(imapping
Tile
p1568
(dp1569
g364
g365
sg366
VF_Dirtb
p1570
sg368
F1
sg369
I00
sbaNaNaNaNaa(lp1571
(imapping
Tile
p1572
(dp1573
g364
g365
sg366
VF_Dirt
p1574
sg368
F1
sg369
I00
sba(imapping
Tile
p1575
(dp1576
g364
g365
sg366
VF_Dirt_Alt_2
p1577
sg368
F1
sg369
I00
sba(imapping
Tile
p1578
(dp1579
g364
g365
sg366
VF_Dirt_Alt_3
p1580
sg368
F1
sg369
I00
sba(imapping
Tile
p1581
(dp1582
g364
g365
sg366
VF_Dirt
p1583
sg368
F1
sg369
I00
sba(imapping
Tile
p1584
(dp1585
g364
g365
sg366
VF_Dirt_Alt_4
p1586
sg368
F1
sg369
I00
sba(imapping
Tile
p1587
(dp1588
g364
g365
sg366
VF_Dirt_Alt_2
p1589
sg368
F1
sg369
I00
sba(imapping
Tile
p1590
(dp1591
g364
g365
sg366
VF_Dirt
p1592
sg368
F1
sg369
I00
sba(imapping
Tile
p1593
(dp1594
g364
g365
sg366
VF_Dirtb
p1595
sg368
F1
sg369
I00
sbaNaNaNa(imapping
Tile
p1596
(dp1597
g364
g365
sg366
VF_GrassLedge
p1598
sg368
F1
sg369
I00
sbaa(lp1599
(imapping
Tile
p1600
(dp1601
g364
g365
sg366
VF_Dirt_R2
p1602
sg368
F1
sg369
I00
sba(imapping
Tile
p1603
(dp1604
g364
g365
sg366
VF_Dirt_R2
p1605
sg368
F1
sg369
I00
sba(imapping
Tile
p1606
(dp1607
g364
g365
sg366
VF_Dirt_R2
p1608
sg368
F1
sg369
I00
sba(imapping
Tile
p1609
(dp1610
g364
g365
sg366
VF_Dirt_R2
p1611
sg368
F1
sg369
I00
sba(imapping
Tile
p1612
(dp1613
g364
g365
sg366
VF_Dirt_R2
p1614
sg368
F1
sg369
I00
sba(imapping
Tile
p1615
(dp1616
g364
g365
sg366
VF_Dirt_R2
p1617
sg368
F1
sg369
I00
sba(imapping
Tile
p1618
(dp1619
g364
g365
sg366
VF_Dirt_R2
p1620
sg368
F1
sg369
I00
sba(imapping
Tile
p1621
(dp1622
g364
g365
sg366
VF_Dirt_BR
p1623
sg368
F1
sg369
I00
sbaNaNa(imapping
Tile
p1624
(dp1625
g364
g401
sg366
VF_Shrooms2
p1626
sg368
F1
sg369
I00
sba(imapping
Tile
p1627
(dp1628
g364
g365
sg366
VF_Grass
p1629
sg368
F1
sg369
I00
sbaa(lp1630
NaNaNaNaNaNaNaNaNaNaNa(imapping
Tile
p1631
(dp1632
g364
g365
sg366
VF_GrassRedge
p1633
sg368
F1
sg369
I00
sbaa(lp1634
NaNaNaNaNaNaNaNaNaNaNaNaa(lp1635
NaNaNaNaNaNaNaNaNaNaNaNaa(lp1636
NaNaNaNaNaNaNaNaNaNaNa(imapping
Tile
p1637
(dp1638
g364
g365
sg366
VF_GrassLedge
p1639
sg368
F1
sg369
I00
sbaa(lp1640
NaNaNaNaNaNaNaNaNaNa(imapping
Tile
p1641
(dp1642
g364
g390
sg366
VF_Shrooms3
p1643
sg368
F1
sg369
I00
sba(imapping
Tile
p1644
(dp1645
g364
g365
sg366
VF_GrassRedge
p1646
sg368
F1
sg369
I00
sbaa(lp1647
NaNaNaNaNaNaNaNaNaNaNaNaa(lp1648
NaNaNaNaNaNaNaNaNaNaNaNaa(lp1649
NaNaNaNaNaNaNaNaNaNa(imapping
Tile
p1650
(dp1651
g364
g401
sg366
VF_Tuft1
p1652
sg368
F1
sg369
I00
sba(imapping
Tile
p1653
(dp1654
g364
g365
sg366
VF_GrassLedge
p1655
sg368
F1
sg369
I00
sbaa(lp1656
NaNaNaNaNaNaNaNaNaNaNa(imapping
Tile
p1657
(dp1658
g364
g365
sg366
VF_Grass->Dirttop
p1659
sg368
F1
sg369
I00
sbaa(lp1660
NaNaNaNaNaNaNaNaNaNaNa(imapping
Tile
p1661
(dp1662
g364
g365
sg366
VF_Dirttop
p1663
sg368
F1
sg369
I00
sbaa(lp1664
NaNaNaNaNaNaNaNaNaNaNa(imapping
Tile
p1665
(dp1666
g364
g365
sg366
VF_Dirttop
p1667
sg368
F1
sg369
I00
sbaa(lp1668
NaNaNaNaNaNaNaNaNaNaNa(imapping
Tile
p1669
(dp1670
g364
g365
sg366
VF_Dirttop
p1671
sg368
F1
sg369
I00
sbaa(lp1672
NaNaNaNaNaNaNaNaNaNaNa(imapping
Tile
p1673
(dp1674
g364
g365
sg366
VF_Dirttop
p1675
sg368
F1
sg369
I00
sbaa(lp1676
NaNaNaNaNaNaNaNaNaNaNa(imapping
Tile
p1677
(dp1678
g364
g365
sg366
VF_Dirttop
p1679
sg368
F1
sg369
I00
sbaa(lp1680
NaNaNaNaNaNaNaNaNaNaNa(imapping
Tile
p1681
(dp1682
g364
g365
sg366
VF_Dirttop
p1683
sg368
F1
sg369
I00
sbaa(lp1684
NaNaNaNaNaNaNaNaNaNaNa(imapping
Tile
p1685
(dp1686
g364
g365
sg366
VF_Dirttop
p1687
sg368
F1
sg369
I00
sbaa(lp1688
NaNaNaNaNaNaNaNaNaNaNa(imapping
Tile
p1689
(dp1690
g364
g365
sg366
VF_Dirttop
p1691
sg368
F1
sg369
I00
sbaa(lp1692
NaNaNaNaNaNaNaNaNaNaNa(imapping
Tile
p1693
(dp1694
g364
g365
sg366
VF_Dirttop
p1695
sg368
F1
sg369
I00
sbaa(lp1696
NaNaNaNaNaNaNaNaNaNaNa(imapping
Tile
p1697
(dp1698
g364
g365
sg366
VF_Dirttop
p1699
sg368
F1
sg369
I00
sbaa(lp1700
NaNaNaNaNaNaNaNaNaNaNa(imapping
Tile
p1701
(dp1702
g364
g365
sg366
VF_Dirttop
p1703
sg368
F1
sg369
I00
sbaa(lp1704
NaNaNaNaNaNaNaNaNaNaNa(imapping
Tile
p1705
(dp1706
g364
g365
sg366
VF_Dirttop
p1707
sg368
F1
sg369
I00
sbaa(lp1708
NaNaNaNaNaNaNaNaNaNaNa(imapping
Tile
p1709
(dp1710
g364
g365
sg366
VF_Dirttop
p1711
sg368
F1
sg369
I00
sbaa(lp1712
NaNaNaNaNaNaNaNaNaNaNa(imapping
Tile
p1713
(dp1714
g364
g365
sg366
VF_Dirttop
p1715
sg368
F1
sg369
I00
sbaa(lp1716
NaNaNaNaNaNaNaNaNaNaNa(imapping
Tile
p1717
(dp1718
g364
g365
sg366
VF_Dirttop
p1719
sg368
F1
sg369
I00
sbaa(lp1720
NaNaNaNaNaNaNaNaNaNaNa(imapping
Tile
p1721
(dp1722
g364
g365
sg366
VF_Dirttop
p1723
sg368
F1
sg369
I00
sbaa(lp1724
NaNaNaNaNaNaNaNaNaNaNa(imapping
Tile
p1725
(dp1726
g364
g365
sg366
VF_Dirttop
p1727
sg368
F1
sg369
I00
sbaa(lp1728
NaNaNaNaNaNaNaNaNaNaNaNaa(lp1729
NaNaNaNaNaNaNaNaNaNaNaNaa(lp1730
NaNaNaNaNaNaNaNaNaNaNaNaa(lp1731
NaNaNaNaNaNaNaNaNaNaNaNaa(lp1732
NaNaNaNaNaNaNaNaNaNaNaNaa(lp1733
NaNaNaNaNaNaNaNaNaNaNaNaa(lp1734
NaNaNaNaNaNaNaNaNaNaNaNaa(lp1735
NaNaNaNaNaNaNaNaNaNaNaNaa(lp1736
NaNaNaNaNaNaNaNaNaNaNaNaa(lp1737
NaNaNaNaNaNaNaNaNaNaNaNaa(lp1738
NaNaNaNaNaNaNaNaNaNaNaNaa(lp1739
NaNaNaNaNaNaNaNaNaNaNaNaa(lp1740
NaNaNaNaNaNaNaNaNaNaNaNaa(lp1741
NaNaNaNaNaNaNaNaNaNaNaNaa(lp1742
NaNaNaNaNaNaNaNaNaNaNaNaa(lp1743
NaNaNaNaNaNaNaNaNaNaNaNaa(lp1744
NaNaNaNaNaNaNaNaNaNaNaNaa(lp1745
NaNaNaNaNaNaNaNaNaNaNaNaa(lp1746
NaNaNaNaNaNaNaNaNaNaNaNaa(lp1747
NaNaNaNaNaNaNaNaNaNaNaNaa(lp1748
NaNaNaNaNaNaNaNaNaNaNaNaasS'bgmusic'
p1749
VSempridge.ogg
p1750
sS'theme'
p1751
VForest
p1752
sS'endef'
p1753
(dp1754
VBoss_Radkelu
p1755
Vboss_radkelu
p1756
sVCSpider
p1757
Vcspider
p1758
sVSnowOgre
p1759
Vsnowogre
p1760
sVWasp
p1761
Vwasp
p1762
sVPoisPod
p1763
Vpoispod
p1764
sVSpider
p1765
Vspider
p1766
sVSnowBat
p1767
Vsnowbat
p1768
sVWorm
p1769
Vworm
p1770
sVGiantJelly
p1771
Vgiantjelly
p1772
sVPod
p1773
Vpod
p1774
sVGiantWorm
p1775
Vgiantworm
p1776
ssS'tiledef'
p1777
(dp1778
VS_bLRamp
p1779
Vsnow_blramp.png
p1780
sViC_Ice
p1781
Vcaveice.png
p1782
sVF_Dirt_R2
p1783
Vdirtr_edge2.png
p1784
sVF_Dirt_R1
p1785
Vdirtr_edge1.png
p1786
sVS_Railing_1
p1787
Vsnow_railing1.png
p1788
sVS_Railing_2
p1789
Vsnow_railing2.png
p1790
sVC_Suit of Armour
p1791
Vsuit_armour.png
p1792
sVS_UCleft
p1793
Vsnow_undercorner_left.png
p1794
sVF_Right_Halframp1
p1795
VR_HR1.png
p1796
sVF_Right_Halframp2
p1797
VR_HR2.png
p1798
sVF_GrassRedge
p1799
Vgrassr_edge.png
p1800
sVS_ECleft
p1801
Vsnow_edgecorner_left.png
p1802
sViC_wr2
p1803
Vcavewr2.png
p1804
sVF_Tuft1
p1805
Vtuft1.png
p1806
sVF_Tuft2
p1807
Vtuft2.png
p1808
sVS_Tree
p1809
Vsnow_tree.png
p1810
sVF_Grass
p1811
Vgrass.png
p1812
sVS_Railing_L
p1813
Vsnow_railing_left.png
p1814
sVC_Castle HRR
p1815
Vcstl_hr_r.png
p1816
sVS_RRamp
p1817
Vsnow_rramp.png
p1818
sVC_Castle HRL
p1819
Vcstl_hr_l.png
p1820
sVS_Pillar
p1821
Vsnow_pillar.png
p1822
sVS_Railing_R
p1823
Vsnow_railing_right.png
p1824
sVS_Tree2
p1825
Vsnow_tree2.png
p1826
sVS_Ground1
p1827
Vsnow_ground1.png
p1828
sVF_Stump
p1829
Vtreestump.png
p1830
sVC_Castle Ground 2
p1831
Vcstl_ground2.png
p1832
sVC_Castle Ground 3
p1833
Vcstl_ground3.png
p1834
sVC_Castle Ground 1
p1835
Vcstl_ground1.png
p1836
sVS_Snow2
p1837
Vsnow_snow2.png
p1838
sVF_Grass_Alt_5
p1839
Vgrassc5.png
p1840
sViC_jl
p1841
Vcavejl.png
p1842
sVS_bRRamp
p1843
Vsnow_brramp.png
p1844
sViC_TopL
p1845
Vcavetl.png
p1846
sViC_Floor 1
p1847
Vcavefloor1.png
p1848
sViC_Floor 3
p1849
Vcavefloor3.png
p1850
sViC_Floor 2
p1851
Vcavefloor2.png
p1852
sViC_TopR
p1853
Vcavetr.png
p1854
sViC_jr
p1855
Vcavejr.png
p1856
sVC_Castle Floor 2
p1857
Vcstl_floor2.png
p1858
sVS_Snow
p1859
Vsnow_snow.png
p1860
sVF_Grass_Alt_2
p1861
Vgrassc2.png
p1862
sVF_ExitSign
p1863
Vexitsign.png
p1864
sVF_Grass->Dirttop
p1865
Vgrassmdirt.png
p1866
sVS_UCright
p1867
Vsnow_undercorner_right.png
p1868
sVS_Pillartop
p1869
Vsnow_pillartop.png
p1870
sViC_wr
p1871
Vcavewr.png
p1872
sVF_Dirttop->Grass
p1873
Vdirtmgrass.png
p1874
sVS_ECright
p1875
Vsnow_edgecorner_right.png
p1876
sVC_Castle HRmL
p1877
Vcstl_hr_m_l.png
p1878
sVC_Castle Wall L
p1879
Vcstl_wleft.png
p1880
sVC_Castle Wall R
p1881
Vcstl_wright.png
p1882
sVC_Castle HRmR
p1883
Vcstl_hr_m_r.png
p1884
sVF_Ice
p1885
Vtile5.png
p1886
sViC_wl
p1887
Vcavewl.png
p1888
sVC_Castle Floor 4
p1889
Vcstl_floor4.png
p1890
sVF_Grass_Alt_4
p1891
Vgrassc4.png
p1892
sVF_Grass_Alt_1
p1893
Vgrassc1.png
p1894
sVC_Castle Floor 1
p1895
Vcstl_floor1.png
p1896
sVF_Grass_Alt_3
p1897
Vgrassc3.png
p1898
sVC_Castle Floor 3
p1899
Vcstl_floor3.png
p1900
sVS_edgewleft1
p1901
Vsnow_edgewall_left1.png
p1902
sVS_edgewleft2
p1903
Vsnow_edgewall_left2.png
p1904
sVS_UCJright
p1905
Vsnow_undercorner_join_right.png
p1906
sVS_LRamp
p1907
Vsnow_lramp.png
p1908
sVC_Castle Floor Edge R
p1909
Vcstl_floor_edge_right.png
p1910
sVF_Dirt_L1
p1911
Vdirtl_edge1.png
p1912
sVF_Dirt_L2
p1913
Vdirtl_edge2.png
p1914
sVC_Castle Floor Edge L
p1915
Vcstl_floor_edge_left.png
p1916
sVF_Left_Halframp2
p1917
VL_HR2.png
p1918
sVF_Left_Halframp1
p1919
VL_HR1.png
p1920
sVF_Shrooms2
p1921
Vshrooms2.png
p1922
sVF_Shrooms3
p1923
Vshrooms3.png
p1924
sVF_Shrooms1
p1925
Vshrooms1.png
p1926
sVF_RampJoinL
p1927
Vramp_mid_dirt_l.png
p1928
sVC_Castle Wall->Floor R
p1929
Vcstl_wfright.png
p1930
sVF_RampJoinR
p1931
Vramp_mid_dirt_r.png
p1932
sVF_GrassLedge
p1933
Vgrassl_edge.png
p1934
sVS_Stones
p1935
Vsnow_stones.png
p1936
sVS_edgeright
p1937
Vsnow_edge_right.png
p1938
sVS_edgewright2
p1939
Vsnow_edgewall_right2.png
p1940
sVS_edgewright1
p1941
Vsnow_edgewall_right1.png
p1942
sVF_Dirtb
p1943
Vdirtb.png
p1944
sVF_Right_Ramp
p1945
VR_R.png
p1946
sVF_HalframpJoinL
p1947
Vhalframp_mid_dirt_l.png
p1948
sVF_Dirt_BL
p1949
Vdirtl_bedge.png
p1950
sVF_HalframpJoinR
p1951
Vhalframp_mid_dirt_r.png
p1952
sVF_Dirt_BR
p1953
Vdirtr_bedge.png
p1954
sVF_Dirtb2
p1955
Vdirtb2.png
p1956
sVF_Left_Ramp
p1957
VL_R.png
p1958
sVC_Castle Wall->Floor L
p1959
Vcstl_wfleft.png
p1960
sVS_UCJleft
p1961
Vsnow_undercorner_join_left.png
p1962
sVF_Dirt
p1963
Vdirt.png
p1964
sVF_Grass->DirtL
p1965
Vgrass_dirt_l.png
p1966
sVS_edgeleft
p1967
Vsnow_edge_left.png
p1968
sVF_Dirttop
p1969
Vdirttop.png
p1970
sVF_Dirt_Alt_4
p1971
Vdirtc4.png
p1972
sVF_Dirt_Alt_3
p1973
Vdirtc3.png
p1974
sVF_Dirt_Alt_2
p1975
Vdirtc2.png
p1976
sVF_Dirt_Alt_1
p1977
Vdirtc1.png
p1978
sVF_Grass->DirtR
p1979
Vgrass_dirt_r.png
p1980
sViC_wl2
p1981
Vcavewl2.png
p1982
ssb.