(imapping
Map
p1
(dp2
S'enemy'
p3
(lp4
(lp5
NaNaNaNaNaNaNaNaNaNaNaNaa(lp6
NaNaNaNaNaNaNaNaNaNaNaNaa(lp7
NaNaNaNaNaNaNaNaNaNaNaNaa(lp8
NaNaNaNaNaNaNaNaNaNaNaNaa(lp9
NaNaNaNaNaNaNaNaNaNaNaNaa(lp10
NaNaNaNaNaNaNaNaNaNaNaNaa(lp11
NaNaNaNaNaNaNaNaNaNaNaNaa(lp12
NaNaNaNaNaNaNaNaNaNaNaNaa(lp13
NaNaNaNaNaNaNaNaNaNaNaNaa(lp14
NaNaNaNaNaNaNaNaNaNaNaNaa(lp15
NaNaNaNaNaNaNaNaNaNaNaNaa(lp16
NaNaNaNaNaNaNaNaNaNaNaNaa(lp17
NaNaNaNaNaNaNaNaNaNaNaNaa(lp18
NaNaNaNaNaNaNaNaNaNaNaNaa(lp19
NaNaNaNaNaNaNaNaNaNaNaNaa(lp20
NaNaNaNaNaNaNaNaNaNaNaNaa(lp21
NaNaNaNaNaNaNaNaNaNaNaNaa(lp22
NaNaNaNaNaNaNaNaNaNaNaNaa(lp23
NaNaNaNaNaNaNaNaNaNaNaNaa(lp24
NaNaNaNaNaNaNaNaNaNaNaNaa(lp25
NaNaNaNaNaNaNaNaNaNaNaNaa(lp26
NaNaNaNaNaNaNaNaNaNaNaNaa(lp27
NaNaNaNaNaNaVWasp
p28
aNaNaNaNaNaa(lp29
NaNaNaNaNaNaNaNaNaNaNaNaa(lp30
NaNaNaNaNaNaNaNaNaNaNaNaa(lp31
NaNaNaNaNaNaNaNaNaNaNaNaa(lp32
NaNaNaNaNaNaNaNaNaNaNaNaa(lp33
NaNaNaNaNaNaNaVWorm
p34
aNaNaNaNaa(lp35
NaNaNaNaNaNaNaVWorm
p36
aNaNaNaNaa(lp37
NaNaNaNaNaNaNaVWorm
p38
aNaNaNaNaa(lp39
NaNaNaNaNaNaNaNaNaNaNaNaa(lp40
NaNaNaNaNaVWasp
p41
aNaNaNaNaNaNaa(lp42
NaNaNaNaNaNaNaNaNaNaNaNaa(lp43
NaNaNaNaNaNaNaNaNaNaNaNaa(lp44
NaNaNaNaNaNaNaNaNaNaNaNaa(lp45
NaNaNaNaNaNaNaVWorm
p46
aNaNaNaNaa(lp47
NaNaNaNaNaNaNaVWorm
p48
aNaNaNaNaa(lp49
NaNaNaNaNaNaNaVWorm
p50
aNaNaNaNaa(lp51
NaNaNaNaNaNaNaNaVWasp
p52
aNaNaNaa(lp53
NaNaNaNaNaNaNaNaNaVPod
p54
aNaNaa(lp55
NaNaNaNaNaNaNaNaVWasp
p56
aNaNaNaa(lp57
NaNaNaNaNaNaNaNaNaNaNaNaa(lp58
NaNaNaNaNaNaNaNaNaNaNaNaa(lp59
NaNaNaNaNaNaNaNaNaNaNaNaa(lp60
NaNaNaNaNaNaNaNaNaNaNaNaa(lp61
NaNaNaNaNaNaNaNaNaNaNaNaa(lp62
NaNaNaNaNaNaNaNaNaNaNaNaa(lp63
NaNaNaNaNaNaNaNaNaNaNaNaa(lp64
NaNaNaNaNaNaNaNaNaNaNaNaa(lp65
NaNaNaNaNaNaNaNaNaNaNaNaa(lp66
NaNaNaNaNaNaNaNaNaNaNaNaa(lp67
NaNaNaNaNaNaNaNaNaNaNaNaa(lp68
NaNaNaNaNaNaNaNaNaNaNaNaa(lp69
NaNaVWasp
p70
aNaNaNaNaNaNaNaNaNaa(lp71
NaNaNaNaNaNaNaNaNaNaNaNaa(lp72
NaNaNaNaNaNaNaNaNaNaNaNaa(lp73
NaNaNaNaNaNaNaNaNaNaNaNaa(lp74
NaNaNaNaNaNaNaNaNaNaNaNaa(lp75
NaNaNaNaNaNaNaNaNaNaNaNaa(lp76
NaNaVWasp
p77
aNaNaNaNaNaNaNaNaNaa(lp78
NaNaNaNaNaNaNaNaNaNaNaNaa(lp79
NaNaNaNaNaNaNaNaNaNaNaNaa(lp80
NaNaNaNaNaNaNaNaNaNaNaNaa(lp81
NaNaNaNaNaNaNaNaNaNaNaNaa(lp82
NaNaNaNaNaNaNaNaNaNaNaNaa(lp83
NaNaNaNaNaNaNaNaNaNaNaNaa(lp84
NaNaNaNaNaNaNaNaNaNaNaNaa(lp85
NaNaNaNaNaNaNaNaNaNaNaNaa(lp86
NaNaNaNaNaNaNaNaNaNaNaNaa(lp87
NaNaNaNaNaNaNaNaNaNaNaNaa(lp88
NaNaNaNaNaNaNaNaNaNaNaNaa(lp89
NaNaNaNaNaNaNaNaNaNaNaNaa(lp90
NaNaNaNaNaNaNaNaNaNaNaNaa(lp91
NaNaNaNaNaNaNaNaNaNaNaNaa(lp92
NaNaNaNaNaNaNaNaNaNaNaNaa(lp93
NaNaNaNaNaNaNaNaNaNaNaNaa(lp94
NaNaNaNaNaNaNaNaNaNaNaNaa(lp95
NaNaNaNaNaNaNaNaNaNaNaNaa(lp96
NaNaNaNaNaNaNaNaVSpider
p97
aNaNaNaa(lp98
NaNaNaNaNaNaNaNaNaNaNaNaa(lp99
NaNaNaNaNaNaNaNaNaNaNaNaa(lp100
NaNaNaNaNaNaNaNaVSpider
p101
aNaNaNaa(lp102
NaNaNaNaNaNaNaNaNaNaNaNaa(lp103
NaNaNaNaNaNaNaNaNaNaNaNaa(lp104
NaNaNaNaNaNaNaNaNaNaNaNaa(lp105
NaNaNaNaNaNaNaNaNaNaVPod
p106
aNaa(lp107
NaNaNaNaNaNaNaNaNaNaNaNaa(lp108
NaNaNaNaNaNaNaNaNaNaNaNaa(lp109
NaNaNaNaNaNaNaNaNaNaNaNaa(lp110
NaNaNaNaNaNaNaNaVSpider
p111
aNaNaNaa(lp112
NaNaNaNaNaNaNaNaNaNaNaNaa(lp113
NaNaNaNaNaNaNaNaNaNaVPod
p114
aNaa(lp115
NaNaNaNaNaNaNaNaNaNaNaNaa(lp116
NaNaNaNaNaNaNaNaNaNaNaNaa(lp117
NaNaNaNaNaNaNaNaVSpider
p118
aNaNaNaa(lp119
NaNaNaNaNaNaNaNaNaNaNaNaa(lp120
NaNaNaNaNaNaNaNaNaNaVWorm
p121
aNaa(lp122
NaNaNaNaNaNaNaNaNaNaNaNaa(lp123
NaNaNaNaNaNaNaNaNaNaNaNaa(lp124
NaNaNaNaNaNaNaNaNaNaNaNaa(lp125
NaNaNaNaNaNaNaNaNaNaNaNaa(lp126
NaNaNaNaNaNaNaNaNaNaNaNaa(lp127
NaNaNaNaNaNaNaNaNaNaNaNaa(lp128
NaNaNaNaNaNaNaNaNaNaNaNaa(lp129
NaNaNaNaNaNaNaNaVSpider
p130
aNaNaNaa(lp131
NaNaNaNaNaNaNaNaNaNaNaNaa(lp132
NaNaNaNaNaNaNaNaNaNaNaNaa(lp133
NaNaNaNaNaNaNaNaNaNaNaNaa(lp134
NaNaNaNaNaNaNaVPod
p135
aNaNaNaNaa(lp136
NaNaNaNaNaNaNaNaNaNaNaNaa(lp137
NaNaNaNaNaNaNaNaNaNaNaNaa(lp138
NaNaNaNaNaNaNaVWorm
p139
aNaNaNaNaa(lp140
NaNaNaNaNaNaNaNaNaNaNaNaa(lp141
NaNaNaNaNaNaNaNaNaNaNaNaa(lp142
NaNaNaNaNaNaNaNaNaNaNaNaa(lp143
NaNaNaNaNaNaNaNaNaNaNaNaa(lp144
NaNaNaNaNaNaNaNaNaNaNaNaa(lp145
NaNaNaNaNaNaNaNaNaNaNaNaa(lp146
NaNaNaNaNaNaNaNaNaNaNaNaa(lp147
NaNaNaNaNaNaNaNaNaNaNaNaa(lp148
NaNaNaNaNaNaNaNaNaNaNaNaa(lp149
NaNaNaNaNaNaNaNaNaNaNaNaa(lp150
NaNaNaNaNaNaNaNaNaNaNaNaa(lp151
NaNaNaNaNaNaNaNaNaNaNaNaa(lp152
NaNaNaNaNaNaNaNaNaNaNaNaa(lp153
NaNaNaNaNaNaNaNaNaNaNaNaa(lp154
NaNaNaNaNaNaNaNaNaNaNaNaa(lp155
NaNaNaNaNaNaNaNaNaNaNaNaasS'objdef'
p156
(dp157
VButterfly
p158
VButterfly.png
p159
sVLevel_End
p160
VEnd.png
p161
sVShield
p162
VShield.png
p163
sVPlayer_Start
p164
VStart.png
p165
sVLever_Snow
p166
VLever1.png
p167
sVTorchref
p168
VTorchref.png
p169
sVWalltorch
p170
VWalltorch.png
p171
sVFirepit
p172
VPit.png
p173
sVSign
p174
VSign.png
p175
sVButterflyC
p176
VButterflyC.png
p177
sVButterflyB
p178
VButterflyB.png
p179
sVSword
p180
VSword.png
p181
sVTreasureBoxC
p182
VTreasureC_Closed.png
p183
sVTreasureBoxB
p184
VTreasureB_Closed.png
p185
sVTreasureBox
p186
VTreasure_Closed.png
p187
sVFallingRock
p188
VRock.png
p189
sVObelisk_Snow
p190
VObelisk_Snow.png
p191
ssS'obj'
p192
(lp193
(lp194
NaNaNaNaNaNaNaNaNaNaNaNaa(lp195
NaNaNaNaNaNaNaVButterflyC
p196
aNaNaNaNaa(lp197
NaNaNaNaNaNaNaNaNaNaNaNaa(lp198
NaNaNaNaNaNaNaNaNaNaNaNaa(lp199
NaNaNaNaNaNaNaNaNaNaNaNaa(lp200
NaNaNaVButterflyB
p201
aNaNaVButterfly
p202
aNaNaNaNaNaa(lp203
NaNaNaNaNaNaNaNaNaNaVTreasureBox
p204
aNaa(lp205
NaNaNaNaNaNaNaNaNaNaNaNaa(lp206
NaNaNaVButterflyC
p207
aNaNaNaNaNaNaVTreasureBox
p208
aNaa(lp209
NaNaNaNaNaVPlayer_Start
p210
aNaNaNaNaNaNaa(lp211
NaNaNaVButterflyB
p212
aNaNaNaNaNaVButterfly
p213
aVTreasureBox
p214
aNaa(lp215
NaNaNaNaNaNaNaNaNaNaNaNaa(lp216
NaNaNaNaNaNaNaNaNaNaNaNaa(lp217
NaNaNaNaNaNaVButterflyC
p218
aNaNaNaNaNaa(lp219
NaNaNaNaNaNaNaNaNaNaNaNaa(lp220
NaNaNaNaNaNaNaNaNaNaNaNaa(lp221
NaNaNaNaNaNaVButterfly
p222
aNaNaNaNaNaa(lp223
NaNaNaNaNaNaNaNaNaNaNaNaa(lp224
NaNaNaNaNaNaNaNaNaNaNaNaa(lp225
NaNaNaNaNaNaNaNaNaNaNaNaa(lp226
NaNaNaNaVButterflyB
p227
aNaNaNaNaNaNaNaa(lp228
NaNaNaNaNaNaNaNaNaNaNaNaa(lp229
NaNaNaNaNaNaNaNaNaNaNaNaa(lp230
NaNaNaNaNaNaNaNaNaNaNaNaa(lp231
NaNaNaNaNaNaNaNaNaNaNaNaa(lp232
NaNaNaVButterflyC
p233
aNaVButterfly
p234
aNaNaNaNaNaNaa(lp235
NaNaNaNaNaVButterflyB
p236
aNaNaNaNaNaNaa(lp237
NaNaNaNaNaNaNaNaNaNaNaNaa(lp238
NaNaNaNaNaNaNaNaNaNaNaNaa(lp239
NaNaNaNaNaNaNaNaNaNaNaNaa(lp240
NaNaNaNaNaNaNaNaNaNaNaNaa(lp241
NaNaNaNaNaNaNaNaNaNaNaNaa(lp242
NaNaNaNaVButterflyB
p243
aNaVButterflyC
p244
aNaNaNaNaNaa(lp245
NaNaNaNaNaNaNaNaNaNaNaNaa(lp246
NaNaNaNaNaNaNaNaNaNaNaNaa(lp247
NaNaNaNaNaVButterflyC
p248
aNaNaNaNaNaNaa(lp249
NaNaNaNaNaNaNaNaNaNaNaNaa(lp250
NaNaNaNaNaNaNaNaNaNaNaNaa(lp251
NaNaNaNaNaNaNaNaNaNaNaNaa(lp252
NaNaNaNaNaNaVButterflyC
p253
aNaNaNaNaNaa(lp254
NaNaNaNaNaNaNaNaNaNaNaNaa(lp255
NaNaNaNaNaNaNaVTreasureBox
p256
aNaNaNaNaa(lp257
NaNaNaNaNaNaNaNaNaNaNaNaa(lp258
NaNaNaNaNaNaNaNaNaNaNaNaa(lp259
NaNaNaNaNaNaNaNaNaNaNaNaa(lp260
NaNaNaNaVButterflyB
p261
aVTreasureBox
p262
aNaNaNaNaNaNaa(lp263
NaNaNaNaNaNaNaNaNaNaNaNaa(lp264
NaNaNaNaNaNaNaNaNaNaNaNaa(lp265
NaNaNaNaNaNaNaNaNaNaNaNaa(lp266
NaNaNaNaNaNaVButterfly
p267
aNaNaNaNaNaa(lp268
NaNaNaNaNaNaNaNaNaNaNaNaa(lp269
NaNaNaNaNaNaNaNaNaNaNaNaa(lp270
NaNaNaNaNaNaNaNaNaNaVButterflyC
p271
aNaa(lp272
NaNaNaNaNaNaNaVButterflyC
p273
aNaNaNaNaa(lp274
NaNaNaNaNaNaNaNaNaNaNaNaa(lp275
NaNaNaNaNaNaNaNaNaNaNaNaa(lp276
NaNaNaNaNaNaNaNaNaNaNaNaa(lp277
NaNaNaNaNaNaNaNaNaNaNaNaa(lp278
NaNaNaNaNaNaNaNaNaNaNaNaa(lp279
NaNaNaNaNaNaNaNaNaNaNaNaa(lp280
NaNaNaNaNaNaNaNaNaNaNaNaa(lp281
NaNaNaNaNaNaNaNaNaNaNaNaa(lp282
NaNaNaNaNaNaNaNaNaNaNaNaa(lp283
NaNaNaNaNaVTreasureBox
p284
aNaNaNaNaNaNaa(lp285
NaNaNaNaNaNaNaNaNaNaNaNaa(lp286
NaNaNaNaNaNaNaNaNaNaNaNaa(lp287
NaNaNaNaNaNaNaNaNaNaNaNaa(lp288
NaNaNaNaNaNaNaNaNaNaNaNaa(lp289
NaNaNaNaNaNaNaNaNaNaNaNaa(lp290
NaNaNaNaNaNaNaNaNaNaNaNaa(lp291
NaNaNaNaNaNaNaNaNaNaNaNaa(lp292
NaNaNaNaNaNaNaNaNaNaNaNaa(lp293
NaNaNaNaNaNaNaNaNaNaNaNaa(lp294
NaNaNaNaNaNaNaNaNaNaNaNaa(lp295
NaNaNaNaNaNaNaNaNaNaNaNaa(lp296
NaNaNaNaNaNaNaNaNaNaNaNaa(lp297
NaNaNaNaNaNaNaNaNaNaNaNaa(lp298
NaNaNaNaNaNaNaNaNaNaNaNaa(lp299
NaNaNaNaNaNaNaNaNaNaNaNaa(lp300
NaNaNaNaNaNaNaNaVButterfly
p301
aNaNaNaa(lp302
NaNaNaNaNaNaNaNaNaNaNaNaa(lp303
NaNaNaNaNaNaNaNaNaNaNaNaa(lp304
NaNaNaNaNaNaNaNaNaNaNaNaa(lp305
NaNaNaNaNaNaVButterflyC
p306
aNaNaVButterflyB
p307
aNaNaa(lp308
NaNaNaNaNaNaNaNaNaNaNaNaa(lp309
NaNaNaNaVButterflyB
p310
aNaNaNaNaNaNaNaa(lp311
NaNaNaNaNaNaNaNaNaNaNaNaa(lp312
NaNaNaNaNaNaNaVButterfly
p313
aNaNaNaNaa(lp314
NaNaNaNaNaNaNaNaNaNaNaNaa(lp315
NaNaNaNaNaNaNaNaNaNaNaNaa(lp316
NaNaNaNaNaNaNaNaNaNaNaNaa(lp317
NaNaNaNaNaNaNaNaNaNaNaNaa(lp318
NaNaNaNaNaNaNaNaNaNaNaNaa(lp319
NaNaNaNaNaNaVButterflyC
p320
aNaNaNaNaNaa(lp321
NaNaNaNaNaNaNaNaNaNaNaNaa(lp322
NaNaNaNaNaNaNaNaNaNaNaNaa(lp323
NaNaNaNaNaNaVButterflyB
p324
aNaNaNaNaNaa(lp325
NaNaNaNaNaNaNaNaNaNaNaNaa(lp326
NaNaNaNaNaNaNaNaNaNaNaNaa(lp327
NaNaNaNaNaNaNaNaNaNaNaNaa(lp328
NaNaNaNaNaNaNaNaNaNaNaNaa(lp329
NaNaNaNaNaNaNaNaNaNaNaNaa(lp330
NaNaNaNaNaNaNaVButterflyB
p331
aNaNaNaNaa(lp332
NaNaNaNaNaNaNaNaNaNaNaNaa(lp333
NaNaNaNaNaNaNaNaNaNaNaNaa(lp334
NaNaNaNaNaNaNaNaNaNaNaNaa(lp335
NaNaNaNaNaNaNaNaNaNaNaNaa(lp336
NaNaNaNaNaNaNaNaNaNaNaNaa(lp337
NaNaNaNaNaNaNaNaNaNaNaNaa(lp338
NaNaNaNaNaVButterfly
p339
aNaNaNaNaNaNaa(lp340
NaNaNaNaNaNaNaNaNaNaNaNaa(lp341
NaNaNaNaNaNaNaNaNaNaNaNaa(lp342
NaNaNaNaNaNaNaVLevel_End
p343
aNaNaNaNaa(lp344
NaNaNaNaNaNaNaNaNaNaNaNaa(lp345
NaNaNaNaNaNaNaNaNaNaNaNaa(lp346
NaNaNaNaNaNaNaNaNaNaNaNaa(lp347
NaNaNaNaNaNaNaNaNaNaNaNaa(lp348
NaNaNaNaNaNaNaNaNaNaNaNaa(lp349
NaNaNaNaNaNaNaNaNaNaNaNaa(lp350
NaNaNaNaNaNaNaNaNaNaNaNaa(lp351
NaNaNaNaNaNaNaNaNaNaNaNaa(lp352
NaNaNaNaNaNaNaNaNaNaNaNaa(lp353
NaNaNaNaNaNaNaNaNaNaNaNaa(lp354
NaNaNaNaNaNaNaNaNaNaNaNaa(lp355
NaNaNaNaNaNaNaNaNaNaNaNaa(lp356
NaNaNaNaNaNaNaNaNaNaNaNaa(lp357
NaNaNaNaNaNaNaNaNaNaNaNaa(lp358
NaNaNaNaNaNaNaNaNaNaNaNaasS'name'
p359
Vent4
p360
sS'map'
p361
(lp362
(lp363
NaNaNaNaNaNaNaNaNaNaNaNaa(lp364
NaNaNaNaNaNaNaNaNaNaNaNaa(lp365
NaNaNaNaNaNaNaNaNaNaNaNaa(lp366
NaNaNaNaNaNaNaNaNaNaNaNaa(lp367
NaNaNaNaNaNaNaNaNaNaNaNaa(lp368
NaNaNaNaNaNaNaNaNaNaNaNaa(lp369
NaNaNaNaNaNaNaNaNaNaNa(imapping
Tile
p370
(dp371
S'collidetype'
p372
S'BOX'
p373
sS'type'
p374
VF_GrassLedge
p375
sS'friction'
p376
F1
sS'overhead'
p377
I00
sbaa(lp378
NaNaNaNaNaNaNaNaNaNa(imapping
Tile
p379
(dp380
g372
S'NONE'
p381
sg374
VF_Tuft1
p382
sg376
F1
sg377
I00
sba(imapping
Tile
p383
(dp384
g372
g373
sg374
VF_Grass
p385
sg376
F1
sg377
I00
sbaa(lp386
NaNaNaNaNa(imapping
Tile
p387
(dp388
g372
S'NONE_R'
p389
sg374
VF_Shrooms1
p390
sg376
F1
sg377
I00
sba(imapping
Tile
p391
(dp392
g372
g373
sg374
VF_GrassLedge
p393
sg376
F1
sg377
I00
sba(imapping
Tile
p394
(dp395
g372
g373
sg374
VF_Dirt_BL
p396
sg376
F1
sg377
I00
sbaNaNaNa(imapping
Tile
p397
(dp398
g372
g373
sg374
VF_Grass
p399
sg376
F1
sg377
I00
sbaa(lp400
NaNaNaNaNa(imapping
Tile
p401
(dp402
g372
g381
sg374
VF_Shrooms2
p403
sg376
F1
sg377
I00
sba(imapping
Tile
p404
(dp405
g372
g373
sg374
VF_Grass
p406
sg376
F1
sg377
I00
sba(imapping
Tile
p407
(dp408
g372
g373
sg374
VF_Dirtb2
p409
sg376
F1
sg377
I00
sbaNaNa(imapping
Tile
p410
(dp411
g372
g381
sg374
VF_Tuft2
p412
sg376
F1
sg377
I00
sba(imapping
Tile
p413
(dp414
g372
g373
sg374
VF_Grass
p415
sg376
F1
sg377
I00
sbaa(lp416
NaNaNaNaNa(imapping
Tile
p417
(dp418
g372
g381
sg374
VF_Tuft1
p419
sg376
F1
sg377
I00
sba(imapping
Tile
p420
(dp421
g372
g373
sg374
VF_GrassRedge
p422
sg376
F1
sg377
I00
sba(imapping
Tile
p423
(dp424
g372
g373
sg374
VF_Dirt_BR
p425
sg376
F1
sg377
I00
sbaNaNaNa(imapping
Tile
p426
(dp427
g372
g373
sg374
VF_GrassRedge
p428
sg376
F1
sg377
I00
sbaa(lp429
NaNaNaNaNaNaNaNaNaNaNaNaa(lp430
NaNaNaNaNaNaNaNaNaNaNaNaa(lp431
NaNaNaNaNaNaNaNaNaNaNaNaa(lp432
NaNaNaNaNaNaNaNa(imapping
Tile
p433
(dp434
g372
g373
sg374
VF_GrassLedge
p435
sg376
F1
sg377
I00
sba(imapping
Tile
p436
(dp437
g372
g373
sg374
VF_Dirt_L2
p438
sg376
F1
sg377
I00
sba(imapping
Tile
p439
(dp440
g372
g373
sg374
VF_Dirt_L1
p441
sg376
F1
sg377
I00
sba(imapping
Tile
p442
(dp443
g372
g373
sg374
VF_Dirt_L2
p444
sg376
F1
sg377
I00
sbaa(lp445
NaNaNaNaNaNaNa(imapping
Tile
p446
(dp447
g372
g381
sg374
VF_Tuft1
p448
sg376
F1
sg377
I00
sba(imapping
Tile
p449
(dp450
g372
g373
sg374
VF_Grass
p451
sg376
F1
sg377
I00
sba(imapping
Tile
p452
(dp453
g372
g373
sg374
VF_Dirt
p454
sg376
F1
sg377
I00
sba(imapping
Tile
p455
(dp456
g372
g373
sg374
VF_Dirt
p457
sg376
F1
sg377
I00
sba(imapping
Tile
p458
(dp459
g372
g373
sg374
VF_Dirt
p460
sg376
F1
sg377
I00
sbaa(lp461
NaNaNaNaNaNaNa(imapping
Tile
p462
(dp463
g372
g389
sg374
VF_Stump
p464
sg376
F1
sg377
I00
sba(imapping
Tile
p465
(dp466
g372
g373
sg374
VF_Grass
p467
sg376
F1
sg377
I00
sba(imapping
Tile
p468
(dp469
g372
g373
sg374
VF_Dirt
p470
sg376
F1
sg377
I00
sba(imapping
Tile
p471
(dp472
g372
g373
sg374
VF_Dirt
p473
sg376
F1
sg377
I00
sba(imapping
Tile
p474
(dp475
g372
g373
sg374
VF_Dirt
p476
sg376
F1
sg377
I00
sbaa(lp477
NaNaNaNaNaNaNa(imapping
Tile
p478
(dp479
g372
S'RIGHT_HINCLINATION1'
p480
sg374
VF_Right_Halframp1
p481
sg376
F1
sg377
I00
sba(imapping
Tile
p482
(dp483
g372
g373
sg374
VF_HalframpJoinR
p484
sg376
F1
sg377
I00
sba(imapping
Tile
p485
(dp486
g372
g373
sg374
VF_Dirt
p487
sg376
F1
sg377
I00
sba(imapping
Tile
p488
(dp489
g372
g373
sg374
VF_Dirt
p490
sg376
F1
sg377
I00
sba(imapping
Tile
p491
(dp492
g372
g373
sg374
VF_Dirt
p493
sg376
F1
sg377
I00
sbaa(lp494
NaNaNaNaNaNaNa(imapping
Tile
p495
(dp496
g372
S'RIGHT_HINCLINATION2'
p497
sg374
VF_Right_Halframp2
p498
sg376
F1
sg377
I00
sba(imapping
Tile
p499
(dp500
g372
g373
sg374
VF_Dirt
p501
sg376
F1
sg377
I00
sba(imapping
Tile
p502
(dp503
g372
g373
sg374
VF_Dirt
p504
sg376
F1
sg377
I00
sba(imapping
Tile
p505
(dp506
g372
g373
sg374
VF_Dirt
p507
sg376
F1
sg377
I00
sba(imapping
Tile
p508
(dp509
g372
g373
sg374
VF_Dirt
p510
sg376
F1
sg377
I00
sbaa(lp511
NaNaNaNaNaNaNa(imapping
Tile
p512
(dp513
g372
S'LEFT_INCLINATION'
p514
sg374
VF_Left_Ramp
p515
sg376
F1
sg377
I00
sba(imapping
Tile
p516
(dp517
g372
g373
sg374
VF_RampJoinL
p518
sg376
F1
sg377
I00
sba(imapping
Tile
p519
(dp520
g372
g373
sg374
VF_Dirt
p521
sg376
F1
sg377
I00
sba(imapping
Tile
p522
(dp523
g372
g373
sg374
VF_Dirt
p524
sg376
F1
sg377
I00
sba(imapping
Tile
p525
(dp526
g372
g373
sg374
VF_Dirt
p527
sg376
F1
sg377
I00
sbaa(lp528
NaNaNaNaNaNaNaNa(imapping
Tile
p529
(dp530
g372
g514
sg374
VF_Left_Ramp
p531
sg376
F1
sg377
I00
sba(imapping
Tile
p532
(dp533
g372
g373
sg374
VF_RampJoinL
p534
sg376
F1
sg377
I00
sba(imapping
Tile
p535
(dp536
g372
g373
sg374
VF_Dirt
p537
sg376
F1
sg377
I00
sba(imapping
Tile
p538
(dp539
g372
g373
sg374
VF_Dirt
p540
sg376
F1
sg377
I00
sbaa(lp541
NaNaNaNaNaNaNaNa(imapping
Tile
p542
(dp543
g372
g480
sg374
VF_Right_Halframp1
p544
sg376
F1
sg377
I00
sba(imapping
Tile
p545
(dp546
g372
g373
sg374
VF_HalframpJoinR
p547
sg376
F1
sg377
I00
sba(imapping
Tile
p548
(dp549
g372
g373
sg374
VF_Dirt
p550
sg376
F1
sg377
I00
sba(imapping
Tile
p551
(dp552
g372
g373
sg374
VF_Dirt
p553
sg376
F1
sg377
I00
sbaa(lp554
NaNaNaNaNaNaNaNa(imapping
Tile
p555
(dp556
g372
g497
sg374
VF_Right_Halframp2
p557
sg376
F1
sg377
I00
sba(imapping
Tile
p558
(dp559
g372
g373
sg374
VF_Dirt
p560
sg376
F1
sg377
I00
sba(imapping
Tile
p561
(dp562
g372
g373
sg374
VF_Dirt
p563
sg376
F1
sg377
I00
sba(imapping
Tile
p564
(dp565
g372
g373
sg374
VF_Dirt
p566
sg376
F1
sg377
I00
sbaa(lp567
NaNaNaNaNaNaNaNa(imapping
Tile
p568
(dp569
g372
g514
sg374
VF_Left_Ramp
p570
sg376
F1
sg377
I00
sba(imapping
Tile
p571
(dp572
g372
g373
sg374
VF_RampJoinL
p573
sg376
F1
sg377
I00
sba(imapping
Tile
p574
(dp575
g372
g373
sg374
VF_Dirt
p576
sg376
F1
sg377
I00
sba(imapping
Tile
p577
(dp578
g372
g373
sg374
VF_Dirt
p579
sg376
F1
sg377
I00
sbaa(lp580
NaNaNaNaNaNaNaNaNa(imapping
Tile
p581
(dp582
g372
g514
sg374
VF_Left_Ramp
p583
sg376
F1
sg377
I00
sba(imapping
Tile
p584
(dp585
g372
g373
sg374
VF_RampJoinL
p586
sg376
F1
sg377
I00
sba(imapping
Tile
p587
(dp588
g372
g373
sg374
VF_Dirt
p589
sg376
F1
sg377
I00
sbaa(lp590
NaNaNaNaNaNaNaNaNa(imapping
Tile
p591
(dp592
g372
g480
sg374
VF_Right_Halframp1
p593
sg376
F1
sg377
I00
sba(imapping
Tile
p594
(dp595
g372
g373
sg374
VF_HalframpJoinR
p596
sg376
F1
sg377
I00
sba(imapping
Tile
p597
(dp598
g372
g373
sg374
VF_Dirt
p599
sg376
F1
sg377
I00
sbaa(lp600
NaNaNaNaNaNaNaNaNa(imapping
Tile
p601
(dp602
g372
g497
sg374
VF_Right_Halframp2
p603
sg376
F1
sg377
I00
sba(imapping
Tile
p604
(dp605
g372
g373
sg374
VF_Dirt
p606
sg376
F1
sg377
I00
sba(imapping
Tile
p607
(dp608
g372
g373
sg374
VF_Dirt
p609
sg376
F1
sg377
I00
sbaa(lp610
NaNaNaNaNaNaNaNa(imapping
Tile
p611
(dp612
g372
g480
sg374
VF_Right_Halframp1
p613
sg376
F1
sg377
I00
sba(imapping
Tile
p614
(dp615
g372
g373
sg374
VF_HalframpJoinR
p616
sg376
F1
sg377
I00
sba(imapping
Tile
p617
(dp618
g372
g373
sg374
VF_Dirt
p619
sg376
F1
sg377
I00
sba(imapping
Tile
p620
(dp621
g372
g373
sg374
VF_Dirt
p622
sg376
F1
sg377
I00
sbaa(lp623
NaNaNaNaNaNaNaNa(imapping
Tile
p624
(dp625
g372
g497
sg374
VF_Right_Halframp2
p626
sg376
F1
sg377
I00
sba(imapping
Tile
p627
(dp628
g372
g373
sg374
VF_Dirt
p629
sg376
F1
sg377
I00
sba(imapping
Tile
p630
(dp631
g372
g373
sg374
VF_Dirt
p632
sg376
F1
sg377
I00
sba(imapping
Tile
p633
(dp634
g372
g373
sg374
VF_Dirt
p635
sg376
F1
sg377
I00
sbaa(lp636
NaNaNaNaNaNaNaNa(imapping
Tile
p637
(dp638
g372
g514
sg374
VF_Left_Ramp
p639
sg376
F1
sg377
I00
sba(imapping
Tile
p640
(dp641
g372
g373
sg374
VF_RampJoinL
p642
sg376
F1
sg377
I00
sba(imapping
Tile
p643
(dp644
g372
g373
sg374
VF_Dirt
p645
sg376
F1
sg377
I00
sba(imapping
Tile
p646
(dp647
g372
g373
sg374
VF_Dirt
p648
sg376
F1
sg377
I00
sbaa(lp649
NaNaNaNaNaNaNaNa(imapping
Tile
p650
(dp651
g372
g480
sg374
VF_Right_Halframp1
p652
sg376
F1
sg377
I00
sba(imapping
Tile
p653
(dp654
g372
g373
sg374
VF_HalframpJoinR
p655
sg376
F1
sg377
I00
sba(imapping
Tile
p656
(dp657
g372
g373
sg374
VF_Dirt
p658
sg376
F1
sg377
I00
sba(imapping
Tile
p659
(dp660
g372
g373
sg374
VF_Dirt
p661
sg376
F1
sg377
I00
sbaa(lp662
NaNaNaNaNaNaNaNa(imapping
Tile
p663
(dp664
g372
g497
sg374
VF_Right_Halframp2
p665
sg376
F1
sg377
I00
sba(imapping
Tile
p666
(dp667
g372
g373
sg374
VF_Dirt
p668
sg376
F1
sg377
I00
sba(imapping
Tile
p669
(dp670
g372
g373
sg374
VF_Dirt
p671
sg376
F1
sg377
I00
sba(imapping
Tile
p672
(dp673
g372
g373
sg374
VF_Dirt
p674
sg376
F1
sg377
I00
sbaa(lp675
NaNaNaNaNaNaNa(imapping
Tile
p676
(dp677
g372
g480
sg374
VF_Right_Halframp1
p678
sg376
F1
sg377
I00
sba(imapping
Tile
p679
(dp680
g372
g373
sg374
VF_HalframpJoinR
p681
sg376
F1
sg377
I00
sba(imapping
Tile
p682
(dp683
g372
g373
sg374
VF_Dirt
p684
sg376
F1
sg377
I00
sba(imapping
Tile
p685
(dp686
g372
g373
sg374
VF_Dirt
p687
sg376
F1
sg377
I00
sba(imapping
Tile
p688
(dp689
g372
g373
sg374
VF_Dirt
p690
sg376
F1
sg377
I00
sbaa(lp691
NaNaNaNaNaNaNa(imapping
Tile
p692
(dp693
g372
g497
sg374
VF_Right_Halframp2
p694
sg376
F1
sg377
I00
sba(imapping
Tile
p695
(dp696
g372
g373
sg374
VF_Dirt
p697
sg376
F1
sg377
I00
sba(imapping
Tile
p698
(dp699
g372
g373
sg374
VF_Dirt
p700
sg376
F1
sg377
I00
sba(imapping
Tile
p701
(dp702
g372
g373
sg374
VF_Dirt
p703
sg376
F1
sg377
I00
sba(imapping
Tile
p704
(dp705
g372
g373
sg374
VF_Dirt
p706
sg376
F1
sg377
I00
sbaa(lp707
NaNaNaNaNaNaNa(imapping
Tile
p708
(dp709
g372
g514
sg374
VF_Left_Ramp
p710
sg376
F1
sg377
I00
sba(imapping
Tile
p711
(dp712
g372
g373
sg374
VF_RampJoinL
p713
sg376
F1
sg377
I00
sba(imapping
Tile
p714
(dp715
g372
g373
sg374
VF_Dirt
p716
sg376
F1
sg377
I00
sba(imapping
Tile
p717
(dp718
g372
g373
sg374
VF_Dirt
p719
sg376
F1
sg377
I00
sba(imapping
Tile
p720
(dp721
g372
g373
sg374
VF_Dirt
p722
sg376
F1
sg377
I00
sbaa(lp723
NaNaNaNaNaNaNaNa(imapping
Tile
p724
(dp725
g372
g373
sg374
VF_Grass
p726
sg376
F1
sg377
I00
sba(imapping
Tile
p727
(dp728
g372
g373
sg374
VF_Dirt
p729
sg376
F1
sg377
I00
sba(imapping
Tile
p730
(dp731
g372
g373
sg374
VF_Dirt
p732
sg376
F1
sg377
I00
sba(imapping
Tile
p733
(dp734
g372
g373
sg374
VF_Dirt
p735
sg376
F1
sg377
I00
sbaa(lp736
NaNaNaNaNaNaNa(imapping
Tile
p737
(dp738
g372
g389
sg374
VF_Shrooms3
p739
sg376
F1
sg377
I00
sba(imapping
Tile
p740
(dp741
g372
g373
sg374
VF_Grass
p742
sg376
F1
sg377
I00
sba(imapping
Tile
p743
(dp744
g372
g373
sg374
VF_Dirt
p745
sg376
F1
sg377
I00
sba(imapping
Tile
p746
(dp747
g372
g373
sg374
VF_Dirt
p748
sg376
F1
sg377
I00
sba(imapping
Tile
p749
(dp750
g372
g373
sg374
VF_Dirt
p751
sg376
F1
sg377
I00
sbaa(lp752
NaNaNaNaNaNaNaNa(imapping
Tile
p753
(dp754
g372
g373
sg374
VF_GrassRedge
p755
sg376
F1
sg377
I00
sba(imapping
Tile
p756
(dp757
g372
g373
sg374
VF_Dirt_R1
p758
sg376
F1
sg377
I00
sba(imapping
Tile
p759
(dp760
g372
g373
sg374
VF_Grass->DirtR
p761
sg376
F1
sg377
I00
sba(imapping
Tile
p762
(dp763
g372
g373
sg374
VF_Dirt
p764
sg376
F1
sg377
I00
sbaa(lp765
NaNaNaNaNaNaNaNaNa(imapping
Tile
p766
(dp767
g372
g389
sg374
VF_Shrooms1
p768
sg376
F1
sg377
I00
sba(imapping
Tile
p769
(dp770
g372
g373
sg374
VF_Grass
p771
sg376
F1
sg377
I00
sba(imapping
Tile
p772
(dp773
g372
g373
sg374
VF_Dirt
p774
sg376
F1
sg377
I00
sbaa(lp775
NaNaNaNaNaNaNaNaNaNa(imapping
Tile
p776
(dp777
g372
g373
sg374
VF_Grass
p778
sg376
F1
sg377
I00
sba(imapping
Tile
p779
(dp780
g372
g373
sg374
VF_Dirt
p781
sg376
F1
sg377
I00
sbaa(lp782
NaNaNaNaNaNaNaNaNa(imapping
Tile
p783
(dp784
g372
g381
sg374
VF_Tuft2
p785
sg376
F1
sg377
I00
sba(imapping
Tile
p786
(dp787
g372
g373
sg374
VF_Grass
p788
sg376
F1
sg377
I00
sba(imapping
Tile
p789
(dp790
g372
g373
sg374
VF_Dirt
p791
sg376
F1
sg377
I00
sbaa(lp792
NaNaNaNaNaNaNaNa(imapping
Tile
p793
(dp794
g372
g373
sg374
VF_GrassLedge
p795
sg376
F1
sg377
I00
sba(imapping
Tile
p796
(dp797
g372
g373
sg374
VF_Dirt_L2
p798
sg376
F1
sg377
I00
sba(imapping
Tile
p799
(dp800
g372
g373
sg374
VF_Grass->DirtL
p801
sg376
F1
sg377
I00
sba(imapping
Tile
p802
(dp803
g372
g373
sg374
VF_Dirt
p804
sg376
F1
sg377
I00
sbaa(lp805
NaNaNaNaNaNaNaNa(imapping
Tile
p806
(dp807
g372
g373
sg374
VF_GrassRedge
p808
sg376
F1
sg377
I00
sba(imapping
Tile
p809
(dp810
g372
g373
sg374
VF_Dirt_R1
p811
sg376
F1
sg377
I00
sba(imapping
Tile
p812
(dp813
g372
g373
sg374
VF_Dirt_R1
p814
sg376
F1
sg377
I00
sba(imapping
Tile
p815
(dp816
g372
g373
sg374
VF_Dirt_R1
p817
sg376
F1
sg377
I00
sbaa(lp818
NaNaNaNaNaNaNaNaNaNaNaNaa(lp819
NaNaNaNaNa(imapping
Tile
p820
(dp821
g372
g381
sg374
VF_Tuft1
p822
sg376
F1
sg377
I00
sba(imapping
Tile
p823
(dp824
g372
g373
sg374
VF_GrassLedge
p825
sg376
F1
sg377
I00
sba(imapping
Tile
p826
(dp827
g372
g373
sg374
VF_Dirt_L1
p828
sg376
F1
sg377
I00
sba(imapping
Tile
p829
(dp830
g372
g373
sg374
VF_Dirt_L2
p831
sg376
F1
sg377
I00
sba(imapping
Tile
p832
(dp833
g372
g373
sg374
VF_Dirt_L1
p834
sg376
F1
sg377
I00
sba(imapping
Tile
p835
(dp836
g372
g373
sg374
VF_Dirt_L2
p837
sg376
F1
sg377
I00
sba(imapping
Tile
p838
(dp839
g372
g373
sg374
VF_Dirt_L1
p840
sg376
F1
sg377
I00
sbaa(lp841
NaNaNaNaNaNa(imapping
Tile
p842
(dp843
g372
g373
sg374
VF_GrassRedge
p844
sg376
F1
sg377
I00
sba(imapping
Tile
p845
(dp846
g372
g373
sg374
VF_Dirt_R1
p847
sg376
F1
sg377
I00
sba(imapping
Tile
p848
(dp849
g372
g373
sg374
VF_Dirt_R2
p850
sg376
F1
sg377
I00
sba(imapping
Tile
p851
(dp852
g372
g373
sg374
VF_Dirt_R1
p853
sg376
F1
sg377
I00
sba(imapping
Tile
p854
(dp855
g372
g373
sg374
VF_Dirt_R2
p856
sg376
F1
sg377
I00
sba(imapping
Tile
p857
(dp858
g372
g373
sg374
VF_Dirt_R1
p859
sg376
F1
sg377
I00
sbaa(lp860
NaNaNaNaNaNaNaNaNaNaNaNaa(lp861
NaNaNaNaNaNaNaNaNaNaNaNaa(lp862
NaNaNaNaNaNaNaNa(imapping
Tile
p863
(dp864
g372
g373
sg374
VF_GrassLedge
p865
sg376
F1
sg377
I00
sba(imapping
Tile
p866
(dp867
g372
g373
sg374
VF_Dirt_L1
p868
sg376
F1
sg377
I00
sba(imapping
Tile
p869
(dp870
g372
g373
sg374
VF_Dirt_L2
p871
sg376
F1
sg377
I00
sba(imapping
Tile
p872
(dp873
g372
g373
sg374
VF_Dirt_L1
p874
sg376
F1
sg377
I00
sbaa(lp875
NaNaNaNaNaNaNa(imapping
Tile
p876
(dp877
g372
g381
sg374
VF_Shrooms2
p878
sg376
F1
sg377
I00
sba(imapping
Tile
p879
(dp880
g372
g373
sg374
VF_GrassRedge
p881
sg376
F1
sg377
I00
sba(imapping
Tile
p882
(dp883
g372
g373
sg374
VF_Dirt_R1
p884
sg376
F1
sg377
I00
sba(imapping
Tile
p885
(dp886
g372
g373
sg374
VF_Dirt_R2
p887
sg376
F1
sg377
I00
sba(imapping
Tile
p888
(dp889
g372
g373
sg374
VF_Dirt_R2
p890
sg376
F1
sg377
I00
sbaa(lp891
NaNaNaNaNaNaNaNaNaNaNaNaa(lp892
NaNaNaNaNaNaNaNaNaNaNaNaa(lp893
NaNaNaNaNaNaNaNaNaNaNaNaa(lp894
NaNaNaNaNaNaNaNaNaNa(imapping
Tile
p895
(dp896
g372
g389
sg374
VF_Shrooms1
p897
sg376
F1
sg377
I00
sba(imapping
Tile
p898
(dp899
g372
g373
sg374
VF_GrassLedge
p900
sg376
F1
sg377
I00
sbaa(lp901
NaNaNaNaNaNaNaNaNaNaNa(imapping
Tile
p902
(dp903
g372
g373
sg374
VF_GrassRedge
p904
sg376
F1
sg377
I00
sbaa(lp905
NaNaNaNaNaNaNaNaNaNaNaNaa(lp906
NaNaNaNaNaNaNaNa(imapping
Tile
p907
(dp908
g372
g381
sg374
VF_Tuft1
p909
sg376
F1
sg377
I00
sba(imapping
Tile
p910
(dp911
g372
g373
sg374
VF_GrassLedge
p912
sg376
F1
sg377
I00
sba(imapping
Tile
p913
(dp914
g372
g373
sg374
VF_Dirt_L2
p915
sg376
F1
sg377
I00
sba(imapping
Tile
p916
(dp917
g372
g373
sg374
VF_Dirt_L2
p918
sg376
F1
sg377
I00
sbaa(lp919
NaNaNaNaNaNaNaNa(imapping
Tile
p920
(dp921
g372
g381
sg374
VF_Tuft1
p922
sg376
F1
sg377
I00
sba(imapping
Tile
p923
(dp924
g372
g373
sg374
VF_GrassRedge
p925
sg376
F1
sg377
I00
sba(imapping
Tile
p926
(dp927
g372
g373
sg374
VF_Dirt_R1
p928
sg376
F1
sg377
I00
sba(imapping
Tile
p929
(dp930
g372
g373
sg374
VF_Dirt_R2
p931
sg376
F1
sg377
I00
sbaa(lp932
NaNaNaNaNaNaNaNaNaNaNaNaa(lp933
NaNaNaNaNaNaNaNaNaNaNaNaa(lp934
NaNaNaNaNaNaNaNaNaNaNaNaa(lp935
NaNaNaNaNaNaNaNaNa(imapping
Tile
p936
(dp937
g372
g373
sg374
VF_GrassLedge
p938
sg376
F1
sg377
I00
sba(imapping
Tile
p939
(dp940
g372
g373
sg374
VF_Dirt_L2
p941
sg376
F1
sg377
I00
sba(imapping
Tile
p942
(dp943
g372
g373
sg374
VF_Dirt_L2
p944
sg376
F1
sg377
I00
sbaa(lp945
NaNaNaNaNaNaNa(imapping
Tile
p946
(dp947
g372
g373
sg374
VF_GrassLedge
p948
sg376
F1
sg377
I00
sba(imapping
Tile
p949
(dp950
g372
g373
sg374
VF_Dirt_L2
p951
sg376
F1
sg377
I00
sba(imapping
Tile
p952
(dp953
g372
g373
sg374
VF_Grass->DirtL
p954
sg376
F1
sg377
I00
sba(imapping
Tile
p955
(dp956
g372
g373
sg374
VF_Dirt
p957
sg376
F1
sg377
I00
sba(imapping
Tile
p958
(dp959
g372
g373
sg374
VF_Dirt
p960
sg376
F1
sg377
I00
sbaa(lp961
NaNaNaNaNaNa(imapping
Tile
p962
(dp963
g372
g373
sg374
VF_GrassLedge
p964
sg376
F1
sg377
I00
sba(imapping
Tile
p965
(dp966
g372
g373
sg374
VF_Grass->DirtL
p967
sg376
F1
sg377
I00
sba(imapping
Tile
p968
(dp969
g372
g373
sg374
VF_Dirt
p970
sg376
F1
sg377
I00
sba(imapping
Tile
p971
(dp972
g372
g373
sg374
VF_Dirt
p973
sg376
F1
sg377
I00
sba(imapping
Tile
p974
(dp975
g372
g373
sg374
VF_Dirt
p976
sg376
F1
sg377
I00
sba(imapping
Tile
p977
(dp978
g372
g373
sg374
VF_Dirt
p979
sg376
F1
sg377
I00
sbaa(lp980
NaNaNaNaNaNa(imapping
Tile
p981
(dp982
g372
g373
sg374
VF_GrassRedge
p983
sg376
F1
sg377
I00
sba(imapping
Tile
p984
(dp985
g372
g373
sg374
VF_Dirt_R1
p986
sg376
F1
sg377
I00
sba(imapping
Tile
p987
(dp988
g372
g373
sg374
VF_Dirt_R1
p989
sg376
F1
sg377
I00
sba(imapping
Tile
p990
(dp991
g372
g373
sg374
VF_Dirt_R1
p992
sg376
F1
sg377
I00
sba(imapping
Tile
p993
(dp994
g372
g373
sg374
VF_Grass->DirtR
p995
sg376
F1
sg377
I00
sba(imapping
Tile
p996
(dp997
g372
g373
sg374
VF_Dirt
p998
sg376
F1
sg377
I00
sbaa(lp999
NaNaNaNaNaNaNaNaNaNa(imapping
Tile
p1000
(dp1001
g372
g373
sg374
VF_GrassRedge
p1002
sg376
F1
sg377
I00
sba(imapping
Tile
p1003
(dp1004
g372
g373
sg374
VF_Dirt_R1
p1005
sg376
F1
sg377
I00
sbaa(lp1006
NaNaNaNaNaNaNaNaNaNaNaNaa(lp1007
NaNaNaNaNaNaNaNaNaNaNaNaa(lp1008
NaNaNaNaNaNaNaNaNaNaNaNaa(lp1009
NaNaNaNaNaNaNaNaNaNa(imapping
Tile
p1010
(dp1011
g372
g373
sg374
VF_GrassLedge
p1012
sg376
F1
sg377
I00
sba(imapping
Tile
p1013
(dp1014
g372
g373
sg374
VF_Dirt_L2
p1015
sg376
F1
sg377
I00
sbaa(lp1016
NaNaNaNaNaNaNaNaNaNa(imapping
Tile
p1017
(dp1018
g372
g514
sg374
VF_Left_Ramp
p1019
sg376
F1
sg377
I00
sba(imapping
Tile
p1020
(dp1021
g372
g373
sg374
VF_RampJoinL
p1022
sg376
F1
sg377
I00
sbaa(lp1023
NaNaNaNaNaNaNaNaNaNaNa(imapping
Tile
p1024
(dp1025
g372
g373
sg374
VF_GrassRedge
p1026
sg376
F1
sg377
I00
sbaa(lp1027
NaNaNaNaNaNaNaNaNaNaNaNaa(lp1028
NaNaNaNaNaNaNaNaNaNaNaNaa(lp1029
NaNaNaNaNaNaNaNaNaNaNaNaa(lp1030
NaNaNaNaNaNaNaNaNaNa(imapping
Tile
p1031
(dp1032
g372
g389
sg374
VF_Shrooms1
p1033
sg376
F1
sg377
I00
sba(imapping
Tile
p1034
(dp1035
g372
g373
sg374
VF_GrassLedge
p1036
sg376
F1
sg377
I00
sbaa(lp1037
NaNaNaNaNaNaNaNaNaNaNa(imapping
Tile
p1038
(dp1039
g372
g373
sg374
VF_Grass->Dirttop
p1040
sg376
F1
sg377
I00
sbaa(lp1041
NaNaNaNaNaNaNaNaNaNaNa(imapping
Tile
p1042
(dp1043
g372
g373
sg374
VF_Dirttop
p1044
sg376
F1
sg377
I00
sbaa(lp1045
NaNaNaNaNaNaNaNaNaNaNa(imapping
Tile
p1046
(dp1047
g372
g373
sg374
VF_Dirttop
p1048
sg376
F1
sg377
I00
sbaa(lp1049
NaNaNaNaNaNaNaNaNaNaNa(imapping
Tile
p1050
(dp1051
g372
g373
sg374
VF_Dirttop
p1052
sg376
F1
sg377
I00
sbaa(lp1053
NaNaNaNaNaNaNaNaNaNaNa(imapping
Tile
p1054
(dp1055
g372
g373
sg374
VF_Dirttop
p1056
sg376
F1
sg377
I00
sbaa(lp1057
NaNaNaNaNaNaNaNaNaNa(imapping
Tile
p1058
(dp1059
g372
g389
sg374
VF_Shrooms3
p1060
sg376
F1
sg377
I00
sba(imapping
Tile
p1061
(dp1062
g372
g373
sg374
VF_Dirttop
p1063
sg376
F1
sg377
I00
sbaa(lp1064
NaNaNaNaNaNaNaNaNaNaNa(imapping
Tile
p1065
(dp1066
g372
g373
sg374
VF_Dirttop
p1067
sg376
F1
sg377
I00
sbaa(lp1068
NaNaNaNaNaNaNaNaNaNaNa(imapping
Tile
p1069
(dp1070
g372
g373
sg374
VF_Dirttop
p1071
sg376
F1
sg377
I00
sbaa(lp1072
NaNaNaNaNaNaNaNaNaNaNa(imapping
Tile
p1073
(dp1074
g372
g373
sg374
VF_Dirttop
p1075
sg376
F1
sg377
I00
sbaa(lp1076
NaNaNaNaNaNaNaNaNaNaNa(imapping
Tile
p1077
(dp1078
g372
g373
sg374
VF_Dirttop
p1079
sg376
F1
sg377
I00
sbaa(lp1080
NaNaNaNaNaNaNaNaNaNaNa(imapping
Tile
p1081
(dp1082
g372
g373
sg374
VF_Dirttop
p1083
sg376
F1
sg377
I00
sbaa(lp1084
NaNaNaNaNaNaNaNaNaNaNa(imapping
Tile
p1085
(dp1086
g372
g373
sg374
VF_Dirttop
p1087
sg376
F1
sg377
I00
sbaa(lp1088
NaNaNaNaNaNaNaNaNaNaNa(imapping
Tile
p1089
(dp1090
g372
g373
sg374
VF_Dirttop
p1091
sg376
F1
sg377
I00
sbaa(lp1092
NaNaNaNaNaNaNaNaNaNaNa(imapping
Tile
p1093
(dp1094
g372
g373
sg374
VF_Dirttop
p1095
sg376
F1
sg377
I00
sbaa(lp1096
NaNaNaNaNaNaNaNaNaNaNa(imapping
Tile
p1097
(dp1098
g372
g373
sg374
VF_Dirttop
p1099
sg376
F1
sg377
I00
sbaa(lp1100
NaNaNaNaNaNaNaNaNaNaNa(imapping
Tile
p1101
(dp1102
g372
g373
sg374
VF_Dirttop
p1103
sg376
F1
sg377
I00
sbaa(lp1104
NaNaNaNaNaNaNaNaNaNaNa(imapping
Tile
p1105
(dp1106
g372
g373
sg374
VF_Dirttop
p1107
sg376
F1
sg377
I00
sbaa(lp1108
NaNaNaNaNaNaNaNaNaNaNa(imapping
Tile
p1109
(dp1110
g372
g373
sg374
VF_Dirttop
p1111
sg376
F1
sg377
I00
sbaa(lp1112
NaNaNaNaNaNaNaNaNaNaNa(imapping
Tile
p1113
(dp1114
g372
g373
sg374
VF_Dirttop
p1115
sg376
F1
sg377
I00
sbaa(lp1116
NaNaNaNaNaNaNaNaNaNaNa(imapping
Tile
p1117
(dp1118
g372
g373
sg374
VF_Dirttop
p1119
sg376
F1
sg377
I00
sbaa(lp1120
NaNaNaNaNaNaNaNaNaNaNa(imapping
Tile
p1121
(dp1122
g372
g373
sg374
VF_Dirttop
p1123
sg376
F1
sg377
I00
sbaa(lp1124
NaNaNaNaNaNaNaNaNaNaNa(imapping
Tile
p1125
(dp1126
g372
g373
sg374
VF_Dirttop
p1127
sg376
F1
sg377
I00
sbaa(lp1128
NaNaNaNaNaNaNaNaNaNaNa(imapping
Tile
p1129
(dp1130
g372
g373
sg374
VF_Dirttop->Grass
p1131
sg376
F1
sg377
I00
sbaa(lp1132
NaNaNaNaNaNaNaNaNaNa(imapping
Tile
p1133
(dp1134
g372
g381
sg374
VF_Shrooms2
p1135
sg376
F1
sg377
I00
sba(imapping
Tile
p1136
(dp1137
g372
g373
sg374
VF_GrassRedge
p1138
sg376
F1
sg377
I00
sbaa(lp1139
NaNaNaNaNaNaNaNaNaNaNaNaa(lp1140
NaNaNaNaNaNaNaNaNaNaNaNaa(lp1141
NaNaNaNaNaNaNaNaNaNaNaNaa(lp1142
NaNaNaNaNaNaNaNaNaNaNa(imapping
Tile
p1143
(dp1144
g372
g373
sg374
VF_GrassLedge
p1145
sg376
F1
sg377
I00
sbaa(lp1146
NaNaNaNaNaNaNaNaNaNa(imapping
Tile
p1147
(dp1148
g372
S'RIGHT_INCLINATION'
p1149
sg374
VF_Right_Ramp
p1150
sg376
F1
sg377
I00
sba(imapping
Tile
p1151
(dp1152
g372
g373
sg374
VF_RampJoinR
p1153
sg376
F1
sg377
I00
sbaa(lp1154
NaNaNaNaNaNaNaNaNa(imapping
Tile
p1155
(dp1156
g372
g1149
sg374
VF_Right_Ramp
p1157
sg376
F1
sg377
I00
sba(imapping
Tile
p1158
(dp1159
g372
g373
sg374
VF_RampJoinR
p1160
sg376
F1
sg377
I00
sba(imapping
Tile
p1161
(dp1162
g372
g373
sg374
VF_Dirt
p1163
sg376
F1
sg377
I00
sbaa(lp1164
NaNaNaNaNaNaNaNa(imapping
Tile
p1165
(dp1166
g372
g1149
sg374
VF_Right_Ramp
p1167
sg376
F1
sg377
I00
sba(imapping
Tile
p1168
(dp1169
g372
g373
sg374
VF_RampJoinR
p1170
sg376
F1
sg377
I00
sba(imapping
Tile
p1171
(dp1172
g372
g373
sg374
VF_Dirt
p1173
sg376
F1
sg377
I00
sba(imapping
Tile
p1174
(dp1175
g372
g373
sg374
VF_Dirt
p1176
sg376
F1
sg377
I00
sbaa(lp1177
NaNaNaNaNaNaNaNa(imapping
Tile
p1178
(dp1179
g372
g373
sg374
VF_Grass
p1180
sg376
F1
sg377
I00
sba(imapping
Tile
p1181
(dp1182
g372
g373
sg374
VF_Dirt
p1183
sg376
F1
sg377
I00
sba(imapping
Tile
p1184
(dp1185
g372
g373
sg374
VF_Dirt
p1186
sg376
F1
sg377
I00
sba(imapping
Tile
p1187
(dp1188
g372
g373
sg374
VF_Dirt
p1189
sg376
F1
sg377
I00
sbaa(lp1190
NaNaNaNaNaNaNaNa(imapping
Tile
p1191
(dp1192
g372
g373
sg374
VF_Grass
p1193
sg376
F1
sg377
I00
sba(imapping
Tile
p1194
(dp1195
g372
g373
sg374
VF_Dirt
p1196
sg376
F1
sg377
I00
sba(imapping
Tile
p1197
(dp1198
g372
g373
sg374
VF_Dirt
p1199
sg376
F1
sg377
I00
sba(imapping
Tile
p1200
(dp1201
g372
g373
sg374
VF_Dirt
p1202
sg376
F1
sg377
I00
sbaa(lp1203
NaNaNaNaNaNaNaNa(imapping
Tile
p1204
(dp1205
g372
g373
sg374
VF_Grass
p1206
sg376
F1
sg377
I00
sba(imapping
Tile
p1207
(dp1208
g372
g373
sg374
VF_Dirt
p1209
sg376
F1
sg377
I00
sba(imapping
Tile
p1210
(dp1211
g372
g373
sg374
VF_Dirt
p1212
sg376
F1
sg377
I00
sba(imapping
Tile
p1213
(dp1214
g372
g373
sg374
VF_Dirt
p1215
sg376
F1
sg377
I00
sbaa(lp1216
NaNaNaNaNaNaNaNa(imapping
Tile
p1217
(dp1218
g372
g373
sg374
VF_Grass
p1219
sg376
F1
sg377
I00
sba(imapping
Tile
p1220
(dp1221
g372
g373
sg374
VF_Dirt
p1222
sg376
F1
sg377
I00
sba(imapping
Tile
p1223
(dp1224
g372
g373
sg374
VF_Dirt
p1225
sg376
F1
sg377
I00
sba(imapping
Tile
p1226
(dp1227
g372
g373
sg374
VF_Dirt
p1228
sg376
F1
sg377
I00
sbaa(lp1229
NaNaNaNaNaNaNaNa(imapping
Tile
p1230
(dp1231
g372
g373
sg374
VF_Grass
p1232
sg376
F1
sg377
I00
sba(imapping
Tile
p1233
(dp1234
g372
g373
sg374
VF_Dirt
p1235
sg376
F1
sg377
I00
sba(imapping
Tile
p1236
(dp1237
g372
g373
sg374
VF_Dirt
p1238
sg376
F1
sg377
I00
sba(imapping
Tile
p1239
(dp1240
g372
g373
sg374
VF_Dirt
p1241
sg376
F1
sg377
I00
sbaa(lp1242
NaNaNaNaNaNaNaNa(imapping
Tile
p1243
(dp1244
g372
g373
sg374
VF_Grass
p1245
sg376
F1
sg377
I00
sba(imapping
Tile
p1246
(dp1247
g372
g373
sg374
VF_Dirt
p1248
sg376
F1
sg377
I00
sba(imapping
Tile
p1249
(dp1250
g372
g373
sg374
VF_Dirt
p1251
sg376
F1
sg377
I00
sba(imapping
Tile
p1252
(dp1253
g372
g373
sg374
VF_Dirt
p1254
sg376
F1
sg377
I00
sbaa(lp1255
NaNaNaNaNaNaNaNa(imapping
Tile
p1256
(dp1257
g372
g373
sg374
VF_Grass
p1258
sg376
F1
sg377
I00
sba(imapping
Tile
p1259
(dp1260
g372
g373
sg374
VF_Dirt
p1261
sg376
F1
sg377
I00
sba(imapping
Tile
p1262
(dp1263
g372
g373
sg374
VF_Dirt
p1264
sg376
F1
sg377
I00
sba(imapping
Tile
p1265
(dp1266
g372
g373
sg374
VF_Dirt
p1267
sg376
F1
sg377
I00
sbaa(lp1268
NaNaNaNaNaNaNaNa(imapping
Tile
p1269
(dp1270
g372
g373
sg374
VF_Grass
p1271
sg376
F1
sg377
I00
sba(imapping
Tile
p1272
(dp1273
g372
g373
sg374
VF_Dirt
p1274
sg376
F1
sg377
I00
sba(imapping
Tile
p1275
(dp1276
g372
g373
sg374
VF_Dirt
p1277
sg376
F1
sg377
I00
sba(imapping
Tile
p1278
(dp1279
g372
g373
sg374
VF_Dirt
p1280
sg376
F1
sg377
I00
sbaa(lp1281
NaNaNaNaNaNaNa(imapping
Tile
p1282
(dp1283
g372
g389
sg374
VF_Stump
p1284
sg376
F1
sg377
I00
sba(imapping
Tile
p1285
(dp1286
g372
g373
sg374
VF_Grass
p1287
sg376
F1
sg377
I00
sba(imapping
Tile
p1288
(dp1289
g372
g373
sg374
VF_Dirt
p1290
sg376
F1
sg377
I00
sba(imapping
Tile
p1291
(dp1292
g372
g373
sg374
VF_Dirt
p1293
sg376
F1
sg377
I00
sba(imapping
Tile
p1294
(dp1295
g372
g373
sg374
VF_Dirt
p1296
sg376
F1
sg377
I00
sbaa(lp1297
NaNaNaNaNaNaNaNa(imapping
Tile
p1298
(dp1299
g372
g373
sg374
VF_Grass
p1300
sg376
F1
sg377
I00
sba(imapping
Tile
p1301
(dp1302
g372
g373
sg374
VF_Dirt
p1303
sg376
F1
sg377
I00
sba(imapping
Tile
p1304
(dp1305
g372
g373
sg374
VF_Dirt
p1306
sg376
F1
sg377
I00
sba(imapping
Tile
p1307
(dp1308
g372
g373
sg374
VF_Dirt
p1309
sg376
F1
sg377
I00
sbaa(lp1310
NaNaNaNaNaNaNaNa(imapping
Tile
p1311
(dp1312
g372
g373
sg374
VF_Grass
p1313
sg376
F1
sg377
I00
sba(imapping
Tile
p1314
(dp1315
g372
g373
sg374
VF_Dirt
p1316
sg376
F1
sg377
I00
sba(imapping
Tile
p1317
(dp1318
g372
g373
sg374
VF_Dirt
p1319
sg376
F1
sg377
I00
sba(imapping
Tile
p1320
(dp1321
g372
g373
sg374
VF_Dirt
p1322
sg376
F1
sg377
I00
sbaa(lp1323
NaNaNaNaNaNaNaNa(imapping
Tile
p1324
(dp1325
g372
g373
sg374
VF_Grass
p1326
sg376
F1
sg377
I00
sba(imapping
Tile
p1327
(dp1328
g372
g373
sg374
VF_Dirt
p1329
sg376
F1
sg377
I00
sba(imapping
Tile
p1330
(dp1331
g372
g373
sg374
VF_Dirt
p1332
sg376
F1
sg377
I00
sba(imapping
Tile
p1333
(dp1334
g372
g373
sg374
VF_Dirt
p1335
sg376
F1
sg377
I00
sbaa(lp1336
NaNaNaNaNaNaNaNa(imapping
Tile
p1337
(dp1338
g372
g373
sg374
VF_Grass
p1339
sg376
F1
sg377
I00
sba(imapping
Tile
p1340
(dp1341
g372
g373
sg374
VF_Dirt
p1342
sg376
F1
sg377
I00
sba(imapping
Tile
p1343
(dp1344
g372
g373
sg374
VF_Dirt
p1345
sg376
F1
sg377
I00
sba(imapping
Tile
p1346
(dp1347
g372
g373
sg374
VF_Dirt
p1348
sg376
F1
sg377
I00
sbaa(lp1349
NaNaNaNaNaNaNaNa(imapping
Tile
p1350
(dp1351
g372
g373
sg374
VF_Grass
p1352
sg376
F1
sg377
I00
sba(imapping
Tile
p1353
(dp1354
g372
g373
sg374
VF_Dirt
p1355
sg376
F1
sg377
I00
sba(imapping
Tile
p1356
(dp1357
g372
g373
sg374
VF_Dirt
p1358
sg376
F1
sg377
I00
sba(imapping
Tile
p1359
(dp1360
g372
g373
sg374
VF_Dirt
p1361
sg376
F1
sg377
I00
sbaa(lp1362
NaNaNaNaNaNaNaNa(imapping
Tile
p1363
(dp1364
g372
g373
sg374
VF_Grass
p1365
sg376
F1
sg377
I00
sba(imapping
Tile
p1366
(dp1367
g372
g373
sg374
VF_Dirt
p1368
sg376
F1
sg377
I00
sba(imapping
Tile
p1369
(dp1370
g372
g373
sg374
VF_Dirt
p1371
sg376
F1
sg377
I00
sba(imapping
Tile
p1372
(dp1373
g372
g373
sg374
VF_Dirt
p1374
sg376
F1
sg377
I00
sbaa(lp1375
NaNaNaNaNaNaNaNa(imapping
Tile
p1376
(dp1377
g372
g373
sg374
VF_Grass
p1378
sg376
F1
sg377
I00
sba(imapping
Tile
p1379
(dp1380
g372
g373
sg374
VF_Dirt
p1381
sg376
F1
sg377
I00
sba(imapping
Tile
p1382
(dp1383
g372
g373
sg374
VF_Dirt
p1384
sg376
F1
sg377
I00
sba(imapping
Tile
p1385
(dp1386
g372
g373
sg374
VF_Dirt
p1387
sg376
F1
sg377
I00
sbaa(lp1388
NaNaNaNaNaNaNaNa(imapping
Tile
p1389
(dp1390
g372
g373
sg374
VF_Grass
p1391
sg376
F1
sg377
I00
sba(imapping
Tile
p1392
(dp1393
g372
g373
sg374
VF_Dirt
p1394
sg376
F1
sg377
I00
sba(imapping
Tile
p1395
(dp1396
g372
g373
sg374
VF_Dirt
p1397
sg376
F1
sg377
I00
sba(imapping
Tile
p1398
(dp1399
g372
g373
sg374
VF_Dirt
p1400
sg376
F1
sg377
I00
sbaa(lp1401
NaNaNaNaNaNaNaNa(imapping
Tile
p1402
(dp1403
g372
g373
sg374
VF_Grass
p1404
sg376
F1
sg377
I00
sba(imapping
Tile
p1405
(dp1406
g372
g373
sg374
VF_Dirt
p1407
sg376
F1
sg377
I00
sba(imapping
Tile
p1408
(dp1409
g372
g373
sg374
VF_Dirt
p1410
sg376
F1
sg377
I00
sba(imapping
Tile
p1411
(dp1412
g372
g373
sg374
VF_Dirt
p1413
sg376
F1
sg377
I00
sbaa(lp1414
NaNaNaNaNaNaNaNa(imapping
Tile
p1415
(dp1416
g372
g373
sg374
VF_Grass
p1417
sg376
F1
sg377
I00
sba(imapping
Tile
p1418
(dp1419
g372
g373
sg374
VF_Dirt
p1420
sg376
F1
sg377
I00
sba(imapping
Tile
p1421
(dp1422
g372
g373
sg374
VF_Dirt
p1423
sg376
F1
sg377
I00
sba(imapping
Tile
p1424
(dp1425
g372
g373
sg374
VF_Dirt
p1426
sg376
F1
sg377
I00
sbaa(lp1427
NaNaNaNaNaNaNaNa(imapping
Tile
p1428
(dp1429
g372
g373
sg374
VF_Grass
p1430
sg376
F1
sg377
I00
sba(imapping
Tile
p1431
(dp1432
g372
g373
sg374
VF_Dirt
p1433
sg376
F1
sg377
I00
sba(imapping
Tile
p1434
(dp1435
g372
g373
sg374
VF_Dirt
p1436
sg376
F1
sg377
I00
sba(imapping
Tile
p1437
(dp1438
g372
g373
sg374
VF_Dirt
p1439
sg376
F1
sg377
I00
sbaa(lp1440
NaNaNaNaNaNaNaNa(imapping
Tile
p1441
(dp1442
g372
g373
sg374
VF_Grass
p1443
sg376
F1
sg377
I00
sba(imapping
Tile
p1444
(dp1445
g372
g373
sg374
VF_Dirt
p1446
sg376
F1
sg377
I00
sba(imapping
Tile
p1447
(dp1448
g372
g373
sg374
VF_Dirt
p1449
sg376
F1
sg377
I00
sba(imapping
Tile
p1450
(dp1451
g372
g373
sg374
VF_Dirt
p1452
sg376
F1
sg377
I00
sbaasS'bgmusic'
p1453
VSempridge.ogg
p1454
sS'theme'
p1455
VForest
p1456
sS'endef'
p1457
(dp1458
VBoss_Radkelu
p1459
Vboss_radkelu
p1460
sVCSpider
p1461
Vcspider
p1462
sVSnowOgre
p1463
Vsnowogre
p1464
sVWasp
p1465
Vwasp
p1466
sVPoisPod
p1467
Vpoispod
p1468
sVSpider
p1469
Vspider
p1470
sVSnowBat
p1471
Vsnowbat
p1472
sVWorm
p1473
Vworm
p1474
sVGiantJelly
p1475
Vgiantjelly
p1476
sVPod
p1477
Vpod
p1478
sVGiantWorm
p1479
Vgiantworm
p1480
ssS'tiledef'
p1481
(dp1482
VS_bLRamp
p1483
Vsnow_blramp.png
p1484
sViC_Ice
p1485
Vcaveice.png
p1486
sVF_Dirt_R2
p1487
Vdirtr_edge2.png
p1488
sVF_Dirt_R1
p1489
Vdirtr_edge1.png
p1490
sVS_Railing_1
p1491
Vsnow_railing1.png
p1492
sVS_Railing_2
p1493
Vsnow_railing2.png
p1494
sVC_Suit of Armour
p1495
Vsuit_armour.png
p1496
sVS_UCleft
p1497
Vsnow_undercorner_left.png
p1498
sVF_Right_Halframp1
p1499
VR_HR1.png
p1500
sVF_Right_Halframp2
p1501
VR_HR2.png
p1502
sVF_GrassRedge
p1503
Vgrassr_edge.png
p1504
sVS_ECleft
p1505
Vsnow_edgecorner_left.png
p1506
sViC_wr2
p1507
Vcavewr2.png
p1508
sVF_Tuft1
p1509
Vtuft1.png
p1510
sVF_Tuft2
p1511
Vtuft2.png
p1512
sVS_Tree
p1513
Vsnow_tree.png
p1514
sVF_Grass
p1515
Vgrass.png
p1516
sVS_Railing_L
p1517
Vsnow_railing_left.png
p1518
sVC_Castle HRR
p1519
Vcstl_hr_r.png
p1520
sVS_RRamp
p1521
Vsnow_rramp.png
p1522
sVC_Castle HRL
p1523
Vcstl_hr_l.png
p1524
sVS_Pillar
p1525
Vsnow_pillar.png
p1526
sVS_Railing_R
p1527
Vsnow_railing_right.png
p1528
sVS_Tree2
p1529
Vsnow_tree2.png
p1530
sVS_Ground1
p1531
Vsnow_ground1.png
p1532
sVF_Stump
p1533
Vtreestump.png
p1534
sVC_Castle Ground 2
p1535
Vcstl_ground2.png
p1536
sVC_Castle Ground 3
p1537
Vcstl_ground3.png
p1538
sVC_Castle Ground 1
p1539
Vcstl_ground1.png
p1540
sVS_Snow2
p1541
Vsnow_snow2.png
p1542
sVF_Grass_Alt_5
p1543
Vgrassc5.png
p1544
sViC_jl
p1545
Vcavejl.png
p1546
sVS_bRRamp
p1547
Vsnow_brramp.png
p1548
sViC_TopL
p1549
Vcavetl.png
p1550
sViC_Floor 1
p1551
Vcavefloor1.png
p1552
sViC_Floor 3
p1553
Vcavefloor3.png
p1554
sViC_Floor 2
p1555
Vcavefloor2.png
p1556
sViC_TopR
p1557
Vcavetr.png
p1558
sViC_jr
p1559
Vcavejr.png
p1560
sVC_Castle Floor 2
p1561
Vcstl_floor2.png
p1562
sVS_Snow
p1563
Vsnow_snow.png
p1564
sVF_Grass_Alt_2
p1565
Vgrassc2.png
p1566
sVF_ExitSign
p1567
Vexitsign.png
p1568
sVF_Grass->Dirttop
p1569
Vgrassmdirt.png
p1570
sVS_UCright
p1571
Vsnow_undercorner_right.png
p1572
sVS_Pillartop
p1573
Vsnow_pillartop.png
p1574
sViC_wr
p1575
Vcavewr.png
p1576
sVF_Dirttop->Grass
p1577
Vdirtmgrass.png
p1578
sVS_ECright
p1579
Vsnow_edgecorner_right.png
p1580
sVC_Castle HRmL
p1581
Vcstl_hr_m_l.png
p1582
sVC_Castle Wall L
p1583
Vcstl_wleft.png
p1584
sVC_Castle Wall R
p1585
Vcstl_wright.png
p1586
sVC_Castle HRmR
p1587
Vcstl_hr_m_r.png
p1588
sVF_Ice
p1589
Vtile5.png
p1590
sViC_wl
p1591
Vcavewl.png
p1592
sVC_Castle Floor 4
p1593
Vcstl_floor4.png
p1594
sVF_Grass_Alt_4
p1595
Vgrassc4.png
p1596
sVF_Grass_Alt_1
p1597
Vgrassc1.png
p1598
sVC_Castle Floor 1
p1599
Vcstl_floor1.png
p1600
sVF_Grass_Alt_3
p1601
Vgrassc3.png
p1602
sVC_Castle Floor 3
p1603
Vcstl_floor3.png
p1604
sVS_edgewleft1
p1605
Vsnow_edgewall_left1.png
p1606
sVS_edgewleft2
p1607
Vsnow_edgewall_left2.png
p1608
sVS_UCJright
p1609
Vsnow_undercorner_join_right.png
p1610
sVS_LRamp
p1611
Vsnow_lramp.png
p1612
sVC_Castle Floor Edge R
p1613
Vcstl_floor_edge_right.png
p1614
sVF_Dirt_L1
p1615
Vdirtl_edge1.png
p1616
sVF_Dirt_L2
p1617
Vdirtl_edge2.png
p1618
sVC_Castle Floor Edge L
p1619
Vcstl_floor_edge_left.png
p1620
sVF_Left_Halframp2
p1621
VL_HR2.png
p1622
sVF_Left_Halframp1
p1623
VL_HR1.png
p1624
sVF_Shrooms2
p1625
Vshrooms2.png
p1626
sVF_Shrooms3
p1627
Vshrooms3.png
p1628
sVF_Shrooms1
p1629
Vshrooms1.png
p1630
sVF_RampJoinL
p1631
Vramp_mid_dirt_l.png
p1632
sVC_Castle Wall->Floor R
p1633
Vcstl_wfright.png
p1634
sVF_RampJoinR
p1635
Vramp_mid_dirt_r.png
p1636
sVF_GrassLedge
p1637
Vgrassl_edge.png
p1638
sVS_Stones
p1639
Vsnow_stones.png
p1640
sVS_edgeright
p1641
Vsnow_edge_right.png
p1642
sVS_edgewright2
p1643
Vsnow_edgewall_right2.png
p1644
sVS_edgewright1
p1645
Vsnow_edgewall_right1.png
p1646
sVF_Dirtb
p1647
Vdirtb.png
p1648
sVF_Right_Ramp
p1649
VR_R.png
p1650
sVF_HalframpJoinL
p1651
Vhalframp_mid_dirt_l.png
p1652
sVF_Dirt_BL
p1653
Vdirtl_bedge.png
p1654
sVF_HalframpJoinR
p1655
Vhalframp_mid_dirt_r.png
p1656
sVF_Dirt_BR
p1657
Vdirtr_bedge.png
p1658
sVF_Dirtb2
p1659
Vdirtb2.png
p1660
sVF_Left_Ramp
p1661
VL_R.png
p1662
sVC_Castle Wall->Floor L
p1663
Vcstl_wfleft.png
p1664
sVS_UCJleft
p1665
Vsnow_undercorner_join_left.png
p1666
sVF_Dirt
p1667
Vdirt.png
p1668
sVF_Grass->DirtL
p1669
Vgrass_dirt_l.png
p1670
sVS_edgeleft
p1671
Vsnow_edge_left.png
p1672
sVF_Dirttop
p1673
Vdirttop.png
p1674
sVF_Dirt_Alt_4
p1675
Vdirtc4.png
p1676
sVF_Dirt_Alt_3
p1677
Vdirtc3.png
p1678
sVF_Dirt_Alt_2
p1679
Vdirtc2.png
p1680
sVF_Dirt_Alt_1
p1681
Vdirtc1.png
p1682
sVF_Grass->DirtR
p1683
Vgrass_dirt_r.png
p1684
sViC_wl2
p1685
Vcavewl2.png
p1686
ssb.