(imapping
Map
p1
(dp2
S'enemy'
p3
(lp4
(lp5
NaNaNaNaNaNaNaNaNaNaNaNaa(lp6
NaNaNaNaNaNaNaNaNaNaNaNaa(lp7
NaNaNaNaNaNaNaNaNaNaNaNaa(lp8
NaNaNaNaNaNaNaNaNaNaNaNaa(lp9
NaNaNaNaNaNaNaNaNaNaNaNaa(lp10
NaNaNaNaNaNaNaNaNaNaNaNaa(lp11
NaNaNaNaNaNaNaNaNaNaNaNaa(lp12
NaNaNaNaNaNaNaNaNaNaNaNaa(lp13
NaNaNaNaNaNaNaNaNaNaNaNaa(lp14
NaNaNaNaNaNaNaNaNaNaNaNaa(lp15
NaNaNaNaNaNaNaNaNaNaNaNaa(lp16
NaNaNaNaNaNaNaNaNaNaNaNaa(lp17
NaNaNaNaNaNaNaNaNaNaNaNaa(lp18
NaNaNaNaNaNaNaNaNaNaNaNaa(lp19
NaNaNaNaNaNaNaNaNaNaNaNaa(lp20
NaNaNaNaNaNaNaNaNaNaNaNaa(lp21
NaNaNaNaNaNaNaNaNaNaNaNaa(lp22
NaNaNaNaNaNaNaNaNaNaNaNaa(lp23
NaNaNaNaNaNaNaNaNaNaNaNaa(lp24
NaNaNaNaNaNaNaNaNaNaNaNaa(lp25
NaNaNaNaNaNaNaNaNaNaNaNaa(lp26
NaNaNaNaNaNaNaNaNaNaNaNaa(lp27
NaNaNaNaNaNaNaNaNaNaNaNaa(lp28
NaNaNaNaNaNaNaNaNaNaNaNaa(lp29
NaNaNaNaNaNaNaNaNaNaNaNaa(lp30
NaNaNaNaNaNaNaNaNaNaNaNaa(lp31
NaNaNaNaNaNaNaNaNaNaNaNaa(lp32
NaNaNaNaNaNaNaNaNaNaNaNaa(lp33
NaNaNaNaNaNaNaNaNaNaNaNaa(lp34
NaNaNaNaNaNaNaNaNaNaNaNaa(lp35
NaNaNaNaNaNaNaNaNaNaNaNaa(lp36
NaNaNaNaNaNaNaNaNaNaNaNaa(lp37
NaNaNaNaNaNaNaNaNaNaNaNaa(lp38
NaNaNaNaNaNaNaNaNaNaNaNaa(lp39
NaNaNaNaNaNaNaNaNaNaNaNaa(lp40
NaNaNaNaNaNaNaNaNaNaNaNaa(lp41
NaNaNaNaNaNaNaNaNaNaNaNaa(lp42
NaNaNaNaNaNaNaNaNaNaNaNaa(lp43
NaNaNaNaNaNaNaNaNaNaNaNaa(lp44
NaNaNaNaNaNaNaNaNaNaNaNaa(lp45
NaNaNaNaNaNaNaNaNaNaNaNaa(lp46
NaNaNaNaNaNaNaNaNaNaNaNaa(lp47
NaNaNaNaNaNaNaNaNaNaNaNaa(lp48
NaNaNaNaNaNaNaNaNaNaNaNaa(lp49
NaNaNaNaNaNaNaNaNaNaNaNaa(lp50
NaNaNaNaNaNaNaNaNaNaNaNaa(lp51
NaNaNaNaNaNaNaNaNaNaNaNaa(lp52
NaNaNaNaNaNaNaNaNaNaNaNaa(lp53
NaNaNaNaNaNaNaNaNaNaNaNaa(lp54
NaNaNaNaNaNaNaNaNaNaNaNaa(lp55
NaNaNaNaNaNaNaNaNaNaNaNaa(lp56
NaNaNaNaNaNaNaNaNaNaNaNaa(lp57
NaNaNaNaNaNaNaNaNaNaNaNaa(lp58
NaNaNaNaNaNaNaNaNaNaNaNaa(lp59
NaNaNaNaNaNaNaNaNaNaNaNaa(lp60
NaNaNaNaNaNaNaNaNaNaNaNaa(lp61
NaNaNaNaNaNaNaNaNaNaNaNaa(lp62
NaNaNaNaNaNaNaNaNaNaNaNaa(lp63
NaNaNaNaNaNaNaNaNaNaNaNaa(lp64
NaNaNaNaNaNaNaNaNaNaNaNaa(lp65
NaNaNaNaNaNaNaNaNaNaNaNaa(lp66
NaNaNaNaNaNaNaNaNaNaNaNaa(lp67
NaNaNaNaNaNaNaNaNaNaNaNaa(lp68
NaNaNaNaNaNaNaNaNaNaNaNaa(lp69
NaNaNaNaNaNaNaNaNaNaNaNaa(lp70
NaNaNaNaNaNaNaNaNaNaNaNaa(lp71
NaNaNaNaNaNaNaNaNaNaNaNaa(lp72
NaNaNaNaNaNaNaNaNaNaNaNaa(lp73
NaNaNaNaNaNaNaNaNaNaNaNaa(lp74
NaNaNaNaNaNaNaNaNaNaNaNaa(lp75
NaNaNaNaNaNaNaNaNaNaNaNaa(lp76
NaNaNaNaNaNaNaNaNaNaNaNaa(lp77
NaNaNaNaNaNaNaNaNaNaNaNaa(lp78
NaNaNaNaNaNaNaNaNaNaNaNaa(lp79
NaNaNaNaNaNaNaVGiantWorm
p80
aNaNaNaNaa(lp81
NaNaNaNaNaNaNaNaNaNaNaNaa(lp82
NaNaNaNaNaNaNaNaNaNaNaNaa(lp83
NaNaNaNaNaNaNaNaNaNaNaNaa(lp84
NaNaNaNaNaNaNaNaNaNaNaNaa(lp85
NaNaNaNaNaNaNaNaNaNaNaNaa(lp86
NaNaNaNaNaNaNaNaNaNaNaNaa(lp87
NaNaNaNaNaNaNaNaNaNaNaNaa(lp88
NaNaNaNaNaNaNaNaNaNaNaNaa(lp89
NaNaNaNaNaNaNaNaNaNaNaNaa(lp90
NaNaNaNaNaNaNaNaNaNaNaNaa(lp91
NaNaNaNaNaNaNaNaNaNaNaNaa(lp92
NaNaNaNaNaNaNaNaNaNaNaNaa(lp93
NaNaNaNaNaNaNaNaNaNaNaNaa(lp94
NaNaNaNaNaNaNaNaNaNaNaNaa(lp95
NaNaNaNaNaNaNaNaNaNaNaNaa(lp96
NaNaNaNaNaNaNaNaNaNaNaNaa(lp97
NaNaNaNaNaNaNaNaNaNaNaNaa(lp98
NaNaNaNaNaNaNaNaNaNaNaNaa(lp99
NaNaNaNaNaNaNaNaNaNaNaNaa(lp100
NaNaNaNaNaNaNaNaNaNaNaNaa(lp101
NaNaNaNaNaNaNaNaNaNaNaNaa(lp102
NaNaNaNaNaNaNaNaNaNaNaNaa(lp103
NaNaNaNaNaNaNaNaNaNaNaNaa(lp104
NaNaNaNaNaNaNaNaNaNaNaNaa(lp105
NaNaNaNaNaNaNaNaNaNaNaNaa(lp106
NaNaNaNaNaNaNaNaNaNaNaNaa(lp107
NaNaNaNaNaNaNaNaNaNaNaNaa(lp108
NaNaNaNaNaNaNaNaNaNaNaNaa(lp109
NaNaNaNaNaNaNaNaNaNaNaNaa(lp110
NaNaNaNaNaNaNaNaNaNaNaNaa(lp111
NaNaNaNaNaNaNaNaNaNaNaNaa(lp112
NaNaNaNaNaNaNaNaNaNaNaNaa(lp113
NaNaNaNaNaNaNaNaNaNaNaNaa(lp114
NaNaNaNaNaNaNaNaNaNaNaNaa(lp115
NaNaNaNaNaNaNaNaNaNaNaNaa(lp116
NaNaNaNaNaNaNaNaNaNaNaNaa(lp117
NaNaNaNaNaNaNaNaNaNaNaNaa(lp118
NaNaNaNaNaNaNaNaNaNaNaNaa(lp119
NaNaNaNaNaNaNaNaNaNaNaNaa(lp120
NaNaNaNaNaNaNaNaNaNaNaNaa(lp121
NaNaNaNaNaNaNaNaNaNaNaNaa(lp122
NaNaNaNaNaNaNaNaNaNaNaNaa(lp123
NaNaNaNaNaNaNaNaNaNaNaNaa(lp124
NaNaNaNaNaNaNaNaNaNaNaNaa(lp125
NaNaNaNaNaNaNaNaNaNaNaNaa(lp126
NaNaNaNaNaNaNaNaNaNaNaNaa(lp127
NaNaNaNaNaNaNaNaNaNaNaNaa(lp128
NaNaNaNaNaNaNaNaNaNaNaNaa(lp129
NaNaNaNaNaNaNaNaNaNaNaNaa(lp130
NaNaNaNaNaNaNaNaNaNaNaNaa(lp131
NaNaNaNaNaNaNaNaNaNaNaNaa(lp132
NaNaNaNaNaNaNaNaNaNaNaNaa(lp133
NaNaNaNaNaNaNaNaNaNaNaNaasS'objdef'
p134
(dp135
VButterfly
p136
VButterfly.png
p137
sVLevel_End
p138
VEnd.png
p139
sVShield
p140
VShield.png
p141
sVPlayer_Start
p142
VStart.png
p143
sVFallingRock
p144
VRock.png
p145
sVWalltorch
p146
VWalltorch.png
p147
sVButterflyC
p148
VButterflyC.png
p149
sVButterflyB
p150
VButterflyB.png
p151
sVSword
p152
VSword.png
p153
sVTreasureBoxB
p154
VTreasureB_Closed.png
p155
sVTreasureBox
p156
VTreasure_Closed.png
p157
ssS'obj'
p158
(lp159
(lp160
NaNaNaNaNaNaNaNaNaNaNaNaa(lp161
NaNaNaNaNaNaNaNaNaNaNaNaa(lp162
NaNaNaNaNaNaNaNaNaNaNaNaa(lp163
NaNaNaNaNaNaNaNaNaNaNaNaa(lp164
NaNaNaNaNaNaNaNaNaNaNaNaa(lp165
NaNaNaNaNaNaNaNaNaNaNaNaa(lp166
NaNaNaNaNaNaNaNaNaNaNaNaa(lp167
NaNaNaNaNaNaNaNaNaNaNaNaa(lp168
NaVButterfly
p169
aNaNaNaNaNaNaNaNaNaNaa(lp170
NaNaNaNaNaNaNaNaNaNaNaNaa(lp171
NaNaNaNaNaNaNaNaNaNaNaNaa(lp172
NaNaNaNaNaNaNaNaNaNaVPlayer_Start
p173
aNaa(lp174
NaNaNaVButterflyC
p175
aNaNaNaNaNaNaNaNaa(lp176
NaNaNaNaNaNaNaNaNaNaNaNaa(lp177
NaNaNaNaNaNaVButterfly
p178
aNaNaNaNaNaa(lp179
NaNaNaNaNaNaNaNaNaNaNaNaa(lp180
NaNaNaNaNaNaNaVButterflyB
p181
aNaNaVTreasureBox
p182
aNaa(lp183
NaNaNaNaNaNaNaNaNaNaNaNaa(lp184
NaNaNaNaNaNaNaNaNaNaNaNaa(lp185
NaNaNaNaNaNaNaNaNaVButterflyB
p186
aNaNaa(lp187
NaNaNaNaNaNaVButterfly
p188
aNaNaNaNaNaa(lp189
NaNaNaNaVButterflyB
p190
aNaNaNaNaNaNaNaa(lp191
NaNaNaNaNaNaNaNaNaNaNaNaa(lp192
NaNaNaNaNaNaNaNaNaNaNaNaa(lp193
NaNaNaNaNaNaNaNaNaNaNaNaa(lp194
NaNaNaNaNaNaNaVTreasureBox
p195
aNaNaNaNaa(lp196
NaNaNaNaNaNaNaNaNaNaNaNaa(lp197
NaNaNaNaNaNaNaNaNaNaNaNaa(lp198
NaNaNaNaNaNaNaNaNaNaNaNaa(lp199
NaNaNaNaNaVButterflyC
p200
aNaNaNaNaNaNaa(lp201
NaNaNaNaNaNaNaNaNaNaNaNaa(lp202
NaNaNaNaNaNaNaNaNaNaNaNaa(lp203
NaNaNaNaNaNaNaNaNaNaNaNaa(lp204
NaNaNaNaNaNaNaNaNaNaNaNaa(lp205
NaNaNaNaNaNaNaNaNaNaNaNaa(lp206
NaNaNaVButterflyB
p207
aNaNaNaNaNaNaNaNaa(lp208
NaNaNaNaNaNaNaNaNaNaNaNaa(lp209
NaNaNaNaNaNaNaNaNaNaNaNaa(lp210
NaNaNaNaNaNaNaNaNaNaNaNaa(lp211
NaNaNaNaNaNaNaNaNaNaNaNaa(lp212
NaNaNaNaVButterfly
p213
aNaNaNaNaNaNaNaa(lp214
NaNaNaNaNaNaNaNaNaNaNaNaa(lp215
NaNaNaNaNaNaNaNaNaNaNaNaa(lp216
NaNaNaNaVButterflyB
p217
aNaNaNaNaNaNaNaa(lp218
NaNaNaNaNaNaNaNaNaNaNaNaa(lp219
NaNaNaNaNaNaNaNaNaNaNaNaa(lp220
NaNaNaNaNaNaNaNaNaNaNaNaa(lp221
NaNaNaNaNaNaNaNaNaNaNaNaa(lp222
NaNaNaNaNaNaNaNaNaNaNaNaa(lp223
NaNaNaNaVButterfly
p224
aNaNaNaNaNaNaNaa(lp225
NaNaVButterflyB
p226
aNaNaNaNaNaNaNaNaNaa(lp227
NaNaVButterfly
p228
aNaVButterflyB
p229
aNaNaNaNaNaNaNaa(lp230
NaNaNaNaVButterfly
p231
aNaNaNaNaNaNaNaa(lp232
NaNaNaNaNaNaNaNaNaNaNaNaa(lp233
NaNaVButterfly
p234
aNaNaNaNaNaNaNaNaNaa(lp235
NaNaVButterflyC
p236
aNaNaNaNaNaNaNaNaNaa(lp237
NaNaNaNaNaNaNaNaNaNaNaNaa(lp238
NaNaNaNaNaNaNaNaNaNaNaNaa(lp239
NaNaNaNaVButterflyB
p240
aNaNaNaNaNaNaNaa(lp241
NaNaNaNaNaNaNaNaNaNaNaNaa(lp242
NaNaVButterfly
p243
aNaNaNaNaNaNaNaNaNaa(lp244
NaNaNaNaNaNaNaNaNaNaNaNaa(lp245
NaNaNaNaNaNaNaNaNaNaNaNaa(lp246
NaNaNaNaNaNaNaNaNaNaNaNaa(lp247
NaNaNaNaNaNaNaNaNaNaNaNaa(lp248
NaNaNaNaNaNaNaNaNaNaNaNaa(lp249
NaVButterflyC
p250
aNaNaNaNaNaNaNaNaNaNaa(lp251
NaNaNaNaNaNaVButterflyB
p252
aNaNaNaNaNaa(lp253
NaNaNaNaNaNaNaNaNaNaNaNaa(lp254
NaNaNaNaNaNaNaNaNaNaNaNaa(lp255
NaNaNaNaNaNaNaNaNaNaNaNaa(lp256
NaNaNaNaNaNaNaNaNaNaNaNaa(lp257
NaNaNaNaNaNaNaNaNaNaNaNaa(lp258
NaNaNaNaVButterflyC
p259
aNaNaNaNaNaNaNaa(lp260
NaNaNaNaVButterflyC
p261
aNaNaNaNaNaNaNaa(lp262
NaNaVButterflyC
p263
aNaNaNaNaNaNaNaNaNaa(lp264
NaNaNaNaNaNaNaNaNaNaNaNaa(lp265
NaNaNaNaNaNaNaVLevel_End
p266
aNaNaNaNaa(lp267
NaNaNaNaNaNaNaNaNaNaNaNaa(lp268
NaNaNaNaNaNaNaNaNaNaNaNaa(lp269
NaNaNaNaNaNaNaNaNaNaNaNaa(lp270
NaNaNaNaNaNaNaNaNaNaNaNaa(lp271
NaNaNaNaNaNaNaNaNaNaNaNaa(lp272
NaNaNaNaNaNaNaNaNaNaNaNaa(lp273
NaNaNaNaNaNaNaNaNaNaNaNaa(lp274
NaNaNaNaVButterflyB
p275
aNaNaNaNaNaNaNaa(lp276
NaNaNaNaNaNaNaNaNaNaNaNaa(lp277
NaNaNaNaNaNaNaNaNaNaNaNaa(lp278
NaNaVButterflyB
p279
aNaNaNaNaNaNaNaNaNaa(lp280
NaNaNaNaNaNaNaNaNaNaNaNaa(lp281
NaNaNaNaNaNaNaNaNaNaNaNaa(lp282
NaNaNaNaNaNaNaNaNaNaNaNaa(lp283
NaNaNaNaNaNaNaNaNaNaNaNaa(lp284
NaNaNaNaNaNaNaNaNaNaNaNaa(lp285
NaNaNaNaNaNaNaNaNaNaNaNaa(lp286
NaNaNaNaNaNaNaNaNaNaNaNaa(lp287
NaNaNaNaNaNaNaNaNaNaNaNaa(lp288
NaNaNaNaNaNaNaNaNaNaNaNaa(lp289
NaNaNaNaNaNaNaNaNaNaNaNaa(lp290
NaNaNaNaNaNaNaNaNaNaNaNaa(lp291
NaNaNaNaNaNaNaNaNaNaNaNaa(lp292
NaNaNaNaNaNaNaNaNaNaNaNaa(lp293
NaNaNaNaNaNaNaNaNaNaNaNaa(lp294
NaNaNaNaNaNaNaNaNaNaNaNaa(lp295
NaNaNaNaNaNaNaNaNaNaNaNaa(lp296
NaNaNaNaNaNaNaNaNaNaNaNaa(lp297
NaNaNaNaNaNaNaNaNaNaNaNaa(lp298
NaNaNaNaNaNaNaNaNaNaNaNaa(lp299
NaNaNaNaNaNaNaNaNaNaNaNaa(lp300
NaNaNaNaNaNaNaNaNaNaNaNaa(lp301
NaNaNaNaNaNaNaNaNaNaNaNaa(lp302
NaNaNaNaNaNaNaNaNaNaNaNaa(lp303
NaNaNaNaNaNaNaNaNaNaNaNaa(lp304
NaNaNaNaNaNaNaNaNaNaNaNaa(lp305
NaNaNaNaNaNaNaNaNaNaNaNaa(lp306
NaNaNaNaNaNaNaNaNaNaNaNaa(lp307
NaNaNaNaNaNaNaNaNaNaNaNaa(lp308
NaNaNaNaNaNaNaNaNaNaNaNaa(lp309
NaNaNaNaNaNaNaNaNaNaNaNaa(lp310
NaNaNaNaNaNaNaNaNaNaNaNaa(lp311
NaNaNaNaNaNaNaNaNaNaNaNaa(lp312
NaNaNaNaNaNaNaNaNaNaNaNaa(lp313
NaNaNaNaNaNaNaNaNaNaNaNaa(lp314
NaNaNaNaNaNaNaNaNaNaNaNaa(lp315
NaNaNaNaNaNaNaNaNaNaNaNaa(lp316
NaNaNaNaNaNaNaNaNaNaNaNaa(lp317
NaNaNaNaNaNaNaNaNaNaNaNaa(lp318
NaNaNaNaNaNaNaNaNaNaNaNaasS'name'
p319
Ventboss
p320
sS'map'
p321
(lp322
(lp323
NaNaNa(imapping
Tile
p324
(dp325
S'collidetype'
p326
S'BOX'
p327
sS'type'
p328
VF_Grass
p329
sS'friction'
p330
F1
sS'overhead'
p331
I00
sba(imapping
Tile
p332
(dp333
g326
g327
sg328
VF_Dirt
p334
sg330
F1
sg331
I00
sba(imapping
Tile
p335
(dp336
g326
g327
sg328
VF_Dirt
p337
sg330
F1
sg331
I00
sba(imapping
Tile
p338
(dp339
g326
g327
sg328
VF_Dirt
p340
sg330
F1
sg331
I00
sba(imapping
Tile
p341
(dp342
g326
g327
sg328
VF_Dirt
p343
sg330
F1
sg331
I00
sba(imapping
Tile
p344
(dp345
g326
g327
sg328
VF_Dirt
p346
sg330
F1
sg331
I00
sba(imapping
Tile
p347
(dp348
g326
g327
sg328
VF_Dirt
p349
sg330
F1
sg331
I00
sba(imapping
Tile
p350
(dp351
g326
g327
sg328
VF_Dirt
p352
sg330
F1
sg331
I00
sba(imapping
Tile
p353
(dp354
g326
g327
sg328
VF_Dirt
p355
sg330
F1
sg331
I00
sbaa(lp356
NaNaNa(imapping
Tile
p357
(dp358
g326
g327
sg328
VF_Grass
p359
sg330
F1
sg331
I00
sba(imapping
Tile
p360
(dp361
g326
g327
sg328
VF_Dirt
p362
sg330
F1
sg331
I00
sba(imapping
Tile
p363
(dp364
g326
g327
sg328
VF_Dirt
p365
sg330
F1
sg331
I00
sba(imapping
Tile
p366
(dp367
g326
g327
sg328
VF_Dirt
p368
sg330
F1
sg331
I00
sba(imapping
Tile
p369
(dp370
g326
g327
sg328
VF_Dirt
p371
sg330
F1
sg331
I00
sba(imapping
Tile
p372
(dp373
g326
g327
sg328
VF_Dirt
p374
sg330
F1
sg331
I00
sba(imapping
Tile
p375
(dp376
g326
g327
sg328
VF_Dirt
p377
sg330
F1
sg331
I00
sba(imapping
Tile
p378
(dp379
g326
g327
sg328
VF_Dirt
p380
sg330
F1
sg331
I00
sba(imapping
Tile
p381
(dp382
g326
g327
sg328
VF_Dirt
p383
sg330
F1
sg331
I00
sbaa(lp384
NaNaNa(imapping
Tile
p385
(dp386
g326
g327
sg328
VF_Grass
p387
sg330
F1
sg331
I00
sba(imapping
Tile
p388
(dp389
g326
g327
sg328
VF_Dirt
p390
sg330
F1
sg331
I00
sba(imapping
Tile
p391
(dp392
g326
g327
sg328
VF_Dirt
p393
sg330
F1
sg331
I00
sba(imapping
Tile
p394
(dp395
g326
g327
sg328
VF_Dirt
p396
sg330
F1
sg331
I00
sba(imapping
Tile
p397
(dp398
g326
g327
sg328
VF_Dirt
p399
sg330
F1
sg331
I00
sba(imapping
Tile
p400
(dp401
g326
g327
sg328
VF_Dirt
p402
sg330
F1
sg331
I00
sba(imapping
Tile
p403
(dp404
g326
g327
sg328
VF_Dirt
p405
sg330
F1
sg331
I00
sba(imapping
Tile
p406
(dp407
g326
g327
sg328
VF_Dirt
p408
sg330
F1
sg331
I00
sba(imapping
Tile
p409
(dp410
g326
g327
sg328
VF_Dirt
p411
sg330
F1
sg331
I00
sbaa(lp412
NaNaNa(imapping
Tile
p413
(dp414
g326
g327
sg328
VF_Grass
p415
sg330
F1
sg331
I00
sba(imapping
Tile
p416
(dp417
g326
g327
sg328
VF_Dirt
p418
sg330
F1
sg331
I00
sba(imapping
Tile
p419
(dp420
g326
g327
sg328
VF_Dirt
p421
sg330
F1
sg331
I00
sba(imapping
Tile
p422
(dp423
g326
g327
sg328
VF_Dirt
p424
sg330
F1
sg331
I00
sba(imapping
Tile
p425
(dp426
g326
g327
sg328
VF_Dirt
p427
sg330
F1
sg331
I00
sba(imapping
Tile
p428
(dp429
g326
g327
sg328
VF_Dirt
p430
sg330
F1
sg331
I00
sba(imapping
Tile
p431
(dp432
g326
g327
sg328
VF_Dirt
p433
sg330
F1
sg331
I00
sba(imapping
Tile
p434
(dp435
g326
g327
sg328
VF_Dirt
p436
sg330
F1
sg331
I00
sba(imapping
Tile
p437
(dp438
g326
g327
sg328
VF_Dirt
p439
sg330
F1
sg331
I00
sbaa(lp440
NaNaNa(imapping
Tile
p441
(dp442
g326
g327
sg328
VF_Grass
p443
sg330
F1
sg331
I00
sba(imapping
Tile
p444
(dp445
g326
g327
sg328
VF_Dirt
p446
sg330
F1
sg331
I00
sba(imapping
Tile
p447
(dp448
g326
g327
sg328
VF_Dirt
p449
sg330
F1
sg331
I00
sba(imapping
Tile
p450
(dp451
g326
g327
sg328
VF_Dirt
p452
sg330
F1
sg331
I00
sba(imapping
Tile
p453
(dp454
g326
g327
sg328
VF_Dirt
p455
sg330
F1
sg331
I00
sba(imapping
Tile
p456
(dp457
g326
g327
sg328
VF_Dirt
p458
sg330
F1
sg331
I00
sba(imapping
Tile
p459
(dp460
g326
g327
sg328
VF_Dirt
p461
sg330
F1
sg331
I00
sba(imapping
Tile
p462
(dp463
g326
g327
sg328
VF_Dirt
p464
sg330
F1
sg331
I00
sba(imapping
Tile
p465
(dp466
g326
g327
sg328
VF_Dirt
p467
sg330
F1
sg331
I00
sbaa(lp468
NaNa(imapping
Tile
p469
(dp470
g326
S'NONE'
p471
sg328
VF_Tuft2
p472
sg330
F1
sg331
I00
sba(imapping
Tile
p473
(dp474
g326
g327
sg328
VF_Grass
p475
sg330
F1
sg331
I00
sba(imapping
Tile
p476
(dp477
g326
g327
sg328
VF_Dirt
p478
sg330
F1
sg331
I00
sba(imapping
Tile
p479
(dp480
g326
g327
sg328
VF_Dirt
p481
sg330
F1
sg331
I00
sba(imapping
Tile
p482
(dp483
g326
g327
sg328
VF_Dirt
p484
sg330
F1
sg331
I00
sba(imapping
Tile
p485
(dp486
g326
g327
sg328
VF_Dirt
p487
sg330
F1
sg331
I00
sba(imapping
Tile
p488
(dp489
g326
g327
sg328
VF_Dirt
p490
sg330
F1
sg331
I00
sba(imapping
Tile
p491
(dp492
g326
g327
sg328
VF_Dirt
p493
sg330
F1
sg331
I00
sba(imapping
Tile
p494
(dp495
g326
g327
sg328
VF_Dirt
p496
sg330
F1
sg331
I00
sba(imapping
Tile
p497
(dp498
g326
g327
sg328
VF_Dirt
p499
sg330
F1
sg331
I00
sbaa(lp500
NaNaNa(imapping
Tile
p501
(dp502
g326
g327
sg328
VF_Grass
p503
sg330
F1
sg331
I00
sba(imapping
Tile
p504
(dp505
g326
g327
sg328
VF_Dirt
p506
sg330
F1
sg331
I00
sba(imapping
Tile
p507
(dp508
g326
g327
sg328
VF_Dirt
p509
sg330
F1
sg331
I00
sba(imapping
Tile
p510
(dp511
g326
g327
sg328
VF_Dirt
p512
sg330
F1
sg331
I00
sba(imapping
Tile
p513
(dp514
g326
g327
sg328
VF_Dirt
p515
sg330
F1
sg331
I00
sba(imapping
Tile
p516
(dp517
g326
g327
sg328
VF_Dirt
p518
sg330
F1
sg331
I00
sba(imapping
Tile
p519
(dp520
g326
g327
sg328
VF_Dirt
p521
sg330
F1
sg331
I00
sba(imapping
Tile
p522
(dp523
g326
g327
sg328
VF_Dirt
p524
sg330
F1
sg331
I00
sba(imapping
Tile
p525
(dp526
g326
g327
sg328
VF_Dirt
p527
sg330
F1
sg331
I00
sbaa(lp528
NaNaNa(imapping
Tile
p529
(dp530
g326
g327
sg328
VF_Grass
p531
sg330
F1
sg331
I00
sba(imapping
Tile
p532
(dp533
g326
g327
sg328
VF_Dirt
p534
sg330
F1
sg331
I00
sba(imapping
Tile
p535
(dp536
g326
g327
sg328
VF_Dirt
p537
sg330
F1
sg331
I00
sba(imapping
Tile
p538
(dp539
g326
g327
sg328
VF_Dirt
p540
sg330
F1
sg331
I00
sba(imapping
Tile
p541
(dp542
g326
g327
sg328
VF_Dirt
p543
sg330
F1
sg331
I00
sba(imapping
Tile
p544
(dp545
g326
g327
sg328
VF_Dirt
p546
sg330
F1
sg331
I00
sba(imapping
Tile
p547
(dp548
g326
g327
sg328
VF_Dirt
p549
sg330
F1
sg331
I00
sba(imapping
Tile
p550
(dp551
g326
g327
sg328
VF_Dirt
p552
sg330
F1
sg331
I00
sba(imapping
Tile
p553
(dp554
g326
g327
sg328
VF_Dirt
p555
sg330
F1
sg331
I00
sbaa(lp556
NaNa(imapping
Tile
p557
(dp558
g326
g471
sg328
VF_Tuft1
p559
sg330
F1
sg331
I00
sba(imapping
Tile
p560
(dp561
g326
g327
sg328
VF_GrassRedge
p562
sg330
F1
sg331
I00
sba(imapping
Tile
p563
(dp564
g326
g327
sg328
VF_Grass->DirtR
p565
sg330
F1
sg331
I00
sba(imapping
Tile
p566
(dp567
g326
g327
sg328
VF_Dirt
p568
sg330
F1
sg331
I00
sba(imapping
Tile
p569
(dp570
g326
g327
sg328
VF_Dirt
p571
sg330
F1
sg331
I00
sba(imapping
Tile
p572
(dp573
g326
g327
sg328
VF_Dirt
p574
sg330
F1
sg331
I00
sba(imapping
Tile
p575
(dp576
g326
g327
sg328
VF_Dirt
p577
sg330
F1
sg331
I00
sba(imapping
Tile
p578
(dp579
g326
g327
sg328
VF_Dirt
p580
sg330
F1
sg331
I00
sba(imapping
Tile
p581
(dp582
g326
g327
sg328
VF_Dirt
p583
sg330
F1
sg331
I00
sba(imapping
Tile
p584
(dp585
g326
g327
sg328
VF_Dirt
p586
sg330
F1
sg331
I00
sbaa(lp587
NaNaNaNa(imapping
Tile
p588
(dp589
g326
g327
sg328
VF_GrassRedge
p590
sg330
F1
sg331
I00
sba(imapping
Tile
p591
(dp592
g326
g327
sg328
VF_Dirt_R1
p593
sg330
F1
sg331
I00
sba(imapping
Tile
p594
(dp595
g326
g327
sg328
VF_Dirt_R2
p596
sg330
F1
sg331
I00
sba(imapping
Tile
p597
(dp598
g326
g327
sg328
VF_Dirt_R1
p599
sg330
F1
sg331
I00
sba(imapping
Tile
p600
(dp601
g326
g327
sg328
VF_Dirt_R2
p602
sg330
F1
sg331
I00
sba(imapping
Tile
p603
(dp604
g326
g327
sg328
VF_Dirt_R1
p605
sg330
F1
sg331
I00
sba(imapping
Tile
p606
(dp607
g326
g327
sg328
VF_Dirt_R1
p608
sg330
F1
sg331
I00
sba(imapping
Tile
p609
(dp610
g326
g327
sg328
VF_Grass->DirtR
p611
sg330
F1
sg331
I00
sbaa(lp612
NaNaNaNaNaNaNaNaNaNa(imapping
Tile
p613
(dp614
g326
S'NONE_R'
p615
sg328
VF_Shrooms3
p616
sg330
F1
sg331
I00
sba(imapping
Tile
p617
(dp618
g326
g327
sg328
VF_Grass
p619
sg330
F1
sg331
I00
sbaa(lp620
NaNaNaNaNaNaNaNaNaNaNa(imapping
Tile
p621
(dp622
g326
g327
sg328
VF_Grass
p623
sg330
F1
sg331
I00
sbaa(lp624
NaNaNaNaNaNaNaNaNaNaNa(imapping
Tile
p625
(dp626
g326
g327
sg328
VF_Grass
p627
sg330
F1
sg331
I00
sbaa(lp628
NaNaNaNaNaNaNaNaNaNa(imapping
Tile
p629
(dp630
g326
g615
sg328
VF_Shrooms1
p631
sg330
F1
sg331
I00
sba(imapping
Tile
p632
(dp633
g326
g327
sg328
VF_Grass
p634
sg330
F1
sg331
I00
sbaa(lp635
NaNaNaNaNaNaNaNaNaNaNa(imapping
Tile
p636
(dp637
g326
g327
sg328
VF_Grass
p638
sg330
F1
sg331
I00
sbaa(lp639
NaNaNaNaNaNaNaNaNaNa(imapping
Tile
p640
(dp641
g326
g615
sg328
VF_Stump
p642
sg330
F1
sg331
I00
sba(imapping
Tile
p643
(dp644
g326
g327
sg328
VF_Grass
p645
sg330
F1
sg331
I00
sbaa(lp646
NaNaNaNaNaNaNaNaNaNaNa(imapping
Tile
p647
(dp648
g326
g327
sg328
VF_Grass
p649
sg330
F1
sg331
I00
sbaa(lp650
NaNaNaNaNaNaNaNaNaNa(imapping
Tile
p651
(dp652
g326
g471
sg328
VF_Tuft1
p653
sg330
F1
sg331
I00
sba(imapping
Tile
p654
(dp655
g326
g327
sg328
VF_Grass
p656
sg330
F1
sg331
I00
sbaa(lp657
NaNaNaNaNaNaNaNaNaNa(imapping
Tile
p658
(dp659
g326
S'RIGHT_HINCLINATION1'
p660
sg328
VF_Right_Halframp1
p661
sg330
F1
sg331
I00
sba(imapping
Tile
p662
(dp663
g326
g327
sg328
VF_HalframpJoinR
p664
sg330
F1
sg331
I00
sbaa(lp665
NaNaNaNaNaNaNaNaNaNa(imapping
Tile
p666
(dp667
g326
S'RIGHT_HINCLINATION2'
p668
sg328
VF_Right_Halframp2
p669
sg330
F1
sg331
I00
sba(imapping
Tile
p670
(dp671
g326
g327
sg328
VF_Dirt
p672
sg330
F1
sg331
I00
sbaa(lp673
NaNaNaNaNaNaNaNaNa(imapping
Tile
p674
(dp675
g326
g660
sg328
VF_Right_Halframp1
p676
sg330
F1
sg331
I00
sba(imapping
Tile
p677
(dp678
g326
g327
sg328
VF_HalframpJoinR
p679
sg330
F1
sg331
I00
sba(imapping
Tile
p680
(dp681
g326
g327
sg328
VF_Dirt
p682
sg330
F1
sg331
I00
sbaa(lp683
NaNaNaNaNaNaNaNaNa(imapping
Tile
p684
(dp685
g326
g668
sg328
VF_Right_Halframp2
p686
sg330
F1
sg331
I00
sba(imapping
Tile
p687
(dp688
g326
g327
sg328
VF_Dirt
p689
sg330
F1
sg331
I00
sba(imapping
Tile
p690
(dp691
g326
g327
sg328
VF_Dirt
p692
sg330
F1
sg331
I00
sbaa(lp693
NaNaNaNaNaNaNaNa(imapping
Tile
p694
(dp695
g326
g660
sg328
VF_Right_Halframp1
p696
sg330
F1
sg331
I00
sba(imapping
Tile
p697
(dp698
g326
g327
sg328
VF_HalframpJoinR
p699
sg330
F1
sg331
I00
sba(imapping
Tile
p700
(dp701
g326
g327
sg328
VF_Dirt
p702
sg330
F1
sg331
I00
sba(imapping
Tile
p703
(dp704
g326
g327
sg328
VF_Dirt
p705
sg330
F1
sg331
I00
sbaa(lp706
NaNaNaNaNaNaNaNa(imapping
Tile
p707
(dp708
g326
g668
sg328
VF_Right_Halframp2
p709
sg330
F1
sg331
I00
sba(imapping
Tile
p710
(dp711
g326
g327
sg328
VF_Dirt
p712
sg330
F1
sg331
I00
sba(imapping
Tile
p713
(dp714
g326
g327
sg328
VF_Dirt
p715
sg330
F1
sg331
I00
sba(imapping
Tile
p716
(dp717
g326
g327
sg328
VF_Dirt
p718
sg330
F1
sg331
I00
sbaa(lp719
NaNaNaNaNaNaNaNa(imapping
Tile
p720
(dp721
g326
g327
sg328
VF_Grass
p722
sg330
F1
sg331
I00
sba(imapping
Tile
p723
(dp724
g326
g327
sg328
VF_Dirt
p725
sg330
F1
sg331
I00
sba(imapping
Tile
p726
(dp727
g326
g327
sg328
VF_Dirt
p728
sg330
F1
sg331
I00
sba(imapping
Tile
p729
(dp730
g326
g327
sg328
VF_Dirt
p731
sg330
F1
sg331
I00
sbaa(lp732
NaNaNaNaNaNaNaNa(imapping
Tile
p733
(dp734
g326
g327
sg328
VF_Grass
p735
sg330
F1
sg331
I00
sba(imapping
Tile
p736
(dp737
g326
g327
sg328
VF_Dirt
p738
sg330
F1
sg331
I00
sba(imapping
Tile
p739
(dp740
g326
g327
sg328
VF_Dirt
p741
sg330
F1
sg331
I00
sba(imapping
Tile
p742
(dp743
g326
g327
sg328
VF_Dirt
p744
sg330
F1
sg331
I00
sbaa(lp745
NaNaNaNaNaNaNa(imapping
Tile
p746
(dp747
g326
g471
sg328
VF_ExitSign
p748
sg330
F1
sg331
I00
sba(imapping
Tile
p749
(dp750
g326
g327
sg328
VF_Grass
p751
sg330
F1
sg331
I00
sba(imapping
Tile
p752
(dp753
g326
g327
sg328
VF_Dirt
p754
sg330
F1
sg331
I00
sba(imapping
Tile
p755
(dp756
g326
g327
sg328
VF_Dirt
p757
sg330
F1
sg331
I00
sba(imapping
Tile
p758
(dp759
g326
g327
sg328
VF_Dirt
p760
sg330
F1
sg331
I00
sbaa(lp761
NaNaNaNaNaNaNaNa(imapping
Tile
p762
(dp763
g326
g327
sg328
VF_Grass
p764
sg330
F1
sg331
I00
sba(imapping
Tile
p765
(dp766
g326
g327
sg328
VF_Dirt
p767
sg330
F1
sg331
I00
sba(imapping
Tile
p768
(dp769
g326
g327
sg328
VF_Dirt
p770
sg330
F1
sg331
I00
sba(imapping
Tile
p771
(dp772
g326
g327
sg328
VF_Dirt
p773
sg330
F1
sg331
I00
sbaa(lp774
NaNaNaNaNaNaNa(imapping
Tile
p775
(dp776
g326
g471
sg328
VF_Shrooms2
p777
sg330
F1
sg331
I00
sba(imapping
Tile
p778
(dp779
g326
g327
sg328
VF_Grass
p780
sg330
F1
sg331
I00
sba(imapping
Tile
p781
(dp782
g326
g327
sg328
VF_Dirt
p783
sg330
F1
sg331
I00
sba(imapping
Tile
p784
(dp785
g326
g327
sg328
VF_Dirt
p786
sg330
F1
sg331
I00
sba(imapping
Tile
p787
(dp788
g326
g327
sg328
VF_Dirt
p789
sg330
F1
sg331
I00
sbaa(lp790
NaNaNaNaNaNaNa(imapping
Tile
p791
(dp792
g326
g471
sg328
VF_Tuft2
p793
sg330
F1
sg331
I00
sba(imapping
Tile
p794
(dp795
g326
g327
sg328
VF_Grass
p796
sg330
F1
sg331
I00
sba(imapping
Tile
p797
(dp798
g326
g327
sg328
VF_Dirt
p799
sg330
F1
sg331
I00
sba(imapping
Tile
p800
(dp801
g326
g327
sg328
VF_Dirt
p802
sg330
F1
sg331
I00
sba(imapping
Tile
p803
(dp804
g326
g327
sg328
VF_Dirt
p805
sg330
F1
sg331
I00
sbaa(lp806
NaNaNaNaNaNaNa(imapping
Tile
p807
(dp808
g326
g615
sg328
VF_Stump
p809
sg330
F1
sg331
I00
sba(imapping
Tile
p810
(dp811
g326
g327
sg328
VF_Grass
p812
sg330
F1
sg331
I00
sba(imapping
Tile
p813
(dp814
g326
g327
sg328
VF_Dirt
p815
sg330
F1
sg331
I00
sba(imapping
Tile
p816
(dp817
g326
g327
sg328
VF_Dirt
p818
sg330
F1
sg331
I00
sba(imapping
Tile
p819
(dp820
g326
g327
sg328
VF_Dirt
p821
sg330
F1
sg331
I00
sbaa(lp822
NaNaNaNaNaNaNaNa(imapping
Tile
p823
(dp824
g326
g327
sg328
VF_Grass
p825
sg330
F1
sg331
I00
sba(imapping
Tile
p826
(dp827
g326
g327
sg328
VF_Dirt
p828
sg330
F1
sg331
I00
sba(imapping
Tile
p829
(dp830
g326
g327
sg328
VF_Dirt
p831
sg330
F1
sg331
I00
sba(imapping
Tile
p832
(dp833
g326
g327
sg328
VF_Dirt
p834
sg330
F1
sg331
I00
sbaa(lp835
NaNaNaNaNaNaNa(imapping
Tile
p836
(dp837
g326
g471
sg328
VF_Tuft1
p838
sg330
F1
sg331
I00
sba(imapping
Tile
p839
(dp840
g326
g327
sg328
VF_Grass
p841
sg330
F1
sg331
I00
sba(imapping
Tile
p842
(dp843
g326
g327
sg328
VF_Dirt
p844
sg330
F1
sg331
I00
sba(imapping
Tile
p845
(dp846
g326
g327
sg328
VF_Dirt
p847
sg330
F1
sg331
I00
sba(imapping
Tile
p848
(dp849
g326
g327
sg328
VF_Dirt
p850
sg330
F1
sg331
I00
sbaa(lp851
NaNaNaNaNaNaNa(imapping
Tile
p852
(dp853
g326
g471
sg328
VF_Shrooms2
p854
sg330
F1
sg331
I00
sba(imapping
Tile
p855
(dp856
g326
g327
sg328
VF_Grass
p857
sg330
F1
sg331
I00
sba(imapping
Tile
p858
(dp859
g326
g327
sg328
VF_Dirt
p860
sg330
F1
sg331
I00
sba(imapping
Tile
p861
(dp862
g326
g327
sg328
VF_Dirt
p863
sg330
F1
sg331
I00
sba(imapping
Tile
p864
(dp865
g326
g327
sg328
VF_Dirt
p866
sg330
F1
sg331
I00
sbaa(lp867
NaNaNaNaNaNaNa(imapping
Tile
p868
(dp869
g326
g471
sg328
VF_Tuft2
p870
sg330
F1
sg331
I00
sba(imapping
Tile
p871
(dp872
g326
g327
sg328
VF_Grass
p873
sg330
F1
sg331
I00
sba(imapping
Tile
p874
(dp875
g326
g327
sg328
VF_Dirt
p876
sg330
F1
sg331
I00
sba(imapping
Tile
p877
(dp878
g326
g327
sg328
VF_Dirt
p879
sg330
F1
sg331
I00
sba(imapping
Tile
p880
(dp881
g326
g327
sg328
VF_Dirt
p882
sg330
F1
sg331
I00
sbaa(lp883
NaNaNaNaNaNaNa(imapping
Tile
p884
(dp885
g326
g471
sg328
VF_Tuft2
p886
sg330
F1
sg331
I00
sba(imapping
Tile
p887
(dp888
g326
g327
sg328
VF_Grass
p889
sg330
F1
sg331
I00
sba(imapping
Tile
p890
(dp891
g326
g327
sg328
VF_Dirt
p892
sg330
F1
sg331
I00
sba(imapping
Tile
p893
(dp894
g326
g327
sg328
VF_Dirt
p895
sg330
F1
sg331
I00
sba(imapping
Tile
p896
(dp897
g326
g327
sg328
VF_Dirt
p898
sg330
F1
sg331
I00
sbaa(lp899
NaNaNaNaNaNaNa(imapping
Tile
p900
(dp901
g326
g615
sg328
VF_Shrooms1
p902
sg330
F1
sg331
I00
sba(imapping
Tile
p903
(dp904
g326
g327
sg328
VF_Grass
p905
sg330
F1
sg331
I00
sba(imapping
Tile
p906
(dp907
g326
g327
sg328
VF_Dirt
p908
sg330
F1
sg331
I00
sba(imapping
Tile
p909
(dp910
g326
g327
sg328
VF_Dirt
p911
sg330
F1
sg331
I00
sba(imapping
Tile
p912
(dp913
g326
g327
sg328
VF_Dirt
p914
sg330
F1
sg331
I00
sbaa(lp915
NaNaNaNaNaNaNa(imapping
Tile
p916
(dp917
g326
g615
sg328
VF_Shrooms1
p918
sg330
F1
sg331
I00
sba(imapping
Tile
p919
(dp920
g326
g327
sg328
VF_Grass
p921
sg330
F1
sg331
I00
sba(imapping
Tile
p922
(dp923
g326
g327
sg328
VF_Dirt
p924
sg330
F1
sg331
I00
sba(imapping
Tile
p925
(dp926
g326
g327
sg328
VF_Dirt
p927
sg330
F1
sg331
I00
sba(imapping
Tile
p928
(dp929
g326
g327
sg328
VF_Dirt
p930
sg330
F1
sg331
I00
sbaa(lp931
NaNaNaNaNaNaNaNa(imapping
Tile
p932
(dp933
g326
g327
sg328
VF_Grass
p934
sg330
F1
sg331
I00
sba(imapping
Tile
p935
(dp936
g326
g327
sg328
VF_Dirt
p937
sg330
F1
sg331
I00
sba(imapping
Tile
p938
(dp939
g326
g327
sg328
VF_Dirt
p940
sg330
F1
sg331
I00
sba(imapping
Tile
p941
(dp942
g326
g327
sg328
VF_Dirt
p943
sg330
F1
sg331
I00
sbaa(lp944
NaNaNaNaNaNaNaNa(imapping
Tile
p945
(dp946
g326
g327
sg328
VF_Grass
p947
sg330
F1
sg331
I00
sba(imapping
Tile
p948
(dp949
g326
g327
sg328
VF_Dirt
p950
sg330
F1
sg331
I00
sba(imapping
Tile
p951
(dp952
g326
g327
sg328
VF_Dirt
p953
sg330
F1
sg331
I00
sba(imapping
Tile
p954
(dp955
g326
g327
sg328
VF_Dirt
p956
sg330
F1
sg331
I00
sbaa(lp957
NaNaNaNaNaNaNaNa(imapping
Tile
p958
(dp959
g326
g327
sg328
VF_Grass
p960
sg330
F1
sg331
I00
sba(imapping
Tile
p961
(dp962
g326
g327
sg328
VF_Dirt
p963
sg330
F1
sg331
I00
sba(imapping
Tile
p964
(dp965
g326
g327
sg328
VF_Dirt
p966
sg330
F1
sg331
I00
sba(imapping
Tile
p967
(dp968
g326
g327
sg328
VF_Dirt
p969
sg330
F1
sg331
I00
sbaa(lp970
NaNaNaNaNaNaNa(imapping
Tile
p971
(dp972
g326
g615
sg328
VF_Stump
p973
sg330
F1
sg331
I00
sba(imapping
Tile
p974
(dp975
g326
g327
sg328
VF_Grass
p976
sg330
F1
sg331
I00
sba(imapping
Tile
p977
(dp978
g326
g327
sg328
VF_Dirt
p979
sg330
F1
sg331
I00
sba(imapping
Tile
p980
(dp981
g326
g327
sg328
VF_Dirt
p982
sg330
F1
sg331
I00
sba(imapping
Tile
p983
(dp984
g326
g327
sg328
VF_Dirt
p985
sg330
F1
sg331
I00
sbaa(lp986
NaNaNaNaNaNaNaNa(imapping
Tile
p987
(dp988
g326
g327
sg328
VF_Grass
p989
sg330
F1
sg331
I00
sba(imapping
Tile
p990
(dp991
g326
g327
sg328
VF_Dirt
p992
sg330
F1
sg331
I00
sba(imapping
Tile
p993
(dp994
g326
g327
sg328
VF_Dirt
p995
sg330
F1
sg331
I00
sba(imapping
Tile
p996
(dp997
g326
g327
sg328
VF_Dirt
p998
sg330
F1
sg331
I00
sbaa(lp999
NaNaNaNaNaNaNa(imapping
Tile
p1000
(dp1001
g326
g471
sg328
VF_Tuft1
p1002
sg330
F1
sg331
I00
sba(imapping
Tile
p1003
(dp1004
g326
g327
sg328
VF_Grass
p1005
sg330
F1
sg331
I00
sba(imapping
Tile
p1006
(dp1007
g326
g327
sg328
VF_Dirt
p1008
sg330
F1
sg331
I00
sba(imapping
Tile
p1009
(dp1010
g326
g327
sg328
VF_Dirt
p1011
sg330
F1
sg331
I00
sba(imapping
Tile
p1012
(dp1013
g326
g327
sg328
VF_Dirt
p1014
sg330
F1
sg331
I00
sbaa(lp1015
NaNaNaNaNaNaNa(imapping
Tile
p1016
(dp1017
g326
g471
sg328
VF_Tuft2
p1018
sg330
F1
sg331
I00
sba(imapping
Tile
p1019
(dp1020
g326
g327
sg328
VF_Grass
p1021
sg330
F1
sg331
I00
sba(imapping
Tile
p1022
(dp1023
g326
g327
sg328
VF_Dirt
p1024
sg330
F1
sg331
I00
sba(imapping
Tile
p1025
(dp1026
g326
g327
sg328
VF_Dirt
p1027
sg330
F1
sg331
I00
sba(imapping
Tile
p1028
(dp1029
g326
g327
sg328
VF_Dirt
p1030
sg330
F1
sg331
I00
sbaa(lp1031
NaNaNaNaNaNaNa(imapping
Tile
p1032
(dp1033
g326
g471
sg328
VF_Tuft1
p1034
sg330
F1
sg331
I00
sba(imapping
Tile
p1035
(dp1036
g326
g327
sg328
VF_Grass
p1037
sg330
F1
sg331
I00
sba(imapping
Tile
p1038
(dp1039
g326
g327
sg328
VF_Dirt
p1040
sg330
F1
sg331
I00
sba(imapping
Tile
p1041
(dp1042
g326
g327
sg328
VF_Dirt
p1043
sg330
F1
sg331
I00
sba(imapping
Tile
p1044
(dp1045
g326
g327
sg328
VF_Dirt
p1046
sg330
F1
sg331
I00
sbaa(lp1047
NaNaNaNaNaNaNaNa(imapping
Tile
p1048
(dp1049
g326
g327
sg328
VF_Grass
p1050
sg330
F1
sg331
I00
sba(imapping
Tile
p1051
(dp1052
g326
g327
sg328
VF_Dirt
p1053
sg330
F1
sg331
I00
sba(imapping
Tile
p1054
(dp1055
g326
g327
sg328
VF_Dirt
p1056
sg330
F1
sg331
I00
sba(imapping
Tile
p1057
(dp1058
g326
g327
sg328
VF_Dirt
p1059
sg330
F1
sg331
I00
sbaa(lp1060
NaNaNaNaNaNaNaNa(imapping
Tile
p1061
(dp1062
g326
g327
sg328
VF_Grass
p1063
sg330
F1
sg331
I00
sba(imapping
Tile
p1064
(dp1065
g326
g327
sg328
VF_Dirt
p1066
sg330
F1
sg331
I00
sba(imapping
Tile
p1067
(dp1068
g326
g327
sg328
VF_Dirt
p1069
sg330
F1
sg331
I00
sba(imapping
Tile
p1070
(dp1071
g326
g327
sg328
VF_Dirt
p1072
sg330
F1
sg331
I00
sbaa(lp1073
NaNaNaNaNaNaNaNa(imapping
Tile
p1074
(dp1075
g326
g327
sg328
VF_Grass
p1076
sg330
F1
sg331
I00
sba(imapping
Tile
p1077
(dp1078
g326
g327
sg328
VF_Dirt
p1079
sg330
F1
sg331
I00
sba(imapping
Tile
p1080
(dp1081
g326
g327
sg328
VF_Dirt
p1082
sg330
F1
sg331
I00
sba(imapping
Tile
p1083
(dp1084
g326
g327
sg328
VF_Dirt
p1085
sg330
F1
sg331
I00
sbaa(lp1086
NaNaNaNaNaNaNaNa(imapping
Tile
p1087
(dp1088
g326
g327
sg328
VF_Grass
p1089
sg330
F1
sg331
I00
sba(imapping
Tile
p1090
(dp1091
g326
g327
sg328
VF_Dirt
p1092
sg330
F1
sg331
I00
sba(imapping
Tile
p1093
(dp1094
g326
g327
sg328
VF_Dirt
p1095
sg330
F1
sg331
I00
sba(imapping
Tile
p1096
(dp1097
g326
g327
sg328
VF_Dirt
p1098
sg330
F1
sg331
I00
sbaa(lp1099
NaNaNaNaNaNaNaNa(imapping
Tile
p1100
(dp1101
g326
g327
sg328
VF_Grass
p1102
sg330
F1
sg331
I00
sba(imapping
Tile
p1103
(dp1104
g326
g327
sg328
VF_Dirt
p1105
sg330
F1
sg331
I00
sba(imapping
Tile
p1106
(dp1107
g326
g327
sg328
VF_Dirt
p1108
sg330
F1
sg331
I00
sba(imapping
Tile
p1109
(dp1110
g326
g327
sg328
VF_Dirt
p1111
sg330
F1
sg331
I00
sbaa(lp1112
NaNaNaNaNaNaNa(imapping
Tile
p1113
(dp1114
g326
g471
sg328
VF_Tuft2
p1115
sg330
F1
sg331
I00
sba(imapping
Tile
p1116
(dp1117
g326
g327
sg328
VF_Grass
p1118
sg330
F1
sg331
I00
sba(imapping
Tile
p1119
(dp1120
g326
g327
sg328
VF_Dirt
p1121
sg330
F1
sg331
I00
sba(imapping
Tile
p1122
(dp1123
g326
g327
sg328
VF_Dirt
p1124
sg330
F1
sg331
I00
sba(imapping
Tile
p1125
(dp1126
g326
g327
sg328
VF_Dirt
p1127
sg330
F1
sg331
I00
sbaa(lp1128
NaNaNaNaNaNaNa(imapping
Tile
p1129
(dp1130
g326
g471
sg328
VF_Tuft2
p1131
sg330
F1
sg331
I00
sba(imapping
Tile
p1132
(dp1133
g326
g327
sg328
VF_Grass
p1134
sg330
F1
sg331
I00
sba(imapping
Tile
p1135
(dp1136
g326
g327
sg328
VF_Dirt
p1137
sg330
F1
sg331
I00
sba(imapping
Tile
p1138
(dp1139
g326
g327
sg328
VF_Dirt
p1140
sg330
F1
sg331
I00
sba(imapping
Tile
p1141
(dp1142
g326
g327
sg328
VF_Dirt
p1143
sg330
F1
sg331
I00
sbaa(lp1144
NaNaNaNaNaNaNaNa(imapping
Tile
p1145
(dp1146
g326
g327
sg328
VF_Grass
p1147
sg330
F1
sg331
I00
sba(imapping
Tile
p1148
(dp1149
g326
g327
sg328
VF_Dirt
p1150
sg330
F1
sg331
I00
sba(imapping
Tile
p1151
(dp1152
g326
g327
sg328
VF_Dirt
p1153
sg330
F1
sg331
I00
sba(imapping
Tile
p1154
(dp1155
g326
g327
sg328
VF_Dirt
p1156
sg330
F1
sg331
I00
sbaa(lp1157
NaNaNaNaNaNaNaNa(imapping
Tile
p1158
(dp1159
g326
g327
sg328
VF_Grass
p1160
sg330
F1
sg331
I00
sba(imapping
Tile
p1161
(dp1162
g326
g327
sg328
VF_Dirt
p1163
sg330
F1
sg331
I00
sba(imapping
Tile
p1164
(dp1165
g326
g327
sg328
VF_Dirt
p1166
sg330
F1
sg331
I00
sba(imapping
Tile
p1167
(dp1168
g326
g327
sg328
VF_Dirt
p1169
sg330
F1
sg331
I00
sbaa(lp1170
NaNaNaNaNaNaNaNa(imapping
Tile
p1171
(dp1172
g326
g327
sg328
VF_Grass
p1173
sg330
F1
sg331
I00
sba(imapping
Tile
p1174
(dp1175
g326
g327
sg328
VF_Dirt
p1176
sg330
F1
sg331
I00
sba(imapping
Tile
p1177
(dp1178
g326
g327
sg328
VF_Dirt
p1179
sg330
F1
sg331
I00
sba(imapping
Tile
p1180
(dp1181
g326
g327
sg328
VF_Dirt
p1182
sg330
F1
sg331
I00
sbaa(lp1183
NaNaNaNaNaNaNa(imapping
Tile
p1184
(dp1185
g326
g615
sg328
VF_Shrooms1
p1186
sg330
F1
sg331
I00
sba(imapping
Tile
p1187
(dp1188
g326
g327
sg328
VF_Grass
p1189
sg330
F1
sg331
I00
sba(imapping
Tile
p1190
(dp1191
g326
g327
sg328
VF_Dirt
p1192
sg330
F1
sg331
I00
sba(imapping
Tile
p1193
(dp1194
g326
g327
sg328
VF_Dirt
p1195
sg330
F1
sg331
I00
sba(imapping
Tile
p1196
(dp1197
g326
g327
sg328
VF_Dirt
p1198
sg330
F1
sg331
I00
sbaa(lp1199
NaNaNaNaNaNaNaNa(imapping
Tile
p1200
(dp1201
g326
g327
sg328
VF_Grass
p1202
sg330
F1
sg331
I00
sba(imapping
Tile
p1203
(dp1204
g326
g327
sg328
VF_Dirt
p1205
sg330
F1
sg331
I00
sba(imapping
Tile
p1206
(dp1207
g326
g327
sg328
VF_Dirt
p1208
sg330
F1
sg331
I00
sba(imapping
Tile
p1209
(dp1210
g326
g327
sg328
VF_Dirt
p1211
sg330
F1
sg331
I00
sbaa(lp1212
NaNaNaNaNaNaNaNa(imapping
Tile
p1213
(dp1214
g326
g327
sg328
VF_Grass
p1215
sg330
F1
sg331
I00
sba(imapping
Tile
p1216
(dp1217
g326
g327
sg328
VF_Dirt
p1218
sg330
F1
sg331
I00
sba(imapping
Tile
p1219
(dp1220
g326
g327
sg328
VF_Dirt
p1221
sg330
F1
sg331
I00
sba(imapping
Tile
p1222
(dp1223
g326
g327
sg328
VF_Dirt
p1224
sg330
F1
sg331
I00
sbaa(lp1225
NaNaNaNaNaNaNa(imapping
Tile
p1226
(dp1227
g326
g471
sg328
VF_Tuft1
p1228
sg330
F1
sg331
I00
sba(imapping
Tile
p1229
(dp1230
g326
g327
sg328
VF_Grass
p1231
sg330
F1
sg331
I00
sba(imapping
Tile
p1232
(dp1233
g326
g327
sg328
VF_Dirt
p1234
sg330
F1
sg331
I00
sba(imapping
Tile
p1235
(dp1236
g326
g327
sg328
VF_Dirt
p1237
sg330
F1
sg331
I00
sba(imapping
Tile
p1238
(dp1239
g326
g327
sg328
VF_Dirt
p1240
sg330
F1
sg331
I00
sbaa(lp1241
NaNaNaNaNaNaNa(imapping
Tile
p1242
(dp1243
g326
g471
sg328
VF_Shrooms2
p1244
sg330
F1
sg331
I00
sba(imapping
Tile
p1245
(dp1246
g326
g327
sg328
VF_Grass
p1247
sg330
F1
sg331
I00
sba(imapping
Tile
p1248
(dp1249
g326
g327
sg328
VF_Dirt
p1250
sg330
F1
sg331
I00
sba(imapping
Tile
p1251
(dp1252
g326
g327
sg328
VF_Dirt
p1253
sg330
F1
sg331
I00
sba(imapping
Tile
p1254
(dp1255
g326
g327
sg328
VF_Dirt
p1256
sg330
F1
sg331
I00
sbaa(lp1257
NaNaNaNaNaNaNaNa(imapping
Tile
p1258
(dp1259
g326
g327
sg328
VF_Grass
p1260
sg330
F1
sg331
I00
sba(imapping
Tile
p1261
(dp1262
g326
g327
sg328
VF_Dirt
p1263
sg330
F1
sg331
I00
sba(imapping
Tile
p1264
(dp1265
g326
g327
sg328
VF_Dirt
p1266
sg330
F1
sg331
I00
sba(imapping
Tile
p1267
(dp1268
g326
g327
sg328
VF_Dirt
p1269
sg330
F1
sg331
I00
sbaa(lp1270
NaNaNaNaNaNaNa(imapping
Tile
p1271
(dp1272
g326
g471
sg328
VF_Tuft2
p1273
sg330
F1
sg331
I00
sba(imapping
Tile
p1274
(dp1275
g326
g327
sg328
VF_Grass
p1276
sg330
F1
sg331
I00
sba(imapping
Tile
p1277
(dp1278
g326
g327
sg328
VF_Dirt
p1279
sg330
F1
sg331
I00
sba(imapping
Tile
p1280
(dp1281
g326
g327
sg328
VF_Dirt
p1282
sg330
F1
sg331
I00
sba(imapping
Tile
p1283
(dp1284
g326
g327
sg328
VF_Dirt
p1285
sg330
F1
sg331
I00
sbaa(lp1286
NaNaNaNaNaNaNaNa(imapping
Tile
p1287
(dp1288
g326
g327
sg328
VF_Grass
p1289
sg330
F1
sg331
I00
sba(imapping
Tile
p1290
(dp1291
g326
g327
sg328
VF_Dirt
p1292
sg330
F1
sg331
I00
sba(imapping
Tile
p1293
(dp1294
g326
g327
sg328
VF_Dirt
p1295
sg330
F1
sg331
I00
sba(imapping
Tile
p1296
(dp1297
g326
g327
sg328
VF_Dirt
p1298
sg330
F1
sg331
I00
sbaa(lp1299
NaNaNaNaNaNaNaNa(imapping
Tile
p1300
(dp1301
g326
g327
sg328
VF_Grass
p1302
sg330
F1
sg331
I00
sba(imapping
Tile
p1303
(dp1304
g326
g327
sg328
VF_Dirt
p1305
sg330
F1
sg331
I00
sba(imapping
Tile
p1306
(dp1307
g326
g327
sg328
VF_Dirt
p1308
sg330
F1
sg331
I00
sba(imapping
Tile
p1309
(dp1310
g326
g327
sg328
VF_Dirt
p1311
sg330
F1
sg331
I00
sbaa(lp1312
NaNaNaNaNaNaNa(imapping
Tile
p1313
(dp1314
g326
g471
sg328
VF_Tuft1
p1315
sg330
F1
sg331
I00
sba(imapping
Tile
p1316
(dp1317
g326
g327
sg328
VF_Grass
p1318
sg330
F1
sg331
I00
sba(imapping
Tile
p1319
(dp1320
g326
g327
sg328
VF_Dirt
p1321
sg330
F1
sg331
I00
sba(imapping
Tile
p1322
(dp1323
g326
g327
sg328
VF_Dirt
p1324
sg330
F1
sg331
I00
sba(imapping
Tile
p1325
(dp1326
g326
g327
sg328
VF_Dirt
p1327
sg330
F1
sg331
I00
sbaa(lp1328
NaNaNaNaNaNaNa(imapping
Tile
p1329
(dp1330
g326
g615
sg328
VF_Stump
p1331
sg330
F1
sg331
I00
sba(imapping
Tile
p1332
(dp1333
g326
g327
sg328
VF_Grass
p1334
sg330
F1
sg331
I00
sba(imapping
Tile
p1335
(dp1336
g326
g327
sg328
VF_Dirt
p1337
sg330
F1
sg331
I00
sba(imapping
Tile
p1338
(dp1339
g326
g327
sg328
VF_Dirt
p1340
sg330
F1
sg331
I00
sba(imapping
Tile
p1341
(dp1342
g326
g327
sg328
VF_Dirt
p1343
sg330
F1
sg331
I00
sbaa(lp1344
NaNaNaNaNaNaNa(imapping
Tile
p1345
(dp1346
g326
g471
sg328
VF_Tuft1
p1347
sg330
F1
sg331
I00
sba(imapping
Tile
p1348
(dp1349
g326
g327
sg328
VF_Grass
p1350
sg330
F1
sg331
I00
sba(imapping
Tile
p1351
(dp1352
g326
g327
sg328
VF_Dirt
p1353
sg330
F1
sg331
I00
sba(imapping
Tile
p1354
(dp1355
g326
g327
sg328
VF_Dirt
p1356
sg330
F1
sg331
I00
sba(imapping
Tile
p1357
(dp1358
g326
g327
sg328
VF_Dirt
p1359
sg330
F1
sg331
I00
sbaa(lp1360
NaNaNaNaNaNaNaNa(imapping
Tile
p1361
(dp1362
g326
g327
sg328
VF_Grass
p1363
sg330
F1
sg331
I00
sba(imapping
Tile
p1364
(dp1365
g326
g327
sg328
VF_Dirt
p1366
sg330
F1
sg331
I00
sba(imapping
Tile
p1367
(dp1368
g326
g327
sg328
VF_Dirt
p1369
sg330
F1
sg331
I00
sba(imapping
Tile
p1370
(dp1371
g326
g327
sg328
VF_Dirt
p1372
sg330
F1
sg331
I00
sbaa(lp1373
NaNaNaNaNaNaNa(imapping
Tile
p1374
(dp1375
g326
g471
sg328
VF_Tuft2
p1376
sg330
F1
sg331
I00
sba(imapping
Tile
p1377
(dp1378
g326
g327
sg328
VF_Grass
p1379
sg330
F1
sg331
I00
sba(imapping
Tile
p1380
(dp1381
g326
g327
sg328
VF_Dirt
p1382
sg330
F1
sg331
I00
sba(imapping
Tile
p1383
(dp1384
g326
g327
sg328
VF_Dirt
p1385
sg330
F1
sg331
I00
sba(imapping
Tile
p1386
(dp1387
g326
g327
sg328
VF_Dirt
p1388
sg330
F1
sg331
I00
sbaa(lp1389
NaNaNaNaNaNaNaNa(imapping
Tile
p1390
(dp1391
g326
g327
sg328
VF_Grass
p1392
sg330
F1
sg331
I00
sba(imapping
Tile
p1393
(dp1394
g326
g327
sg328
VF_Dirt
p1395
sg330
F1
sg331
I00
sba(imapping
Tile
p1396
(dp1397
g326
g327
sg328
VF_Dirt
p1398
sg330
F1
sg331
I00
sba(imapping
Tile
p1399
(dp1400
g326
g327
sg328
VF_Dirt
p1401
sg330
F1
sg331
I00
sbaa(lp1402
NaNaNaNaNaNaNaNa(imapping
Tile
p1403
(dp1404
g326
g327
sg328
VF_Grass
p1405
sg330
F1
sg331
I00
sba(imapping
Tile
p1406
(dp1407
g326
g327
sg328
VF_Dirt
p1408
sg330
F1
sg331
I00
sba(imapping
Tile
p1409
(dp1410
g326
g327
sg328
VF_Dirt
p1411
sg330
F1
sg331
I00
sba(imapping
Tile
p1412
(dp1413
g326
g327
sg328
VF_Dirt
p1414
sg330
F1
sg331
I00
sbaa(lp1415
NaNaNaNaNaNaNa(imapping
Tile
p1416
(dp1417
g326
g615
sg328
VF_Shrooms1
p1418
sg330
F1
sg331
I00
sba(imapping
Tile
p1419
(dp1420
g326
g327
sg328
VF_Grass
p1421
sg330
F1
sg331
I00
sba(imapping
Tile
p1422
(dp1423
g326
g327
sg328
VF_Dirt
p1424
sg330
F1
sg331
I00
sba(imapping
Tile
p1425
(dp1426
g326
g327
sg328
VF_Dirt
p1427
sg330
F1
sg331
I00
sba(imapping
Tile
p1428
(dp1429
g326
g327
sg328
VF_Dirt
p1430
sg330
F1
sg331
I00
sbaa(lp1431
NaNaNaNaNaNaNaNa(imapping
Tile
p1432
(dp1433
g326
g327
sg328
VF_Grass
p1434
sg330
F1
sg331
I00
sba(imapping
Tile
p1435
(dp1436
g326
g327
sg328
VF_Dirt
p1437
sg330
F1
sg331
I00
sba(imapping
Tile
p1438
(dp1439
g326
g327
sg328
VF_Dirt
p1440
sg330
F1
sg331
I00
sba(imapping
Tile
p1441
(dp1442
g326
g327
sg328
VF_Dirt
p1443
sg330
F1
sg331
I00
sbaa(lp1444
NaNaNaNaNaNaNa(imapping
Tile
p1445
(dp1446
g326
g471
sg328
VF_Tuft1
p1447
sg330
F1
sg331
I00
sba(imapping
Tile
p1448
(dp1449
g326
g327
sg328
VF_Grass
p1450
sg330
F1
sg331
I00
sba(imapping
Tile
p1451
(dp1452
g326
g327
sg328
VF_Dirt
p1453
sg330
F1
sg331
I00
sba(imapping
Tile
p1454
(dp1455
g326
g327
sg328
VF_Dirt
p1456
sg330
F1
sg331
I00
sba(imapping
Tile
p1457
(dp1458
g326
g327
sg328
VF_Dirt
p1459
sg330
F1
sg331
I00
sbaa(lp1460
NaNaNaNaNaNaNaNa(imapping
Tile
p1461
(dp1462
g326
g327
sg328
VF_Grass
p1463
sg330
F1
sg331
I00
sba(imapping
Tile
p1464
(dp1465
g326
g327
sg328
VF_Dirt
p1466
sg330
F1
sg331
I00
sba(imapping
Tile
p1467
(dp1468
g326
g327
sg328
VF_Dirt
p1469
sg330
F1
sg331
I00
sba(imapping
Tile
p1470
(dp1471
g326
g327
sg328
VF_Dirt
p1472
sg330
F1
sg331
I00
sbaa(lp1473
NaNaNaNaNaNaNa(imapping
Tile
p1474
(dp1475
g326
g471
sg328
VF_Tuft2
p1476
sg330
F1
sg331
I00
sba(imapping
Tile
p1477
(dp1478
g326
g327
sg328
VF_Grass
p1479
sg330
F1
sg331
I00
sba(imapping
Tile
p1480
(dp1481
g326
g327
sg328
VF_Dirt
p1482
sg330
F1
sg331
I00
sba(imapping
Tile
p1483
(dp1484
g326
g327
sg328
VF_Dirt
p1485
sg330
F1
sg331
I00
sba(imapping
Tile
p1486
(dp1487
g326
g327
sg328
VF_Dirt
p1488
sg330
F1
sg331
I00
sbaa(lp1489
NaNaNaNaNaNaNaNa(imapping
Tile
p1490
(dp1491
g326
g327
sg328
VF_Grass
p1492
sg330
F1
sg331
I00
sba(imapping
Tile
p1493
(dp1494
g326
g327
sg328
VF_Dirt
p1495
sg330
F1
sg331
I00
sba(imapping
Tile
p1496
(dp1497
g326
g327
sg328
VF_Dirt
p1498
sg330
F1
sg331
I00
sba(imapping
Tile
p1499
(dp1500
g326
g327
sg328
VF_Dirt
p1501
sg330
F1
sg331
I00
sbaa(lp1502
NaNaNaNaNaNaNaNa(imapping
Tile
p1503
(dp1504
g326
g327
sg328
VF_Grass
p1505
sg330
F1
sg331
I00
sba(imapping
Tile
p1506
(dp1507
g326
g327
sg328
VF_Dirt
p1508
sg330
F1
sg331
I00
sba(imapping
Tile
p1509
(dp1510
g326
g327
sg328
VF_Dirt
p1511
sg330
F1
sg331
I00
sba(imapping
Tile
p1512
(dp1513
g326
g327
sg328
VF_Dirt
p1514
sg330
F1
sg331
I00
sbaa(lp1515
NaNaNaNaNaNaNaNa(imapping
Tile
p1516
(dp1517
g326
g327
sg328
VF_Grass
p1518
sg330
F1
sg331
I00
sba(imapping
Tile
p1519
(dp1520
g326
g327
sg328
VF_Dirt
p1521
sg330
F1
sg331
I00
sba(imapping
Tile
p1522
(dp1523
g326
g327
sg328
VF_Dirt
p1524
sg330
F1
sg331
I00
sba(imapping
Tile
p1525
(dp1526
g326
g327
sg328
VF_Dirt
p1527
sg330
F1
sg331
I00
sbaa(lp1528
NaNaNaNaNaNaNaNa(imapping
Tile
p1529
(dp1530
g326
g327
sg328
VF_Grass
p1531
sg330
F1
sg331
I00
sba(imapping
Tile
p1532
(dp1533
g326
g327
sg328
VF_Dirt
p1534
sg330
F1
sg331
I00
sba(imapping
Tile
p1535
(dp1536
g326
g327
sg328
VF_Dirt
p1537
sg330
F1
sg331
I00
sba(imapping
Tile
p1538
(dp1539
g326
g327
sg328
VF_Dirt
p1540
sg330
F1
sg331
I00
sbaa(lp1541
NaNaNaNaNaNaNaNa(imapping
Tile
p1542
(dp1543
g326
g327
sg328
VF_Grass
p1544
sg330
F1
sg331
I00
sba(imapping
Tile
p1545
(dp1546
g326
g327
sg328
VF_Dirt
p1547
sg330
F1
sg331
I00
sba(imapping
Tile
p1548
(dp1549
g326
g327
sg328
VF_Dirt
p1550
sg330
F1
sg331
I00
sba(imapping
Tile
p1551
(dp1552
g326
g327
sg328
VF_Dirt
p1553
sg330
F1
sg331
I00
sbaa(lp1554
NaNaNaNaNaNaNaNa(imapping
Tile
p1555
(dp1556
g326
g327
sg328
VF_Grass
p1557
sg330
F1
sg331
I00
sba(imapping
Tile
p1558
(dp1559
g326
g327
sg328
VF_Dirt
p1560
sg330
F1
sg331
I00
sba(imapping
Tile
p1561
(dp1562
g326
g327
sg328
VF_Dirt
p1563
sg330
F1
sg331
I00
sba(imapping
Tile
p1564
(dp1565
g326
g327
sg328
VF_Dirt
p1566
sg330
F1
sg331
I00
sbaa(lp1567
NaNaNaNaNaNaNaNa(imapping
Tile
p1568
(dp1569
g326
g327
sg328
VF_Grass
p1570
sg330
F1
sg331
I00
sba(imapping
Tile
p1571
(dp1572
g326
g327
sg328
VF_Dirt
p1573
sg330
F1
sg331
I00
sba(imapping
Tile
p1574
(dp1575
g326
g327
sg328
VF_Dirt
p1576
sg330
F1
sg331
I00
sba(imapping
Tile
p1577
(dp1578
g326
g327
sg328
VF_Dirt
p1579
sg330
F1
sg331
I00
sbaa(lp1580
NaNaNaNaNaNaNaNa(imapping
Tile
p1581
(dp1582
g326
g327
sg328
VF_Grass
p1583
sg330
F1
sg331
I00
sba(imapping
Tile
p1584
(dp1585
g326
g327
sg328
VF_Dirt
p1586
sg330
F1
sg331
I00
sba(imapping
Tile
p1587
(dp1588
g326
g327
sg328
VF_Dirt
p1589
sg330
F1
sg331
I00
sba(imapping
Tile
p1590
(dp1591
g326
g327
sg328
VF_Dirt
p1592
sg330
F1
sg331
I00
sbaa(lp1593
NaNaNaNaNaNaNaNa(imapping
Tile
p1594
(dp1595
g326
g327
sg328
VF_Grass
p1596
sg330
F1
sg331
I00
sba(imapping
Tile
p1597
(dp1598
g326
g327
sg328
VF_Dirt
p1599
sg330
F1
sg331
I00
sba(imapping
Tile
p1600
(dp1601
g326
g327
sg328
VF_Dirt
p1602
sg330
F1
sg331
I00
sba(imapping
Tile
p1603
(dp1604
g326
g327
sg328
VF_Dirt
p1605
sg330
F1
sg331
I00
sbaa(lp1606
NaNaNaNaNaNaNaNa(imapping
Tile
p1607
(dp1608
g326
g327
sg328
VF_Grass
p1609
sg330
F1
sg331
I00
sba(imapping
Tile
p1610
(dp1611
g326
g327
sg328
VF_Dirt
p1612
sg330
F1
sg331
I00
sba(imapping
Tile
p1613
(dp1614
g326
g327
sg328
VF_Dirt
p1615
sg330
F1
sg331
I00
sba(imapping
Tile
p1616
(dp1617
g326
g327
sg328
VF_Dirt
p1618
sg330
F1
sg331
I00
sbaa(lp1619
NaNaNaNaNaNaNaNa(imapping
Tile
p1620
(dp1621
g326
g327
sg328
VF_Grass
p1622
sg330
F1
sg331
I00
sba(imapping
Tile
p1623
(dp1624
g326
g327
sg328
VF_Dirt
p1625
sg330
F1
sg331
I00
sba(imapping
Tile
p1626
(dp1627
g326
g327
sg328
VF_Dirt
p1628
sg330
F1
sg331
I00
sba(imapping
Tile
p1629
(dp1630
g326
g327
sg328
VF_Dirt
p1631
sg330
F1
sg331
I00
sbaa(lp1632
NaNaNaNaNaNaNaNa(imapping
Tile
p1633
(dp1634
g326
g327
sg328
VF_Grass
p1635
sg330
F1
sg331
I00
sba(imapping
Tile
p1636
(dp1637
g326
g327
sg328
VF_Dirt
p1638
sg330
F1
sg331
I00
sba(imapping
Tile
p1639
(dp1640
g326
g327
sg328
VF_Dirt
p1641
sg330
F1
sg331
I00
sba(imapping
Tile
p1642
(dp1643
g326
g327
sg328
VF_Dirt
p1644
sg330
F1
sg331
I00
sbaa(lp1645
NaNaNaNaNaNaNaNa(imapping
Tile
p1646
(dp1647
g326
g327
sg328
VF_Grass
p1648
sg330
F1
sg331
I00
sba(imapping
Tile
p1649
(dp1650
g326
g327
sg328
VF_Dirt
p1651
sg330
F1
sg331
I00
sba(imapping
Tile
p1652
(dp1653
g326
g327
sg328
VF_Dirt
p1654
sg330
F1
sg331
I00
sba(imapping
Tile
p1655
(dp1656
g326
g327
sg328
VF_Dirt
p1657
sg330
F1
sg331
I00
sbaa(lp1658
NaNaNaNaNaNaNaNa(imapping
Tile
p1659
(dp1660
g326
g327
sg328
VF_Grass
p1661
sg330
F1
sg331
I00
sba(imapping
Tile
p1662
(dp1663
g326
g327
sg328
VF_Dirt
p1664
sg330
F1
sg331
I00
sba(imapping
Tile
p1665
(dp1666
g326
g327
sg328
VF_Dirt
p1667
sg330
F1
sg331
I00
sba(imapping
Tile
p1668
(dp1669
g326
g327
sg328
VF_Dirt
p1670
sg330
F1
sg331
I00
sbaa(lp1671
NaNaNaNaNaNaNaNa(imapping
Tile
p1672
(dp1673
g326
g327
sg328
VF_Grass
p1674
sg330
F1
sg331
I00
sba(imapping
Tile
p1675
(dp1676
g326
g327
sg328
VF_Dirt
p1677
sg330
F1
sg331
I00
sba(imapping
Tile
p1678
(dp1679
g326
g327
sg328
VF_Dirt
p1680
sg330
F1
sg331
I00
sba(imapping
Tile
p1681
(dp1682
g326
g327
sg328
VF_Dirt
p1683
sg330
F1
sg331
I00
sbaa(lp1684
NaNaNaNaNaNaNaNa(imapping
Tile
p1685
(dp1686
g326
g327
sg328
VF_Grass
p1687
sg330
F1
sg331
I00
sba(imapping
Tile
p1688
(dp1689
g326
g327
sg328
VF_Dirt
p1690
sg330
F1
sg331
I00
sba(imapping
Tile
p1691
(dp1692
g326
g327
sg328
VF_Dirt
p1693
sg330
F1
sg331
I00
sba(imapping
Tile
p1694
(dp1695
g326
g327
sg328
VF_Dirt
p1696
sg330
F1
sg331
I00
sbaa(lp1697
NaNaNaNaNaNaNaNa(imapping
Tile
p1698
(dp1699
g326
g327
sg328
VF_Grass
p1700
sg330
F1
sg331
I00
sba(imapping
Tile
p1701
(dp1702
g326
g327
sg328
VF_Dirt
p1703
sg330
F1
sg331
I00
sba(imapping
Tile
p1704
(dp1705
g326
g327
sg328
VF_Dirt
p1706
sg330
F1
sg331
I00
sba(imapping
Tile
p1707
(dp1708
g326
g327
sg328
VF_Dirt
p1709
sg330
F1
sg331
I00
sbaa(lp1710
NaNaNaNaNaNaNaNa(imapping
Tile
p1711
(dp1712
g326
g327
sg328
VF_Grass
p1713
sg330
F1
sg331
I00
sba(imapping
Tile
p1714
(dp1715
g326
g327
sg328
VF_Dirt
p1716
sg330
F1
sg331
I00
sba(imapping
Tile
p1717
(dp1718
g326
g327
sg328
VF_Dirt
p1719
sg330
F1
sg331
I00
sba(imapping
Tile
p1720
(dp1721
g326
g327
sg328
VF_Dirt
p1722
sg330
F1
sg331
I00
sbaa(lp1723
NaNaNaNaNaNaNaNa(imapping
Tile
p1724
(dp1725
g326
g327
sg328
VF_Grass
p1726
sg330
F1
sg331
I00
sba(imapping
Tile
p1727
(dp1728
g326
g327
sg328
VF_Dirt
p1729
sg330
F1
sg331
I00
sba(imapping
Tile
p1730
(dp1731
g326
g327
sg328
VF_Dirt
p1732
sg330
F1
sg331
I00
sba(imapping
Tile
p1733
(dp1734
g326
g327
sg328
VF_Dirt
p1735
sg330
F1
sg331
I00
sbaa(lp1736
NaNaNaNaNaNaNaNa(imapping
Tile
p1737
(dp1738
g326
g327
sg328
VF_Grass
p1739
sg330
F1
sg331
I00
sba(imapping
Tile
p1740
(dp1741
g326
g327
sg328
VF_Dirt
p1742
sg330
F1
sg331
I00
sba(imapping
Tile
p1743
(dp1744
g326
g327
sg328
VF_Dirt
p1745
sg330
F1
sg331
I00
sba(imapping
Tile
p1746
(dp1747
g326
g327
sg328
VF_Dirt
p1748
sg330
F1
sg331
I00
sbaa(lp1749
NaNaNaNaNaNaNaNa(imapping
Tile
p1750
(dp1751
g326
g327
sg328
VF_Grass
p1752
sg330
F1
sg331
I00
sba(imapping
Tile
p1753
(dp1754
g326
g327
sg328
VF_Dirt
p1755
sg330
F1
sg331
I00
sba(imapping
Tile
p1756
(dp1757
g326
g327
sg328
VF_Dirt
p1758
sg330
F1
sg331
I00
sba(imapping
Tile
p1759
(dp1760
g326
g327
sg328
VF_Dirt
p1761
sg330
F1
sg331
I00
sbaa(lp1762
NaNaNaNaNaNaNaNa(imapping
Tile
p1763
(dp1764
g326
g327
sg328
VF_Grass
p1765
sg330
F1
sg331
I00
sba(imapping
Tile
p1766
(dp1767
g326
g327
sg328
VF_Dirt
p1768
sg330
F1
sg331
I00
sba(imapping
Tile
p1769
(dp1770
g326
g327
sg328
VF_Dirt
p1771
sg330
F1
sg331
I00
sba(imapping
Tile
p1772
(dp1773
g326
g327
sg328
VF_Dirt
p1774
sg330
F1
sg331
I00
sbaa(lp1775
NaNaNaNaNaNaNaNa(imapping
Tile
p1776
(dp1777
g326
g327
sg328
VF_Grass
p1778
sg330
F1
sg331
I00
sba(imapping
Tile
p1779
(dp1780
g326
g327
sg328
VF_Dirt
p1781
sg330
F1
sg331
I00
sba(imapping
Tile
p1782
(dp1783
g326
g327
sg328
VF_Dirt
p1784
sg330
F1
sg331
I00
sba(imapping
Tile
p1785
(dp1786
g326
g327
sg328
VF_Dirt
p1787
sg330
F1
sg331
I00
sbaa(lp1788
NaNaNaNaNaNaNaNa(imapping
Tile
p1789
(dp1790
g326
g327
sg328
VF_Grass
p1791
sg330
F1
sg331
I00
sba(imapping
Tile
p1792
(dp1793
g326
g327
sg328
VF_Dirt
p1794
sg330
F1
sg331
I00
sba(imapping
Tile
p1795
(dp1796
g326
g327
sg328
VF_Dirt
p1797
sg330
F1
sg331
I00
sba(imapping
Tile
p1798
(dp1799
g326
g327
sg328
VF_Dirt
p1800
sg330
F1
sg331
I00
sbaa(lp1801
NaNaNaNaNaNaNaNa(imapping
Tile
p1802
(dp1803
g326
g327
sg328
VF_Grass
p1804
sg330
F1
sg331
I00
sba(imapping
Tile
p1805
(dp1806
g326
g327
sg328
VF_Dirt
p1807
sg330
F1
sg331
I00
sba(imapping
Tile
p1808
(dp1809
g326
g327
sg328
VF_Dirt
p1810
sg330
F1
sg331
I00
sba(imapping
Tile
p1811
(dp1812
g326
g327
sg328
VF_Dirt
p1813
sg330
F1
sg331
I00
sbaa(lp1814
NaNaNaNaNaNaNaNa(imapping
Tile
p1815
(dp1816
g326
g327
sg328
VF_Grass
p1817
sg330
F1
sg331
I00
sba(imapping
Tile
p1818
(dp1819
g326
g327
sg328
VF_Dirt
p1820
sg330
F1
sg331
I00
sba(imapping
Tile
p1821
(dp1822
g326
g327
sg328
VF_Dirt
p1823
sg330
F1
sg331
I00
sba(imapping
Tile
p1824
(dp1825
g326
g327
sg328
VF_Dirt
p1826
sg330
F1
sg331
I00
sbaa(lp1827
NaNaNaNaNaNaNaNa(imapping
Tile
p1828
(dp1829
g326
g327
sg328
VF_Grass
p1830
sg330
F1
sg331
I00
sba(imapping
Tile
p1831
(dp1832
g326
g327
sg328
VF_Dirt
p1833
sg330
F1
sg331
I00
sba(imapping
Tile
p1834
(dp1835
g326
g327
sg328
VF_Dirt
p1836
sg330
F1
sg331
I00
sba(imapping
Tile
p1837
(dp1838
g326
g327
sg328
VF_Dirt
p1839
sg330
F1
sg331
I00
sbaa(lp1840
NaNaNaNaNaNaNaNa(imapping
Tile
p1841
(dp1842
g326
g327
sg328
VF_Grass
p1843
sg330
F1
sg331
I00
sba(imapping
Tile
p1844
(dp1845
g326
g327
sg328
VF_Dirt
p1846
sg330
F1
sg331
I00
sba(imapping
Tile
p1847
(dp1848
g326
g327
sg328
VF_Dirt
p1849
sg330
F1
sg331
I00
sba(imapping
Tile
p1850
(dp1851
g326
g327
sg328
VF_Dirt
p1852
sg330
F1
sg331
I00
sbaa(lp1853
NaNaNaNaNaNaNaNa(imapping
Tile
p1854
(dp1855
g326
g327
sg328
VF_Grass
p1856
sg330
F1
sg331
I00
sba(imapping
Tile
p1857
(dp1858
g326
g327
sg328
VF_Dirt
p1859
sg330
F1
sg331
I00
sba(imapping
Tile
p1860
(dp1861
g326
g327
sg328
VF_Dirt
p1862
sg330
F1
sg331
I00
sba(imapping
Tile
p1863
(dp1864
g326
g327
sg328
VF_Dirt
p1865
sg330
F1
sg331
I00
sbaa(lp1866
NaNaNaNaNaNaNaNaNaNaNaNaa(lp1867
NaNaNaNaNaNaNaNaNaNaNaNaa(lp1868
NaNaNaNaNaNaNaNaNaNaNaNaa(lp1869
NaNaNaNaNaNaNaNaNaNaNaNaa(lp1870
NaNaNaNaNaNaNaNaNaNaNaNaa(lp1871
NaNaNaNaNaNaNaNaNaNaNaNaa(lp1872
NaNaNaNaNaNaNaNaNaNaNaNaa(lp1873
NaNaNaNaNaNaNaNaNaNaNaNaa(lp1874
NaNaNaNaNaNaNaNaNaNaNaNaa(lp1875
NaNaNaNaNaNaNaNaNaNaNaNaa(lp1876
NaNaNaNaNaNaNaNaNaNaNaNaa(lp1877
NaNaNaNaNaNaNaNaNaNaNaNaa(lp1878
NaNaNaNaNaNaNaNaNaNaNaNaa(lp1879
NaNaNaNaNaNaNaNaNaNaNaNaa(lp1880
NaNaNaNaNaNaNaNaNaNaNaNaa(lp1881
NaNaNaNaNaNaNaNaNaNaNaNaa(lp1882
NaNaNaNaNaNaNaNaNaNaNaNaa(lp1883
NaNaNaNaNaNaNaNaNaNaNaNaa(lp1884
NaNaNaNaNaNaNaNaNaNaNaNaa(lp1885
NaNaNaNaNaNaNaNaNaNaNaNaa(lp1886
NaNaNaNaNaNaNaNaNaNaNaNaa(lp1887
NaNaNaNaNaNaNaNaNaNaNaNaasS'bgmusic'
p1888
Vbattle.ogg
p1889
sS'theme'
p1890
VForest
p1891
sS'endef'
p1892
(dp1893
VCSpider
p1894
Vcspider
p1895
sVWasp
p1896
Vwasp
p1897
sVSpider
p1898
Vspider
p1899
sVWorm
p1900
Vworm
p1901
sVPod
p1902
Vpod
p1903
sVGiantWorm
p1904
Vgiantworm
p1905
ssS'tiledef'
p1906
(dp1907
VF_Tuft1
p1908
Vtuft1.png
p1909
sVF_Dirttop->Grass
p1910
Vdirtmgrass.png
p1911
sVF_Grass->DirtL
p1912
Vgrass_dirt_l.png
p1913
sVC_Castle HRmL
p1914
Vcstl_hr_m_l.png
p1915
sVC_Castle Wall L
p1916
Vcstl_wleft.png
p1917
sVF_Dirt_R2
p1918
Vdirtr_edge2.png
p1919
sVC_Castle Wall R
p1920
Vcstl_wright.png
p1921
sVC_Castle HRmR
p1922
Vcstl_hr_m_r.png
p1923
sVF_RampJoinR
p1924
Vramp_mid_dirt_r.png
p1925
sVF_Ice
p1926
Vtile5.png
p1927
sVC_Suit of Armour
p1928
Vsuit_armour.png
p1929
sVC_Castle Floor 4
p1930
Vcstl_floor4.png
p1931
sVF_Right_Halframp1
p1932
VR_HR1.png
p1933
sVF_Right_Halframp2
p1934
VR_HR2.png
p1935
sVF_Shrooms1
p1936
Vshrooms1.png
p1937
sVF_Grass_Alt_1
p1938
Vgrassc1.png
p1939
sVC_Castle Floor 1
p1940
Vcstl_floor1.png
p1941
sVC_Castle Floor 2
p1942
Vcstl_floor2.png
p1943
sVC_Castle Floor 3
p1944
Vcstl_floor3.png
p1945
sVF_Stump
p1946
Vtreestump.png
p1947
sVF_Tuft2
p1948
Vtuft2.png
p1949
sVF_Dirt_Alt_4
p1950
Vdirtc4.png
p1951
sVC_Castle Ground 2
p1952
Vcstl_ground2.png
p1953
sVC_Castle Ground 3
p1954
Vcstl_ground3.png
p1955
sVC_Castle Ground 1
p1956
Vcstl_ground1.png
p1957
sVC_Castle HRL
p1958
Vcstl_hr_l.png
p1959
sVF_Dirt_BL
p1960
Vdirtl_bedge.png
p1961
sVF_Right_Ramp
p1962
VR_R.png
p1963
sVF_GrassLedge
p1964
Vgrassl_edge.png
p1965
sVF_Dirt_BR
p1966
Vdirtr_bedge.png
p1967
sVF_Dirtb
p1968
Vdirtb.png
p1969
sVF_Dirt_Alt_1
p1970
Vdirtc1.png
p1971
sVF_HalframpJoinL
p1972
Vhalframp_mid_dirt_l.png
p1973
sVF_Left_Ramp
p1974
VL_R.png
p1975
sVC_Castle Floor Edge R
p1976
Vcstl_floor_edge_right.png
p1977
sVF_Dirt_L1
p1978
Vdirtl_edge1.png
p1979
sVF_Dirt_L2
p1980
Vdirtl_edge2.png
p1981
sVC_Castle Floor Edge L
p1982
Vcstl_floor_edge_left.png
p1983
sVF_Grass
p1984
Vgrass.png
p1985
sVF_Grass->DirtR
p1986
Vgrass_dirt_r.png
p1987
sVF_Left_Halframp2
p1988
VL_HR2.png
p1989
sVF_Shrooms2
p1990
Vshrooms2.png
p1991
sVF_Left_Halframp1
p1992
VL_HR1.png
p1993
sVF_Shrooms3
p1994
Vshrooms3.png
p1995
sVF_Dirt
p1996
Vdirt.png
p1997
sVF_GrassRedge
p1998
Vgrassr_edge.png
p1999
sVC_Castle Wall->Floor R
p2000
Vcstl_wfright.png
p2001
sVF_RampJoinL
p2002
Vramp_mid_dirt_l.png
p2003
sVC_Castle HRR
p2004
Vcstl_hr_r.png
p2005
sVF_Grass_Alt_2
p2006
Vgrassc2.png
p2007
sVF_ExitSign
p2008
Vexitsign.png
p2009
sVF_Dirt_Alt_3
p2010
Vdirtc3.png
p2011
sVF_Dirttop
p2012
Vdirttop.png
p2013
sVF_Dirt_R1
p2014
Vdirtr_edge1.png
p2015
sVF_Grass->Dirttop
p2016
Vgrassmdirt.png
p2017
sVF_Dirt_Alt_2
p2018
Vdirtc2.png
p2019
sVF_Dirtb2
p2020
Vdirtb2.png
p2021
sVC_Castle Wall->Floor L
p2022
Vcstl_wfleft.png
p2023
sVF_HalframpJoinR
p2024
Vhalframp_mid_dirt_r.png
p2025
ssb.