(imapping
Map
p1
(dp2
S'enemy'
p3
(lp4
(lp5
NaNaNaNaNaNaNaNaNaNaNaNaa(lp6
NaNaNaNaNaNaNaNaNaNaNaNaa(lp7
NaNaNaNaNaNaNaNaNaNaNaNaa(lp8
NaNaNaNaNaNaNaNaNaNaNaNaa(lp9
NaNaNaNaNaNaNaNaNaNaNaNaa(lp10
NaNaNaNaNaNaNaNaNaNaNaNaa(lp11
NaNaNaNaNaNaNaNaNaNaNaNaa(lp12
NaNaNaNaNaNaNaNaNaVWasp
p13
aNaNaa(lp14
NaNaNaNaNaNaNaNaNaNaNaNaa(lp15
NaNaNaNaNaNaNaNaNaNaNaNaa(lp16
NaNaNaNaNaNaNaNaNaNaNaNaa(lp17
NaNaNaNaNaNaNaNaNaNaNaNaa(lp18
NaNaNaNaNaNaNaNaNaNaNaNaa(lp19
NaNaNaNaNaNaNaNaNaNaNaNaa(lp20
NaNaNaNaNaNaNaNaNaNaNaNaa(lp21
NaNaNaNaNaNaNaNaNaVWasp
p22
aNaNaa(lp23
NaNaNaNaNaNaNaNaNaNaNaNaa(lp24
NaNaNaNaNaNaNaNaNaNaVWorm
p25
aNaa(lp26
NaNaNaNaNaNaNaNaNaNaNaNaa(lp27
NaNaNaNaNaNaNaNaNaNaNaNaa(lp28
NaNaNaNaNaNaNaNaNaNaNaNaa(lp29
NaNaNaNaNaNaNaNaNaNaNaNaa(lp30
NaNaNaNaNaNaNaNaNaNaNaNaa(lp31
NaNaNaNaNaNaNaNaNaNaNaNaa(lp32
NaNaNaNaNaNaNaNaNaNaNaNaa(lp33
NaNaNaNaNaNaNaNaNaNaNaNaa(lp34
NaNaNaNaNaNaNaNaNaNaNaNaa(lp35
NaNaNaNaNaNaNaNaNaNaNaNaa(lp36
NaNaNaNaNaNaNaNaNaNaNaNaa(lp37
NaNaNaNaNaNaNaNaNaNaNaNaa(lp38
NaNaNaNaNaNaNaNaNaNaNaNaa(lp39
NaNaNaNaNaNaNaNaNaNaNaNaa(lp40
NaNaNaNaNaNaNaNaNaNaNaNaa(lp41
NaNaNaNaNaNaNaNaVSpider
p42
aNaNaNaa(lp43
NaNaNaNaNaNaNaNaNaNaNaNaa(lp44
NaNaNaNaNaNaNaNaNaNaNaNaa(lp45
NaNaNaNaNaNaNaNaNaNaNaNaa(lp46
NaNaNaNaNaNaNaNaNaNaNaNaa(lp47
NaNaNaNaNaNaNaNaNaNaNaNaa(lp48
NaNaNaNaNaNaNaNaNaNaNaNaa(lp49
NaNaNaNaNaNaNaNaVWorm
p50
aNaNaNaa(lp51
NaNaNaNaNaNaNaNaNaNaNaNaa(lp52
NaNaNaNaNaNaNaNaNaNaNaNaa(lp53
NaNaNaNaNaNaNaNaNaNaNaNaa(lp54
NaNaNaNaNaNaNaNaNaNaNaNaa(lp55
NaNaNaNaNaNaNaNaNaNaNaNaa(lp56
NaNaNaNaNaNaNaNaNaNaVPod
p57
aNaa(lp58
NaNaNaNaNaNaNaNaNaNaNaNaa(lp59
NaNaNaNaNaNaNaNaNaNaNaNaa(lp60
NaNaNaNaNaNaNaVSpider
p61
aNaNaNaNaa(lp62
NaNaNaNaNaNaNaNaNaNaNaNaa(lp63
NaNaNaNaNaNaVSpider
p64
aNaNaNaNaNaa(lp65
NaNaNaNaNaNaNaNaNaNaNaNaa(lp66
NaNaNaNaNaNaNaNaNaNaNaNaa(lp67
NaNaNaNaNaNaNaNaNaNaNaNaa(lp68
NaNaNaNaNaNaNaNaNaNaNaNaa(lp69
NaNaNaNaNaNaVWasp
p70
aNaNaNaNaNaa(lp71
NaNaNaNaNaNaNaNaNaNaNaNaa(lp72
NaNaNaNaNaNaNaNaNaNaNaNaa(lp73
NaNaNaNaNaNaNaNaNaNaNaNaa(lp74
NaNaNaNaNaNaVWasp
p75
aNaNaNaNaNaa(lp76
NaNaNaNaNaNaNaNaNaNaNaNaa(lp77
NaNaNaNaNaNaNaNaNaNaNaNaa(lp78
NaNaNaNaNaNaNaNaNaNaNaNaa(lp79
NaNaNaNaNaNaVWasp
p80
aNaNaNaNaNaa(lp81
NaNaNaNaNaNaNaNaNaNaNaNaa(lp82
NaNaNaNaNaNaNaNaNaNaNaNaa(lp83
NaNaNaNaNaNaNaNaNaNaNaNaa(lp84
NaNaNaNaNaNaNaNaNaNaNaNaa(lp85
NaNaNaNaNaNaVWorm
p86
aNaNaNaNaNaa(lp87
NaNaNaNaNaNaNaNaNaNaNaNaa(lp88
NaNaNaNaNaNaNaNaNaNaNaNaa(lp89
NaNaNaNaNaNaNaNaNaNaNaNaa(lp90
NaNaNaNaNaNaNaNaNaNaNaNaa(lp91
NaNaNaNaNaNaNaNaNaNaNaNaa(lp92
NaNaNaNaNaNaNaNaNaNaNaNaa(lp93
NaNaNaNaNaNaNaNaNaNaNaNaa(lp94
NaNaNaNaNaNaNaNaNaNaNaNaa(lp95
NaNaNaNaNaNaNaNaNaNaNaNaa(lp96
NaNaNaNaNaNaNaNaNaNaNaNaa(lp97
NaNaNaNaNaNaNaNaNaNaNaNaa(lp98
NaNaNaNaNaNaNaNaNaNaNaNaa(lp99
NaNaNaNaNaNaVWorm
p100
aNaNaNaNaNaa(lp101
NaNaNaNaNaNaNaNaNaNaNaNaa(lp102
NaNaNaNaNaNaNaNaNaNaNaNaa(lp103
NaNaNaNaNaNaNaNaNaNaNaNaa(lp104
NaNaNaNaNaNaNaNaNaNaNaNaa(lp105
NaNaNaNaNaNaNaNaNaNaNaNaa(lp106
NaNaNaNaNaNaNaNaNaNaNaNaa(lp107
NaNaNaNaNaNaNaNaNaNaNaNaa(lp108
NaNaNaNaNaNaNaNaNaNaNaNaa(lp109
NaNaNaNaNaNaNaNaNaNaNaNaa(lp110
NaNaNaNaNaNaNaNaNaNaNaNaa(lp111
NaNaNaNaNaNaNaNaNaNaNaNaa(lp112
NaNaNaNaNaNaNaNaNaNaNaNaa(lp113
NaNaNaNaNaNaNaNaNaNaNaNaa(lp114
NaNaNaNaNaNaNaNaNaNaNaNaa(lp115
NaNaNaNaNaNaNaNaNaVWasp
p116
aNaNaa(lp117
NaNaNaNaNaNaNaNaNaNaNaNaa(lp118
NaNaNaNaNaNaNaNaNaNaNaNaa(lp119
NaNaNaNaNaNaNaNaNaVWasp
p120
aNaNaa(lp121
NaNaNaNaNaNaNaNaNaNaNaNaa(lp122
NaNaNaNaNaNaNaNaNaNaNaNaa(lp123
NaNaNaNaNaNaNaNaNaNaNaNaa(lp124
NaNaNaNaNaNaNaNaNaNaNaNaa(lp125
NaNaNaNaNaNaNaNaNaNaNaNaa(lp126
NaNaNaNaNaNaNaNaNaNaNaNaa(lp127
NaNaNaNaNaNaNaNaNaNaNaNaa(lp128
NaNaNaNaNaNaNaNaNaNaNaNaa(lp129
NaNaNaNaNaNaNaNaNaVWasp
p130
aNaNaa(lp131
NaNaNaNaNaNaNaNaNaNaNaNaa(lp132
NaNaNaNaNaNaNaNaNaNaNaNaa(lp133
NaNaNaNaNaNaNaNaNaNaNaNaa(lp134
NaNaNaNaNaNaNaNaNaNaNaNaa(lp135
NaNaNaNaNaNaNaNaNaNaNaNaa(lp136
NaNaNaNaNaNaNaNaNaNaNaNaa(lp137
NaNaNaNaNaNaNaNaNaNaNaNaa(lp138
NaNaNaNaNaNaNaNaNaNaNaNaa(lp139
NaNaNaNaNaNaNaNaNaNaNaNaa(lp140
NaNaNaNaNaNaNaNaNaNaNaNaa(lp141
NaNaNaNaNaNaNaNaNaNaNaNaa(lp142
NaNaNaNaNaNaNaNaNaNaNaNaa(lp143
NaNaNaNaNaNaNaNaNaNaNaNaa(lp144
NaNaNaNaNaNaNaNaNaNaNaNaa(lp145
NaNaNaNaNaNaNaNaNaNaNaNaa(lp146
NaNaNaNaNaNaNaNaNaNaNaNaa(lp147
NaNaNaNaNaNaNaNaNaNaNaNaa(lp148
NaNaNaNaNaNaNaNaNaNaNaNaasS'objdef'
p149
(dp150
VButterfly
p151
VButterfly.png
p152
sVLevel_End
p153
VEnd.png
p154
sVShield
p155
VShield.png
p156
sVPlayer_Start
p157
VStart.png
p158
sVLever_Snow
p159
VLever1.png
p160
sVFallingRock
p161
VRock.png
p162
sVWalltorch
p163
VWalltorch.png
p164
sVFirepit
p165
VPit.png
p166
sVButterflyC
p167
VButterflyC.png
p168
sVButterflyB
p169
VButterflyB.png
p170
sVSword
p171
VSword.png
p172
sVTreasureBoxC
p173
VTreasureC_Closed.png
p174
sVTreasureBoxB
p175
VTreasureB_Closed.png
p176
sVTreasureBox
p177
VTreasure_Closed.png
p178
sVObelisk_Snow
p179
VObelisk_Snow.png
p180
ssS'obj'
p181
(lp182
(lp183
NaNaNaNaNaNaNaNaNaNaNaNaa(lp184
NaNaNaNaNaNaNaNaNaNaNaNaa(lp185
NaNaNaNaNaNaNaNaNaVPlayer_Start
p186
aNaNaa(lp187
NaNaNaNaNaNaNaNaNaNaNaNaa(lp188
NaNaNaNaNaNaNaNaNaNaNaNaa(lp189
NaNaNaNaNaNaNaNaNaNaNaNaa(lp190
NaNaNaNaNaNaNaNaNaNaNaNaa(lp191
NaNaNaNaNaNaNaNaNaNaNaNaa(lp192
NaNaNaNaNaNaNaNaNaNaNaNaa(lp193
NaNaNaNaNaNaNaNaNaNaNaNaa(lp194
NaNaNaNaNaNaNaNaNaNaNaNaa(lp195
NaNaNaNaNaNaNaVButterflyC
p196
aNaVTreasureBox
p197
aNaNaa(lp198
NaNaNaNaNaNaNaNaNaNaNaNaa(lp199
NaNaNaNaNaNaNaNaNaNaNaNaa(lp200
NaNaNaNaNaNaNaNaNaNaNaNaa(lp201
NaNaNaNaNaNaNaNaNaNaNaNaa(lp202
NaNaNaNaNaNaNaNaNaNaNaNaa(lp203
NaNaNaNaNaNaNaNaNaNaNaNaa(lp204
NaNaNaNaNaNaNaNaNaNaNaNaa(lp205
NaNaNaNaNaNaNaNaVButterflyB
p206
aNaNaNaa(lp207
NaNaNaNaNaNaNaNaNaNaNaNaa(lp208
NaNaNaNaNaNaVButterflyC
p209
aNaNaNaNaNaa(lp210
NaNaNaNaNaNaNaNaNaNaNaNaa(lp211
NaNaNaNaNaNaNaNaNaNaNaNaa(lp212
NaNaNaNaVButterfly
p213
aNaNaNaNaNaNaNaa(lp214
NaNaNaNaNaNaNaNaNaNaNaNaa(lp215
NaNaNaNaNaNaNaNaNaNaNaNaa(lp216
NaNaNaNaNaNaNaNaNaNaNaNaa(lp217
NaNaNaNaNaNaNaNaNaNaNaNaa(lp218
NaNaNaNaNaNaNaNaNaNaNaNaa(lp219
NaNaNaNaNaNaNaNaNaNaNaNaa(lp220
NaNaNaNaNaNaNaNaNaNaNaNaa(lp221
NaNaNaNaNaNaVButterfly
p222
aNaNaNaNaNaa(lp223
NaNaNaNaNaNaNaNaNaNaNaNaa(lp224
NaNaNaNaNaNaNaNaNaNaNaNaa(lp225
NaNaNaNaNaNaNaNaVButterfly
p226
aNaNaNaa(lp227
NaNaNaNaNaNaNaNaNaNaNaNaa(lp228
NaNaNaNaNaNaNaNaNaNaNaNaa(lp229
NaNaNaNaNaNaNaNaNaNaNaNaa(lp230
NaNaNaNaNaNaNaVButterflyC
p231
aNaNaNaNaa(lp232
NaNaNaNaNaNaNaNaNaNaNaNaa(lp233
NaNaNaNaNaNaNaNaNaNaNaNaa(lp234
NaNaNaNaNaNaNaNaNaNaNaNaa(lp235
NaNaNaNaNaNaNaNaNaNaNaNaa(lp236
NaNaNaNaNaNaNaNaNaNaNaNaa(lp237
NaNaNaNaNaNaNaNaNaNaNaNaa(lp238
NaNaNaNaNaNaNaNaNaVButterflyB
p239
aNaNaa(lp240
NaNaNaNaNaNaNaNaNaNaNaNaa(lp241
NaNaNaNaNaNaNaNaNaNaNaNaa(lp242
NaNaNaNaNaNaNaNaNaNaNaNaa(lp243
NaNaNaNaNaNaNaNaNaNaNaNaa(lp244
NaNaNaNaNaNaNaNaNaNaNaNaa(lp245
NaNaNaNaNaNaNaNaNaNaNaNaa(lp246
NaNaNaNaNaNaNaNaNaNaNaNaa(lp247
NaNaNaNaNaVButterflyC
p248
aNaNaNaNaNaNaa(lp249
NaNaNaNaNaNaNaNaNaNaNaNaa(lp250
NaNaNaNaNaNaNaNaNaNaNaNaa(lp251
NaNaNaNaNaNaNaNaNaNaNaNaa(lp252
NaNaNaNaNaNaNaNaNaNaNaNaa(lp253
NaNaNaNaNaNaNaNaNaNaNaNaa(lp254
NaNaNaNaNaNaNaNaNaNaNaNaa(lp255
NaNaNaNaNaNaNaNaNaNaNaNaa(lp256
NaNaNaNaNaNaNaNaNaNaNaNaa(lp257
NaNaNaNaNaNaNaNaNaNaNaNaa(lp258
NaNaNaNaNaVButterflyB
p259
aNaNaNaNaNaNaa(lp260
NaNaNaNaNaNaNaNaNaNaNaNaa(lp261
NaNaNaNaNaNaNaNaNaNaNaNaa(lp262
NaNaNaNaNaNaNaNaNaNaNaNaa(lp263
NaNaNaNaNaNaNaNaNaNaNaNaa(lp264
NaNaNaNaNaNaNaNaNaNaNaNaa(lp265
NaNaNaNaNaVButterfly
p266
aNaNaNaNaNaNaa(lp267
NaNaNaNaNaNaNaNaNaNaNaNaa(lp268
NaNaNaNaNaNaNaNaNaNaNaNaa(lp269
NaNaNaNaNaNaNaNaNaNaNaNaa(lp270
NaNaNaNaNaNaNaNaNaNaNaNaa(lp271
NaNaNaNaNaNaNaNaNaNaNaNaa(lp272
NaNaNaNaNaNaNaNaNaNaNaNaa(lp273
NaNaNaNaNaNaNaNaNaNaNaNaa(lp274
NaNaNaNaNaNaNaNaNaNaNaNaa(lp275
NaNaNaNaNaNaNaNaNaNaNaNaa(lp276
NaNaNaNaNaVButterflyB
p277
aNaNaNaNaNaNaa(lp278
NaNaNaNaNaNaNaNaNaNaNaNaa(lp279
NaNaNaNaNaNaNaNaNaNaNaNaa(lp280
NaNaNaNaNaNaNaNaNaNaNaNaa(lp281
NaNaNaNaNaNaNaNaVButterfly
p282
aNaNaNaa(lp283
NaNaNaNaNaNaNaNaNaNaNaNaa(lp284
NaNaNaNaNaNaNaNaNaNaNaNaa(lp285
NaNaNaNaNaNaNaNaNaNaNaNaa(lp286
NaNaNaNaNaNaNaNaNaNaNaNaa(lp287
NaNaNaNaNaNaNaNaNaNaNaNaa(lp288
NaNaNaNaNaNaNaVButterflyC
p289
aNaNaNaNaa(lp290
NaNaNaNaNaNaNaNaNaNaNaNaa(lp291
NaNaNaNaNaNaNaNaNaNaNaNaa(lp292
NaNaNaNaNaNaNaNaNaNaNaNaa(lp293
NaNaNaNaNaNaNaNaNaNaNaNaa(lp294
NaNaNaNaNaNaNaNaNaNaNaNaa(lp295
NaNaNaNaNaNaNaNaNaNaNaNaa(lp296
NaNaNaNaNaNaNaNaNaNaNaNaa(lp297
NaNaNaNaNaNaNaNaNaNaVTreasureBox
p298
aNaa(lp299
NaNaNaNaNaNaNaNaVButterfly
p300
aNaNaNaa(lp301
NaNaNaNaNaNaNaNaNaNaNaNaa(lp302
NaNaNaNaNaNaNaNaNaNaNaNaa(lp303
NaNaNaNaNaNaNaNaNaNaNaNaa(lp304
NaNaNaNaNaNaNaNaNaNaNaNaa(lp305
NaNaNaNaNaNaNaNaNaNaNaNaa(lp306
NaNaNaNaNaNaNaNaNaNaNaNaa(lp307
NaNaNaNaNaNaNaNaNaNaNaNaa(lp308
NaNaNaNaNaNaNaNaNaNaNaNaa(lp309
NaNaNaNaNaNaNaNaVButterflyB
p310
aNaNaNaa(lp311
NaNaNaNaNaNaNaNaNaNaNaNaa(lp312
NaNaNaNaNaNaNaNaNaNaNaNaa(lp313
NaNaNaNaNaNaNaNaNaVLevel_End
p314
aNaNaa(lp315
NaNaNaNaNaNaNaNaNaNaNaNaa(lp316
NaNaNaNaNaNaNaNaNaNaNaNaa(lp317
NaNaNaNaNaNaNaNaNaNaNaNaa(lp318
NaNaNaNaNaNaNaVButterfly
p319
aNaNaNaNaa(lp320
NaNaNaNaNaNaNaNaNaNaNaNaa(lp321
NaNaNaNaNaNaNaNaNaNaNaNaa(lp322
NaNaNaNaNaNaNaNaNaNaNaNaa(lp323
NaNaNaNaNaNaNaNaNaNaNaNaa(lp324
NaNaNaNaNaNaNaNaNaNaNaNaa(lp325
NaNaNaNaNaNaNaNaNaNaNaNaa(lp326
NaNaNaNaNaNaNaNaNaVButterflyC
p327
aNaNaa(lp328
NaNaNaNaNaNaNaNaNaNaNaNaa(lp329
NaNaNaNaNaNaNaNaNaNaNaNaa(lp330
NaNaNaNaNaNaNaNaNaNaNaNaa(lp331
NaNaNaNaNaNaNaNaNaNaNaNaa(lp332
NaNaNaNaNaNaNaNaNaNaNaNaasS'name'
p333
Vsempridge3
p334
sS'map'
p335
(lp336
(lp337
NaNaNaNaNa(imapping
Tile
p338
(dp339
S'collidetype'
p340
S'NONE_R'
p341
sS'type'
p342
VF_Shrooms3
p343
sS'friction'
p344
F1
sS'overhead'
p345
I00
sba(imapping
Tile
p346
(dp347
g340
S'BOX'
p348
sg342
VF_GrassRedge
p349
sg344
F1
sg345
I00
sba(imapping
Tile
p350
(dp351
g340
g348
sg342
VF_Dirt_R1
p352
sg344
F1
sg345
I00
sba(imapping
Tile
p353
(dp354
g340
g348
sg342
VF_Dirt_R2
p355
sg344
F1
sg345
I00
sba(imapping
Tile
p356
(dp357
g340
g348
sg342
VF_Dirt_R1
p358
sg344
F1
sg345
I00
sba(imapping
Tile
p359
(dp360
g340
g348
sg342
VF_Grass->DirtR
p361
sg344
F1
sg345
I00
sba(imapping
Tile
p362
(dp363
g340
g348
sg342
VF_Dirt_Alt_1
p364
sg344
F1
sg345
I00
sbaa(lp365
NaNaNaNaNaNaNaNaNaNa(imapping
Tile
p366
(dp367
g340
g348
sg342
VF_Grass_Alt_2
p368
sg344
F1
sg345
I00
sba(imapping
Tile
p369
(dp370
g340
g348
sg342
VF_Dirt
p371
sg344
F1
sg345
I00
sbaa(lp372
NaNaNaNaNaNaNaNaNaNa(imapping
Tile
p373
(dp374
g340
g348
sg342
VF_Grass_Alt_4
p375
sg344
F1
sg345
I00
sba(imapping
Tile
p376
(dp377
g340
g348
sg342
VF_Dirt_Alt_1
p378
sg344
F1
sg345
I00
sbaa(lp379
NaNaNaNaNaNaNaNaNa(imapping
Tile
p380
(dp381
g340
S'NONE'
p382
sg342
VF_Shrooms2
p383
sg344
F1
sg345
I00
sba(imapping
Tile
p384
(dp385
g340
g348
sg342
VF_Grass_Alt_3
p386
sg344
F1
sg345
I00
sba(imapping
Tile
p387
(dp388
g340
g348
sg342
VF_Dirt
p389
sg344
F1
sg345
I00
sbaa(lp390
NaNaNaNaNaNaNaNaNa(imapping
Tile
p391
(dp392
g340
g382
sg342
VF_Tuft2
p393
sg344
F1
sg345
I00
sba(imapping
Tile
p394
(dp395
g340
g348
sg342
VF_Grass
p396
sg344
F1
sg345
I00
sba(imapping
Tile
p397
(dp398
g340
g348
sg342
VF_Dirt
p399
sg344
F1
sg345
I00
sbaa(lp400
NaNaNaNaNaNaNaNaNaNa(imapping
Tile
p401
(dp402
g340
g348
sg342
VF_GrassRedge
p403
sg344
F1
sg345
I00
sba(imapping
Tile
p404
(dp405
g340
g348
sg342
VF_Dirt_R2
p406
sg344
F1
sg345
I00
sbaa(lp407
NaNaNaNaNaNaNaNaNaNaNaNaa(lp408
NaNaNaNaNaNaNaNaNaNaNaNaa(lp409
NaNaNaNaNaNaNaNaNaNa(imapping
Tile
p410
(dp411
g340
g348
sg342
VF_GrassLedge
p412
sg344
F1
sg345
I00
sba(imapping
Tile
p413
(dp414
g340
g348
sg342
VF_Dirt_L2
p415
sg344
F1
sg345
I00
sbaa(lp416
NaNaNaNaNaNaNaNaNaNa(imapping
Tile
p417
(dp418
g340
g348
sg342
VF_Grass_Alt_4
p419
sg344
F1
sg345
I00
sba(imapping
Tile
p420
(dp421
g340
g348
sg342
VF_Dirt
p422
sg344
F1
sg345
I00
sbaa(lp423
NaNaNaNaNaNaNaNaNaNa(imapping
Tile
p424
(dp425
g340
g348
sg342
VF_Grass_Alt_5
p426
sg344
F1
sg345
I00
sba(imapping
Tile
p427
(dp428
g340
g348
sg342
VF_Dirt_Alt_1
p429
sg344
F1
sg345
I00
sbaa(lp430
NaNaNaNaNaNaNaNaNaNa(imapping
Tile
p431
(dp432
g340
g348
sg342
VF_Grass_Alt_3
p433
sg344
F1
sg345
I00
sba(imapping
Tile
p434
(dp435
g340
g348
sg342
VF_Dirt
p436
sg344
F1
sg345
I00
sbaa(lp437
NaNaNaNaNaNaNaNaNaNa(imapping
Tile
p438
(dp439
g340
g348
sg342
VF_Grass_Alt_1
p440
sg344
F1
sg345
I00
sba(imapping
Tile
p441
(dp442
g340
g348
sg342
VF_Dirt
p443
sg344
F1
sg345
I00
sbaa(lp444
NaNaNaNaNaNaNaNaNaNa(imapping
Tile
p445
(dp446
g340
g348
sg342
VF_GrassRedge
p447
sg344
F1
sg345
I00
sba(imapping
Tile
p448
(dp449
g340
g348
sg342
VF_Grass->DirtR
p450
sg344
F1
sg345
I00
sbaa(lp451
NaNaNaNaNaNaNaNaNaNa(imapping
Tile
p452
(dp453
g340
g382
sg342
VF_Tuft1
p454
sg344
F1
sg345
I00
sba(imapping
Tile
p455
(dp456
g340
g348
sg342
VF_Grass
p457
sg344
F1
sg345
I00
sbaa(lp458
NaNaNaNaNaNaNaNaNaNaNa(imapping
Tile
p459
(dp460
g340
g348
sg342
VF_Grass
p461
sg344
F1
sg345
I00
sbaa(lp462
NaNaNaNaNaNaNaNaNaNa(imapping
Tile
p463
(dp464
g340
g341
sg342
VF_Shrooms1
p465
sg344
F1
sg345
I00
sba(imapping
Tile
p466
(dp467
g340
g348
sg342
VF_Grass
p468
sg344
F1
sg345
I00
sbaa(lp469
NaNaNaNaNaNaNaNaNaNaNa(imapping
Tile
p470
(dp471
g340
g348
sg342
VF_Grass
p472
sg344
F1
sg345
I00
sbaa(lp473
NaNaNaNaNaNaNaNaNaNa(imapping
Tile
p474
(dp475
g340
g348
sg342
VF_GrassLedge
p476
sg344
F1
sg345
I00
sba(imapping
Tile
p477
(dp478
g340
g348
sg342
VF_Grass->DirtL
p479
sg344
F1
sg345
I00
sbaa(lp480
NaNaNaNaNaNaNaNaNaNa(imapping
Tile
p481
(dp482
g340
g348
sg342
VF_Grass_Alt_4
p483
sg344
F1
sg345
I00
sba(imapping
Tile
p484
(dp485
g340
g348
sg342
VF_Dirt
p486
sg344
F1
sg345
I00
sbaa(lp487
NaNaNaNaNaNaNaNaNaNa(imapping
Tile
p488
(dp489
g340
g348
sg342
VF_Grass_Alt_1
p490
sg344
F1
sg345
I00
sba(imapping
Tile
p491
(dp492
g340
g348
sg342
VF_Dirt_Alt_4
p493
sg344
F1
sg345
I00
sbaa(lp494
NaNaNaNaNaNaNaNaNa(imapping
Tile
p495
(dp496
g340
g348
sg342
VF_GrassLedge
p497
sg344
F1
sg345
I00
sba(imapping
Tile
p498
(dp499
g340
g348
sg342
VF_Grass->DirtL
p500
sg344
F1
sg345
I00
sba(imapping
Tile
p501
(dp502
g340
g348
sg342
VF_Dirt_Alt_4
p503
sg344
F1
sg345
I00
sbaa(lp504
NaNaNaNaNaNaNaNa(imapping
Tile
p505
(dp506
g340
g348
sg342
VF_GrassLedge
p507
sg344
F1
sg345
I00
sba(imapping
Tile
p508
(dp509
g340
g348
sg342
VF_Grass->DirtL
p510
sg344
F1
sg345
I00
sba(imapping
Tile
p511
(dp512
g340
g348
sg342
VF_Dirt
p513
sg344
F1
sg345
I00
sba(imapping
Tile
p514
(dp515
g340
g348
sg342
VF_Dirt
p516
sg344
F1
sg345
I00
sbaa(lp517
NaNaNaNaNaNa(imapping
Tile
p518
(dp519
g340
g382
sg342
VF_Tuft1
p520
sg344
F1
sg345
I00
sba(imapping
Tile
p521
(dp522
g340
g348
sg342
VF_GrassLedge
p523
sg344
F1
sg345
I00
sba(imapping
Tile
p524
(dp525
g340
g348
sg342
VF_Grass->DirtL
p526
sg344
F1
sg345
I00
sba(imapping
Tile
p527
(dp528
g340
g348
sg342
VF_Dirt
p529
sg344
F1
sg345
I00
sba(imapping
Tile
p530
(dp531
g340
g348
sg342
VF_Dirt_Alt_2
p532
sg344
F1
sg345
I00
sba(imapping
Tile
p533
(dp534
g340
g348
sg342
VF_Dirt
p535
sg344
F1
sg345
I00
sbaa(lp536
NaNaNaNaNaNa(imapping
Tile
p537
(dp538
g340
g348
sg342
VF_GrassLedge
p539
sg344
F1
sg345
I00
sba(imapping
Tile
p540
(dp541
g340
g348
sg342
VF_Grass->DirtL
p542
sg344
F1
sg345
I00
sba(imapping
Tile
p543
(dp544
g340
g348
sg342
VF_Dirt_Alt_2
p545
sg344
F1
sg345
I00
sba(imapping
Tile
p546
(dp547
g340
g348
sg342
VF_Dirt_Alt_1
p548
sg344
F1
sg345
I00
sba(imapping
Tile
p549
(dp550
g340
g348
sg342
VF_Dirt
p551
sg344
F1
sg345
I00
sba(imapping
Tile
p552
(dp553
g340
g348
sg342
VF_Dirt
p554
sg344
F1
sg345
I00
sbaa(lp555
NaNaNaNaNa(imapping
Tile
p556
(dp557
g340
g382
sg342
VF_Shrooms2
p558
sg344
F1
sg345
I00
sba(imapping
Tile
p559
(dp560
g340
g348
sg342
VF_GrassRedge
p561
sg344
F1
sg345
I00
sba(imapping
Tile
p562
(dp563
g340
g348
sg342
VF_Dirt_R2
p564
sg344
F1
sg345
I00
sba(imapping
Tile
p565
(dp566
g340
g348
sg342
VF_Dirt_R1
p567
sg344
F1
sg345
I00
sba(imapping
Tile
p568
(dp569
g340
g348
sg342
VF_Dirt_R2
p570
sg344
F1
sg345
I00
sba(imapping
Tile
p571
(dp572
g340
g348
sg342
VF_Dirt_R2
p573
sg344
F1
sg345
I00
sba(imapping
Tile
p574
(dp575
g340
g348
sg342
VF_Dirt_R1
p576
sg344
F1
sg345
I00
sbaa(lp577
NaNaNaNaNaNaNaNaNaNaNaNaa(lp578
NaNaNaNaNaNaNaNaNaNaNaNaa(lp579
NaNaNaNaNaNaNaNaNaNaNaNaa(lp580
NaNaNaNaNaNaNaNaNaNa(imapping
Tile
p581
(dp582
g340
g348
sg342
VF_GrassLedge
p583
sg344
F1
sg345
I00
sba(imapping
Tile
p584
(dp585
g340
g348
sg342
VF_Dirt_L2
p586
sg344
F1
sg345
I00
sbaa(lp587
NaNaNaNaNaNaNaNaNaNa(imapping
Tile
p588
(dp589
g340
g348
sg342
VF_Grass
p590
sg344
F1
sg345
I00
sba(imapping
Tile
p591
(dp592
g340
g348
sg342
VF_Dirt
p593
sg344
F1
sg345
I00
sbaa(lp594
NaNaNaNaNaNaNaNaNa(imapping
Tile
p595
(dp596
g340
g341
sg342
VF_Stump
p597
sg344
F1
sg345
I00
sba(imapping
Tile
p598
(dp599
g340
g348
sg342
VF_Grass_Alt_4
p600
sg344
F1
sg345
I00
sba(imapping
Tile
p601
(dp602
g340
g348
sg342
VF_Dirt_Alt_4
p603
sg344
F1
sg345
I00
sbaa(lp604
NaNaNaNaNaNaNaNaNaNa(imapping
Tile
p605
(dp606
g340
g348
sg342
VF_Grass_Alt_5
p607
sg344
F1
sg345
I00
sba(imapping
Tile
p608
(dp609
g340
g348
sg342
VF_Dirt
p610
sg344
F1
sg345
I00
sbaa(lp611
NaNaNaNaNaNaNaNaNa(imapping
Tile
p612
(dp613
g340
g382
sg342
VF_Tuft2
p614
sg344
F1
sg345
I00
sba(imapping
Tile
p615
(dp616
g340
g348
sg342
VF_Grass_Alt_2
p617
sg344
F1
sg345
I00
sba(imapping
Tile
p618
(dp619
g340
g348
sg342
VF_Dirt
p620
sg344
F1
sg345
I00
sbaa(lp621
NaNaNaNaNaNaNaNaNaNa(imapping
Tile
p622
(dp623
g340
g348
sg342
VF_Grass
p624
sg344
F1
sg345
I00
sba(imapping
Tile
p625
(dp626
g340
g348
sg342
VF_Dirt
p627
sg344
F1
sg345
I00
sbaa(lp628
NaNaNaNaNaNaNaNaNaNa(imapping
Tile
p629
(dp630
g340
g348
sg342
VF_GrassRedge
p631
sg344
F1
sg345
I00
sba(imapping
Tile
p632
(dp633
g340
g348
sg342
VF_Dirt_R1
p634
sg344
F1
sg345
I00
sbaa(lp635
NaNaNaNaNaNaNaNaNaNaNaNaa(lp636
NaNaNaNaNaNaNaNaNa(imapping
Tile
p637
(dp638
g340
g348
sg342
VF_GrassLedge
p639
sg344
F1
sg345
I00
sba(imapping
Tile
p640
(dp641
g340
g348
sg342
VF_Dirt_L1
p642
sg344
F1
sg345
I00
sba(imapping
Tile
p643
(dp644
g340
g348
sg342
VF_Dirt_L2
p645
sg344
F1
sg345
I00
sbaa(lp646
NaNaNaNaNaNaNaNa(imapping
Tile
p647
(dp648
g340
g341
sg342
VF_Shrooms1
p649
sg344
F1
sg345
I00
sba(imapping
Tile
p650
(dp651
g340
g348
sg342
VF_Grass_Alt_4
p652
sg344
F1
sg345
I00
sba(imapping
Tile
p653
(dp654
g340
g348
sg342
VF_Dirt
p655
sg344
F1
sg345
I00
sba(imapping
Tile
p656
(dp657
g340
g348
sg342
VF_Dirt
p658
sg344
F1
sg345
I00
sbaa(lp659
NaNaNaNaNaNaNaNa(imapping
Tile
p660
(dp661
g340
g382
sg342
VF_Shrooms2
p662
sg344
F1
sg345
I00
sba(imapping
Tile
p663
(dp664
g340
g348
sg342
VF_Grass_Alt_2
p665
sg344
F1
sg345
I00
sba(imapping
Tile
p666
(dp667
g340
g348
sg342
VF_Dirt
p668
sg344
F1
sg345
I00
sba(imapping
Tile
p669
(dp670
g340
g348
sg342
VF_Dirt_Alt_4
p671
sg344
F1
sg345
I00
sbaa(lp672
NaNaNaNaNaNaNaNaNa(imapping
Tile
p673
(dp674
g340
g348
sg342
VF_Grass_Alt_3
p675
sg344
F1
sg345
I00
sba(imapping
Tile
p676
(dp677
g340
g348
sg342
VF_Dirt_Alt_4
p678
sg344
F1
sg345
I00
sba(imapping
Tile
p679
(dp680
g340
g348
sg342
VF_Dirt
p681
sg344
F1
sg345
I00
sbaa(lp682
NaNaNaNaNaNaNaNa(imapping
Tile
p683
(dp684
g340
g382
sg342
VF_Tuft1
p685
sg344
F1
sg345
I00
sba(imapping
Tile
p686
(dp687
g340
g348
sg342
VF_GrassRedge
p688
sg344
F1
sg345
I00
sba(imapping
Tile
p689
(dp690
g340
g348
sg342
VF_Dirt_R1
p691
sg344
F1
sg345
I00
sba(imapping
Tile
p692
(dp693
g340
g348
sg342
VF_Dirt_R1
p694
sg344
F1
sg345
I00
sbaa(lp695
NaNaNaNaNaNaNaNaNaNaNaNaa(lp696
NaNaNaNaNaNaNaNaNaNaNa(imapping
Tile
p697
(dp698
g340
g348
sg342
VF_GrassLedge
p699
sg344
F1
sg345
I00
sbaa(lp700
NaNaNaNaNaNaNaNaNaNaNa(imapping
Tile
p701
(dp702
g340
g348
sg342
VF_Grass
p703
sg344
F1
sg345
I00
sbaa(lp704
NaNaNaNaNaNaNaNaNaNa(imapping
Tile
p705
(dp706
g340
g382
sg342
VF_Tuft1
p707
sg344
F1
sg345
I00
sba(imapping
Tile
p708
(dp709
g340
g348
sg342
VF_Grass_Alt_2
p710
sg344
F1
sg345
I00
sbaa(lp711
NaNaNaNaNaNaNaNaNaNaNa(imapping
Tile
p712
(dp713
g340
g348
sg342
VF_Grass_Alt_3
p714
sg344
F1
sg345
I00
sbaa(lp715
NaNaNaNaNaNaNaNaNaNa(imapping
Tile
p716
(dp717
g340
g341
sg342
VF_Shrooms1
p718
sg344
F1
sg345
I00
sba(imapping
Tile
p719
(dp720
g340
g348
sg342
VF_Grass_Alt_5
p721
sg344
F1
sg345
I00
sbaa(lp722
NaNaNaNaNaNaNaNaNaNaNa(imapping
Tile
p723
(dp724
g340
g348
sg342
VF_Grass_Alt_4
p725
sg344
F1
sg345
I00
sbaa(lp726
NaNaNaNaNaNaNaNaNaNa(imapping
Tile
p727
(dp728
g340
S'RIGHT_INCLINATION'
p729
sg342
VF_Right_Ramp
p730
sg344
F1
sg345
I00
sba(imapping
Tile
p731
(dp732
g340
g348
sg342
VF_RampJoinR
p733
sg344
F1
sg345
I00
sbaa(lp734
NaNaNaNaNaNaNaNaNa(imapping
Tile
p735
(dp736
g340
g729
sg342
VF_Right_Ramp
p737
sg344
F1
sg345
I00
sba(imapping
Tile
p738
(dp739
g340
g348
sg342
VF_RampJoinR
p740
sg344
F1
sg345
I00
sba(imapping
Tile
p741
(dp742
g340
g348
sg342
VF_Dirt
p743
sg344
F1
sg345
I00
sbaa(lp744
NaNaNaNaNaNaNaNa(imapping
Tile
p745
(dp746
g340
g729
sg342
VF_Right_Ramp
p747
sg344
F1
sg345
I00
sba(imapping
Tile
p748
(dp749
g340
g348
sg342
VF_RampJoinR
p750
sg344
F1
sg345
I00
sba(imapping
Tile
p751
(dp752
g340
g348
sg342
VF_Dirt
p753
sg344
F1
sg345
I00
sba(imapping
Tile
p754
(dp755
g340
g348
sg342
VF_Dirt
p756
sg344
F1
sg345
I00
sbaa(lp757
NaNaNaNaNaNaNa(imapping
Tile
p758
(dp759
g340
g729
sg342
VF_Right_Ramp
p760
sg344
F1
sg345
I00
sba(imapping
Tile
p761
(dp762
g340
g348
sg342
VF_RampJoinR
p763
sg344
F1
sg345
I00
sba(imapping
Tile
p764
(dp765
g340
g348
sg342
VF_Dirt
p766
sg344
F1
sg345
I00
sba(imapping
Tile
p767
(dp768
g340
g348
sg342
VF_Dirt
p769
sg344
F1
sg345
I00
sba(imapping
Tile
p770
(dp771
g340
g348
sg342
VF_Dirt
p772
sg344
F1
sg345
I00
sbaa(lp773
NaNaNaNaNaNaNa(imapping
Tile
p774
(dp775
g340
g348
sg342
VF_Grass_Alt_2
p776
sg344
F1
sg345
I00
sba(imapping
Tile
p777
(dp778
g340
g348
sg342
VF_Dirt
p779
sg344
F1
sg345
I00
sba(imapping
Tile
p780
(dp781
g340
g348
sg342
VF_Dirt
p782
sg344
F1
sg345
I00
sba(imapping
Tile
p783
(dp784
g340
g348
sg342
VF_Dirt
p785
sg344
F1
sg345
I00
sba(imapping
Tile
p786
(dp787
g340
g348
sg342
VF_Dirt_Alt_1
p788
sg344
F1
sg345
I00
sbaa(lp789
NaNaNaNaNaNaNa(imapping
Tile
p790
(dp791
g340
S'LEFT_INCLINATION'
p792
sg342
VF_Left_Ramp
p793
sg344
F1
sg345
I00
sba(imapping
Tile
p794
(dp795
g340
g348
sg342
VF_RampJoinL
p796
sg344
F1
sg345
I00
sba(imapping
Tile
p797
(dp798
g340
g348
sg342
VF_Dirt_Alt_4
p799
sg344
F1
sg345
I00
sba(imapping
Tile
p800
(dp801
g340
g348
sg342
VF_Dirt_Alt_1
p802
sg344
F1
sg345
I00
sba(imapping
Tile
p803
(dp804
g340
g348
sg342
VF_Dirt
p805
sg344
F1
sg345
I00
sbaa(lp806
NaNaNaNaNaNaNaNa(imapping
Tile
p807
(dp808
g340
g348
sg342
VF_Grass
p809
sg344
F1
sg345
I00
sba(imapping
Tile
p810
(dp811
g340
g348
sg342
VF_Dirt_Alt_4
p812
sg344
F1
sg345
I00
sba(imapping
Tile
p813
(dp814
g340
g348
sg342
VF_Dirt_Alt_1
p815
sg344
F1
sg345
I00
sba(imapping
Tile
p816
(dp817
g340
g348
sg342
VF_Dirt
p818
sg344
F1
sg345
I00
sbaa(lp819
NaNaNaNaNaNaNa(imapping
Tile
p820
(dp821
g340
g729
sg342
VF_Right_Ramp
p822
sg344
F1
sg345
I00
sba(imapping
Tile
p823
(dp824
g340
g348
sg342
VF_RampJoinR
p825
sg344
F1
sg345
I00
sba(imapping
Tile
p826
(dp827
g340
g348
sg342
VF_Dirt
p828
sg344
F1
sg345
I00
sba(imapping
Tile
p829
(dp830
g340
g348
sg342
VF_Dirt
p831
sg344
F1
sg345
I00
sba(imapping
Tile
p832
(dp833
g340
g348
sg342
VF_Dirt
p834
sg344
F1
sg345
I00
sbaa(lp835
NaNaNaNaNaNa(imapping
Tile
p836
(dp837
g340
g341
sg342
VF_Shrooms1
p838
sg344
F1
sg345
I00
sba(imapping
Tile
p839
(dp840
g340
g348
sg342
VF_Grass_Alt_5
p841
sg344
F1
sg345
I00
sba(imapping
Tile
p842
(dp843
g340
g348
sg342
VF_Dirt
p844
sg344
F1
sg345
I00
sba(imapping
Tile
p845
(dp846
g340
g348
sg342
VF_Dirt
p847
sg344
F1
sg345
I00
sba(imapping
Tile
p848
(dp849
g340
g348
sg342
VF_Dirt
p850
sg344
F1
sg345
I00
sba(imapping
Tile
p851
(dp852
g340
g348
sg342
VF_Dirt
p853
sg344
F1
sg345
I00
sbaa(lp854
NaNaNaNaNaNaNa(imapping
Tile
p855
(dp856
g340
g792
sg342
VF_Left_Ramp
p857
sg344
F1
sg345
I00
sba(imapping
Tile
p858
(dp859
g340
g348
sg342
VF_RampJoinL
p860
sg344
F1
sg345
I00
sba(imapping
Tile
p861
(dp862
g340
g348
sg342
VF_Dirt
p863
sg344
F1
sg345
I00
sba(imapping
Tile
p864
(dp865
g340
g348
sg342
VF_Dirt
p866
sg344
F1
sg345
I00
sba(imapping
Tile
p867
(dp868
g340
g348
sg342
VF_Dirt
p869
sg344
F1
sg345
I00
sbaa(lp870
NaNaNaNaNaNaNa(imapping
Tile
p871
(dp872
g340
g382
sg342
VF_Shrooms2
p873
sg344
F1
sg345
I00
sba(imapping
Tile
p874
(dp875
g340
g348
sg342
VF_Grass_Alt_1
p876
sg344
F1
sg345
I00
sba(imapping
Tile
p877
(dp878
g340
g348
sg342
VF_Dirt
p879
sg344
F1
sg345
I00
sba(imapping
Tile
p880
(dp881
g340
g348
sg342
VF_Dirt
p882
sg344
F1
sg345
I00
sba(imapping
Tile
p883
(dp884
g340
g348
sg342
VF_Dirt_Alt_1
p885
sg344
F1
sg345
I00
sbaa(lp886
NaNaNaNaNaNaNa(imapping
Tile
p887
(dp888
g340
g729
sg342
VF_Right_Ramp
p889
sg344
F1
sg345
I00
sba(imapping
Tile
p890
(dp891
g340
g348
sg342
VF_RampJoinR
p892
sg344
F1
sg345
I00
sba(imapping
Tile
p893
(dp894
g340
g348
sg342
VF_Dirt
p895
sg344
F1
sg345
I00
sba(imapping
Tile
p896
(dp897
g340
g348
sg342
VF_Dirt
p898
sg344
F1
sg345
I00
sba(imapping
Tile
p899
(dp900
g340
g348
sg342
VF_Dirt_Alt_4
p901
sg344
F1
sg345
I00
sbaa(lp902
NaNaNaNaNaNaNa(imapping
Tile
p903
(dp904
g340
g348
sg342
VF_Grass_Alt_3
p905
sg344
F1
sg345
I00
sba(imapping
Tile
p906
(dp907
g340
g348
sg342
VF_Dirt
p908
sg344
F1
sg345
I00
sba(imapping
Tile
p909
(dp910
g340
g348
sg342
VF_Dirt
p911
sg344
F1
sg345
I00
sba(imapping
Tile
p912
(dp913
g340
g348
sg342
VF_Dirt
p914
sg344
F1
sg345
I00
sba(imapping
Tile
p915
(dp916
g340
g348
sg342
VF_Dirt_Alt_4
p917
sg344
F1
sg345
I00
sbaa(lp918
NaNaNaNaNaNaNa(imapping
Tile
p919
(dp920
g340
g792
sg342
VF_Left_Ramp
p921
sg344
F1
sg345
I00
sba(imapping
Tile
p922
(dp923
g340
g348
sg342
VF_RampJoinL
p924
sg344
F1
sg345
I00
sba(imapping
Tile
p925
(dp926
g340
g348
sg342
VF_Dirt
p927
sg344
F1
sg345
I00
sba(imapping
Tile
p928
(dp929
g340
g348
sg342
VF_Dirt
p930
sg344
F1
sg345
I00
sba(imapping
Tile
p931
(dp932
g340
g348
sg342
VF_Dirt
p933
sg344
F1
sg345
I00
sbaa(lp934
NaNaNaNaNaNaNaNa(imapping
Tile
p935
(dp936
g340
g792
sg342
VF_Left_Ramp
p937
sg344
F1
sg345
I00
sba(imapping
Tile
p938
(dp939
g340
g348
sg342
VF_HalframpJoinL
p940
sg344
F1
sg345
I00
sba(imapping
Tile
p941
(dp942
g340
g348
sg342
VF_Dirt
p943
sg344
F1
sg345
I00
sba(imapping
Tile
p944
(dp945
g340
g348
sg342
VF_Dirt
p946
sg344
F1
sg345
I00
sbaa(lp947
NaNaNaNaNaNaNaNaNa(imapping
Tile
p948
(dp949
g340
g348
sg342
VF_Grass_Alt_4
p950
sg344
F1
sg345
I00
sba(imapping
Tile
p951
(dp952
g340
g348
sg342
VF_Dirt
p953
sg344
F1
sg345
I00
sba(imapping
Tile
p954
(dp955
g340
g348
sg342
VF_Dirt
p956
sg344
F1
sg345
I00
sbaa(lp957
NaNaNaNaNaNaNaNa(imapping
Tile
p958
(dp959
g340
g729
sg342
VF_Right_Ramp
p960
sg344
F1
sg345
I00
sba(imapping
Tile
p961
(dp962
g340
g348
sg342
VF_RampJoinR
p963
sg344
F1
sg345
I00
sba(imapping
Tile
p964
(dp965
g340
g348
sg342
VF_Dirt_Alt_4
p966
sg344
F1
sg345
I00
sba(imapping
Tile
p967
(dp968
g340
g348
sg342
VF_Dirt
p969
sg344
F1
sg345
I00
sbaa(lp970
NaNaNaNaNaNaNa(imapping
Tile
p971
(dp972
g340
g729
sg342
VF_Right_Ramp
p973
sg344
F1
sg345
I00
sba(imapping
Tile
p974
(dp975
g340
g348
sg342
VF_RampJoinR
p976
sg344
F1
sg345
I00
sba(imapping
Tile
p977
(dp978
g340
g348
sg342
VF_Dirt
p979
sg344
F1
sg345
I00
sba(imapping
Tile
p980
(dp981
g340
g348
sg342
VF_Dirt
p982
sg344
F1
sg345
I00
sba(imapping
Tile
p983
(dp984
g340
g348
sg342
VF_Dirt
p985
sg344
F1
sg345
I00
sbaa(lp986
NaNaNaNaNaNaNa(imapping
Tile
p987
(dp988
g340
g348
sg342
VF_Grass
p989
sg344
F1
sg345
I00
sba(imapping
Tile
p990
(dp991
g340
g348
sg342
VF_Dirt
p992
sg344
F1
sg345
I00
sba(imapping
Tile
p993
(dp994
g340
g348
sg342
VF_Dirt
p995
sg344
F1
sg345
I00
sba(imapping
Tile
p996
(dp997
g340
g348
sg342
VF_Dirt_Alt_1
p998
sg344
F1
sg345
I00
sba(imapping
Tile
p999
(dp1000
g340
g348
sg342
VF_Dirt
p1001
sg344
F1
sg345
I00
sbaa(lp1002
NaNaNaNaNaNaNa(imapping
Tile
p1003
(dp1004
g340
g348
sg342
VF_Grass_Alt_4
p1005
sg344
F1
sg345
I00
sba(imapping
Tile
p1006
(dp1007
g340
g348
sg342
VF_Dirt
p1008
sg344
F1
sg345
I00
sba(imapping
Tile
p1009
(dp1010
g340
g348
sg342
VF_Dirt
p1011
sg344
F1
sg345
I00
sba(imapping
Tile
p1012
(dp1013
g340
g348
sg342
VF_Dirt
p1014
sg344
F1
sg345
I00
sba(imapping
Tile
p1015
(dp1016
g340
g348
sg342
VF_Dirt
p1017
sg344
F1
sg345
I00
sbaa(lp1018
NaNaNaNaNaNaNa(imapping
Tile
p1019
(dp1020
g340
g348
sg342
VF_Grass
p1021
sg344
F1
sg345
I00
sba(imapping
Tile
p1022
(dp1023
g340
g348
sg342
VF_Dirt
p1024
sg344
F1
sg345
I00
sba(imapping
Tile
p1025
(dp1026
g340
g348
sg342
VF_Dirt_Alt_2
p1027
sg344
F1
sg345
I00
sba(imapping
Tile
p1028
(dp1029
g340
g348
sg342
VF_Dirt
p1030
sg344
F1
sg345
I00
sba(imapping
Tile
p1031
(dp1032
g340
g348
sg342
VF_Dirt
p1033
sg344
F1
sg345
I00
sbaa(lp1034
NaNaNaNaNaNaNa(imapping
Tile
p1035
(dp1036
g340
g348
sg342
VF_Grass_Alt_3
p1037
sg344
F1
sg345
I00
sba(imapping
Tile
p1038
(dp1039
g340
g348
sg342
VF_Dirt
p1040
sg344
F1
sg345
I00
sba(imapping
Tile
p1041
(dp1042
g340
g348
sg342
VF_Dirt
p1043
sg344
F1
sg345
I00
sba(imapping
Tile
p1044
(dp1045
g340
g348
sg342
VF_Dirt_Alt_4
p1046
sg344
F1
sg345
I00
sba(imapping
Tile
p1047
(dp1048
g340
g348
sg342
VF_Dirt
p1049
sg344
F1
sg345
I00
sbaa(lp1050
NaNaNaNaNaNa(imapping
Tile
p1051
(dp1052
g340
g341
sg342
VF_Shrooms1
p1053
sg344
F1
sg345
I00
sba(imapping
Tile
p1054
(dp1055
g340
g348
sg342
VF_Grass
p1056
sg344
F1
sg345
I00
sba(imapping
Tile
p1057
(dp1058
g340
g348
sg342
VF_Dirt_Alt_1
p1059
sg344
F1
sg345
I00
sba(imapping
Tile
p1060
(dp1061
g340
g348
sg342
VF_Dirt
p1062
sg344
F1
sg345
I00
sba(imapping
Tile
p1063
(dp1064
g340
g348
sg342
VF_Dirt
p1065
sg344
F1
sg345
I00
sba(imapping
Tile
p1066
(dp1067
g340
g348
sg342
VF_Dirt
p1068
sg344
F1
sg345
I00
sbaa(lp1069
NaNaNaNaNaNa(imapping
Tile
p1070
(dp1071
g340
S'RIGHT_HINCLINATION1'
p1072
sg342
VF_Right_Halframp1
p1073
sg344
F1
sg345
I00
sba(imapping
Tile
p1074
(dp1075
g340
g348
sg342
VF_HalframpJoinR
p1076
sg344
F1
sg345
I00
sba(imapping
Tile
p1077
(dp1078
g340
g348
sg342
VF_Dirt_Alt_1
p1079
sg344
F1
sg345
I00
sba(imapping
Tile
p1080
(dp1081
g340
g348
sg342
VF_Dirt
p1082
sg344
F1
sg345
I00
sba(imapping
Tile
p1083
(dp1084
g340
g348
sg342
VF_Dirt
p1085
sg344
F1
sg345
I00
sba(imapping
Tile
p1086
(dp1087
g340
g348
sg342
VF_Dirt
p1088
sg344
F1
sg345
I00
sbaa(lp1089
NaNaNaNaNaNa(imapping
Tile
p1090
(dp1091
g340
S'RIGHT_HINCLINATION2'
p1092
sg342
VF_Right_Halframp2
p1093
sg344
F1
sg345
I00
sba(imapping
Tile
p1094
(dp1095
g340
g348
sg342
VF_Dirt
p1096
sg344
F1
sg345
I00
sba(imapping
Tile
p1097
(dp1098
g340
g348
sg342
VF_Dirt_Alt_2
p1099
sg344
F1
sg345
I00
sba(imapping
Tile
p1100
(dp1101
g340
g348
sg342
VF_Dirt_Alt_4
p1102
sg344
F1
sg345
I00
sba(imapping
Tile
p1103
(dp1104
g340
g348
sg342
VF_Dirt_Alt_1
p1105
sg344
F1
sg345
I00
sba(imapping
Tile
p1106
(dp1107
g340
g348
sg342
VF_Dirt
p1108
sg344
F1
sg345
I00
sbaa(lp1109
NaNaNaNaNa(imapping
Tile
p1110
(dp1111
g340
g1072
sg342
VF_Right_Halframp1
p1112
sg344
F1
sg345
I00
sba(imapping
Tile
p1113
(dp1114
g340
g348
sg342
VF_HalframpJoinR
p1115
sg344
F1
sg345
I00
sba(imapping
Tile
p1116
(dp1117
g340
g348
sg342
VF_Dirt
p1118
sg344
F1
sg345
I00
sba(imapping
Tile
p1119
(dp1120
g340
g348
sg342
VF_Dirt
p1121
sg344
F1
sg345
I00
sba(imapping
Tile
p1122
(dp1123
g340
g348
sg342
VF_Dirt_Alt_4
p1124
sg344
F1
sg345
I00
sba(imapping
Tile
p1125
(dp1126
g340
g348
sg342
VF_Dirt_Alt_1
p1127
sg344
F1
sg345
I00
sba(imapping
Tile
p1128
(dp1129
g340
g348
sg342
VF_Dirt
p1130
sg344
F1
sg345
I00
sbaa(lp1131
NaNaNaNaNa(imapping
Tile
p1132
(dp1133
g340
S'LEFT_HINCLINATION1'
p1134
sg342
VF_Left_Halframp1
p1135
sg344
F1
sg345
I00
sba(imapping
Tile
p1136
(dp1137
g340
g348
sg342
VF_HalframpJoinL
p1138
sg344
F1
sg345
I00
sba(imapping
Tile
p1139
(dp1140
g340
g348
sg342
VF_Dirt
p1141
sg344
F1
sg345
I00
sba(imapping
Tile
p1142
(dp1143
g340
g348
sg342
VF_Dirt
p1144
sg344
F1
sg345
I00
sba(imapping
Tile
p1145
(dp1146
g340
g348
sg342
VF_Dirt
p1147
sg344
F1
sg345
I00
sba(imapping
Tile
p1148
(dp1149
g340
g348
sg342
VF_Dirt_Alt_4
p1150
sg344
F1
sg345
I00
sba(imapping
Tile
p1151
(dp1152
g340
g348
sg342
VF_Dirt
p1153
sg344
F1
sg345
I00
sbaa(lp1154
NaNaNaNaNaNa(imapping
Tile
p1155
(dp1156
g340
S'LEFT_HINCLINATION2'
p1157
sg342
VF_Left_Halframp2
p1158
sg344
F1
sg345
I00
sba(imapping
Tile
p1159
(dp1160
g340
g348
sg342
VF_Dirt
p1161
sg344
F1
sg345
I00
sba(imapping
Tile
p1162
(dp1163
g340
g348
sg342
VF_Dirt
p1164
sg344
F1
sg345
I00
sba(imapping
Tile
p1165
(dp1166
g340
g348
sg342
VF_Dirt
p1167
sg344
F1
sg345
I00
sba(imapping
Tile
p1168
(dp1169
g340
g348
sg342
VF_Dirt_Alt_1
p1170
sg344
F1
sg345
I00
sba(imapping
Tile
p1171
(dp1172
g340
g348
sg342
VF_Dirt_Alt_4
p1173
sg344
F1
sg345
I00
sbaa(lp1174
NaNaNaNaNaNa(imapping
Tile
p1175
(dp1176
g340
g1134
sg342
VF_Left_Halframp1
p1177
sg344
F1
sg345
I00
sba(imapping
Tile
p1178
(dp1179
g340
g348
sg342
VF_HalframpJoinL
p1180
sg344
F1
sg345
I00
sba(imapping
Tile
p1181
(dp1182
g340
g348
sg342
VF_Dirt
p1183
sg344
F1
sg345
I00
sba(imapping
Tile
p1184
(dp1185
g340
g348
sg342
VF_Dirt
p1186
sg344
F1
sg345
I00
sba(imapping
Tile
p1187
(dp1188
g340
g348
sg342
VF_Dirt_Alt_1
p1189
sg344
F1
sg345
I00
sba(imapping
Tile
p1190
(dp1191
g340
g348
sg342
VF_Dirt
p1192
sg344
F1
sg345
I00
sbaa(lp1193
NaNaNaNaNaNaNa(imapping
Tile
p1194
(dp1195
g340
g348
sg342
VF_Grass_Alt_1
p1196
sg344
F1
sg345
I00
sba(imapping
Tile
p1197
(dp1198
g340
g348
sg342
VF_Dirt
p1199
sg344
F1
sg345
I00
sba(imapping
Tile
p1200
(dp1201
g340
g348
sg342
VF_Dirt
p1202
sg344
F1
sg345
I00
sba(imapping
Tile
p1203
(dp1204
g340
g348
sg342
VF_Dirt
p1205
sg344
F1
sg345
I00
sba(imapping
Tile
p1206
(dp1207
g340
g348
sg342
VF_Dirt
p1208
sg344
F1
sg345
I00
sbaa(lp1209
NaNaNaNaNaNaNa(imapping
Tile
p1210
(dp1211
g340
g348
sg342
VF_Grass_Alt_4
p1212
sg344
F1
sg345
I00
sba(imapping
Tile
p1213
(dp1214
g340
g348
sg342
VF_Dirt
p1215
sg344
F1
sg345
I00
sba(imapping
Tile
p1216
(dp1217
g340
g348
sg342
VF_Dirt_Alt_2
p1218
sg344
F1
sg345
I00
sba(imapping
Tile
p1219
(dp1220
g340
g348
sg342
VF_Dirt
p1221
sg344
F1
sg345
I00
sba(imapping
Tile
p1222
(dp1223
g340
g348
sg342
VF_Dirt
p1224
sg344
F1
sg345
I00
sbaa(lp1225
NaNaNaNaNaNaNa(imapping
Tile
p1226
(dp1227
g340
g348
sg342
VF_Grass
p1228
sg344
F1
sg345
I00
sba(imapping
Tile
p1229
(dp1230
g340
g348
sg342
VF_Dirt
p1231
sg344
F1
sg345
I00
sba(imapping
Tile
p1232
(dp1233
g340
g348
sg342
VF_Dirt_Alt_4
p1234
sg344
F1
sg345
I00
sba(imapping
Tile
p1235
(dp1236
g340
g348
sg342
VF_Dirt_Alt_2
p1237
sg344
F1
sg345
I00
sba(imapping
Tile
p1238
(dp1239
g340
g348
sg342
VF_Dirt
p1240
sg344
F1
sg345
I00
sbaa(lp1241
NaNaNaNaNaNa(imapping
Tile
p1242
(dp1243
g340
g382
sg342
VF_Shrooms2
p1244
sg344
F1
sg345
I00
sba(imapping
Tile
p1245
(dp1246
g340
g348
sg342
VF_Grass_Alt_3
p1247
sg344
F1
sg345
I00
sba(imapping
Tile
p1248
(dp1249
g340
g348
sg342
VF_Dirt
p1250
sg344
F1
sg345
I00
sba(imapping
Tile
p1251
(dp1252
g340
g348
sg342
VF_Dirt
p1253
sg344
F1
sg345
I00
sba(imapping
Tile
p1254
(dp1255
g340
g348
sg342
VF_Dirt
p1256
sg344
F1
sg345
I00
sba(imapping
Tile
p1257
(dp1258
g340
g348
sg342
VF_Dirt
p1259
sg344
F1
sg345
I00
sbaa(lp1260
NaNaNaNaNaNaNa(imapping
Tile
p1261
(dp1262
g340
g348
sg342
VF_GrassRedge
p1263
sg344
F1
sg345
I00
sba(imapping
Tile
p1264
(dp1265
g340
g348
sg342
VF_Dirt_R2
p1266
sg344
F1
sg345
I00
sba(imapping
Tile
p1267
(dp1268
g340
g348
sg342
VF_Dirt_R1
p1269
sg344
F1
sg345
I00
sba(imapping
Tile
p1270
(dp1271
g340
g348
sg342
VF_Dirt_R2
p1272
sg344
F1
sg345
I00
sba(imapping
Tile
p1273
(dp1274
g340
g348
sg342
VF_Dirt_R2
p1275
sg344
F1
sg345
I00
sbaa(lp1276
NaNaNaNaNaNaNaNaNaNaNaNaa(lp1277
NaNaNaNaNaNaNaNaNaNaNaNaa(lp1278
NaNaNaNaNaNaNaNaNa(imapping
Tile
p1279
(dp1280
g340
g348
sg342
VF_GrassLedge
p1281
sg344
F1
sg345
I00
sba(imapping
Tile
p1282
(dp1283
g340
g348
sg342
VF_Dirt_L2
p1284
sg344
F1
sg345
I00
sba(imapping
Tile
p1285
(dp1286
g340
g348
sg342
VF_Dirt_L2
p1287
sg344
F1
sg345
I00
sbaa(lp1288
NaNaNaNaNaNaNaNaNa(imapping
Tile
p1289
(dp1290
g340
g348
sg342
VF_GrassRedge
p1291
sg344
F1
sg345
I00
sba(imapping
Tile
p1292
(dp1293
g340
g348
sg342
VF_Dirt_R1
p1294
sg344
F1
sg345
I00
sba(imapping
Tile
p1295
(dp1296
g340
g348
sg342
VF_Grass->DirtR
p1297
sg344
F1
sg345
I00
sbaa(lp1298
NaNaNaNaNaNaNaNaNaNaNa(imapping
Tile
p1299
(dp1300
g340
g348
sg342
VF_Grass
p1301
sg344
F1
sg345
I00
sbaa(lp1302
NaNaNaNaNaNaNaNaNaNaNa(imapping
Tile
p1303
(dp1304
g340
g348
sg342
VF_Grass_Alt_5
p1305
sg344
F1
sg345
I00
sbaa(lp1306
NaNaNaNaNaNaNaNaNaNaNa(imapping
Tile
p1307
(dp1308
g340
g348
sg342
VF_Grass_Alt_4
p1309
sg344
F1
sg345
I00
sbaa(lp1310
NaNaNaNaNaNaNaNaNaNaNa(imapping
Tile
p1311
(dp1312
g340
g348
sg342
VF_Grass_Alt_2
p1313
sg344
F1
sg345
I00
sbaa(lp1314
NaNaNaNaNaNaNaNaNaNaNa(imapping
Tile
p1315
(dp1316
g340
g348
sg342
VF_Grass_Alt_3
p1317
sg344
F1
sg345
I00
sbaa(lp1318
NaNaNaNaNaNaNaNaNaNa(imapping
Tile
p1319
(dp1320
g340
g341
sg342
VF_Stump
p1321
sg344
F1
sg345
I00
sba(imapping
Tile
p1322
(dp1323
g340
g348
sg342
VF_Grass_Alt_1
p1324
sg344
F1
sg345
I00
sbaa(lp1325
NaNaNaNaNaNaNaNaNaNaNa(imapping
Tile
p1326
(dp1327
g340
g348
sg342
VF_Grass
p1328
sg344
F1
sg345
I00
sbaa(lp1329
NaNaNaNaNaNaNaNaNaNa(imapping
Tile
p1330
(dp1331
g340
g382
sg342
VF_Shrooms2
p1332
sg344
F1
sg345
I00
sba(imapping
Tile
p1333
(dp1334
g340
g348
sg342
VF_Grass
p1335
sg344
F1
sg345
I00
sbaa(lp1336
NaNaNaNaNaNaNaNaNaNaNa(imapping
Tile
p1337
(dp1338
g340
g348
sg342
VF_Grass->Dirttop
p1339
sg344
F1
sg345
I00
sbaa(lp1340
NaNaNaNaNaNaNaNaNaNaNa(imapping
Tile
p1341
(dp1342
g340
g348
sg342
VF_Dirttop
p1343
sg344
F1
sg345
I00
sbaa(lp1344
NaNaNaNaNaNaNaNaNaNaNa(imapping
Tile
p1345
(dp1346
g340
g348
sg342
VF_Dirttop
p1347
sg344
F1
sg345
I00
sbaa(lp1348
NaNaNaNaNaNaNaNaNaNaNa(imapping
Tile
p1349
(dp1350
g340
g348
sg342
VF_Dirttop
p1351
sg344
F1
sg345
I00
sbaa(lp1352
NaNaNaNaNaNaNaNaNaNaNa(imapping
Tile
p1353
(dp1354
g340
g348
sg342
VF_Dirttop
p1355
sg344
F1
sg345
I00
sbaa(lp1356
NaNaNaNaNaNaNaNaNaNa(imapping
Tile
p1357
(dp1358
g340
g341
sg342
VF_Shrooms3
p1359
sg344
F1
sg345
I00
sba(imapping
Tile
p1360
(dp1361
g340
g348
sg342
VF_Dirttop
p1362
sg344
F1
sg345
I00
sbaa(lp1363
NaNaNaNaNaNaNaNaNaNaNa(imapping
Tile
p1364
(dp1365
g340
g348
sg342
VF_Dirttop->Grass
p1366
sg344
F1
sg345
I00
sbaa(lp1367
NaNaNaNaNaNaNaNaNaNa(imapping
Tile
p1368
(dp1369
g340
g382
sg342
VF_ExitSign
p1370
sg344
F1
sg345
I00
sba(imapping
Tile
p1371
(dp1372
g340
g348
sg342
VF_GrassRedge
p1373
sg344
F1
sg345
I00
sbaa(lp1374
NaNaNaNaNaNaNaNaNaNaNaNaa(lp1375
NaNaNaNaNaNaNaNaNaNaNaNaa(lp1376
NaNaNaNaNaNaNaNaNaNa(imapping
Tile
p1377
(dp1378
g340
g348
sg342
VF_GrassLedge
p1379
sg344
F1
sg345
I00
sba(imapping
Tile
p1380
(dp1381
g340
g348
sg342
VF_Dirt_L1
p1382
sg344
F1
sg345
I00
sbaa(lp1383
NaNaNaNaNaNaNaNaNaNa(imapping
Tile
p1384
(dp1385
g340
g348
sg342
VF_Grass
p1386
sg344
F1
sg345
I00
sba(imapping
Tile
p1387
(dp1388
g340
g348
sg342
VF_Dirt
p1389
sg344
F1
sg345
I00
sbaa(lp1390
NaNaNaNaNaNaNaNaNaNa(imapping
Tile
p1391
(dp1392
g340
g348
sg342
VF_Grass_Alt_3
p1393
sg344
F1
sg345
I00
sba(imapping
Tile
p1394
(dp1395
g340
g348
sg342
VF_Dirt
p1396
sg344
F1
sg345
I00
sbaa(lp1397
NaNaNaNaNaNaNaNaNaNa(imapping
Tile
p1398
(dp1399
g340
g348
sg342
VF_Grass
p1400
sg344
F1
sg345
I00
sba(imapping
Tile
p1401
(dp1402
g340
g348
sg342
VF_Dirt
p1403
sg344
F1
sg345
I00
sbaa(lp1404
NaNaNaNaNaNaNaNaNaNa(imapping
Tile
p1405
(dp1406
g340
g348
sg342
VF_Grass_Alt_1
p1407
sg344
F1
sg345
I00
sba(imapping
Tile
p1408
(dp1409
g340
g348
sg342
VF_Dirt_Alt_2
p1410
sg344
F1
sg345
I00
sbaa(lp1411
NaNaNaNaNaNaNaNaNaNa(imapping
Tile
p1412
(dp1413
g340
g348
sg342
VF_Grass_Alt_5
p1414
sg344
F1
sg345
I00
sba(imapping
Tile
p1415
(dp1416
g340
g348
sg342
VF_Dirt_Alt_1
p1417
sg344
F1
sg345
I00
sbaa(lp1418
NaNaNaNaNaNaNaNaNaNa(imapping
Tile
p1419
(dp1420
g340
g348
sg342
VF_Grass_Alt_4
p1421
sg344
F1
sg345
I00
sba(imapping
Tile
p1422
(dp1423
g340
g348
sg342
VF_Dirt_Alt_1
p1424
sg344
F1
sg345
I00
sbaa(lp1425
NaNaNaNaNaNaNaNaNaNa(imapping
Tile
p1426
(dp1427
g340
g348
sg342
VF_Grass
p1428
sg344
F1
sg345
I00
sba(imapping
Tile
p1429
(dp1430
g340
g348
sg342
VF_Dirt_Alt_1
p1431
sg344
F1
sg345
I00
sbaa(lp1432
NaNaNaNaNaNaNaNaNa(imapping
Tile
p1433
(dp1434
g340
g341
sg342
VF_Shrooms3
p1435
sg344
F1
sg345
I00
sba(imapping
Tile
p1436
(dp1437
g340
g348
sg342
VF_Grass
p1438
sg344
F1
sg345
I00
sba(imapping
Tile
p1439
(dp1440
g340
g348
sg342
VF_Dirt
p1441
sg344
F1
sg345
I00
sbaa(lp1442
NaNaNaNaNaNaNaNaNaNa(imapping
Tile
p1443
(dp1444
g340
g348
sg342
VF_Grass_Alt_4
p1445
sg344
F1
sg345
I00
sba(imapping
Tile
p1446
(dp1447
g340
g348
sg342
VF_Dirt_Alt_2
p1448
sg344
F1
sg345
I00
sbaa(lp1449
NaNaNaNaNaNaNaNaNa(imapping
Tile
p1450
(dp1451
g340
g341
sg342
VF_Stump
p1452
sg344
F1
sg345
I00
sba(imapping
Tile
p1453
(dp1454
g340
g348
sg342
VF_Grass
p1455
sg344
F1
sg345
I00
sba(imapping
Tile
p1456
(dp1457
g340
g348
sg342
VF_Dirt
p1458
sg344
F1
sg345
I00
sbaa(lp1459
NaNaNaNaNaNaNaNaNaNa(imapping
Tile
p1460
(dp1461
g340
g348
sg342
VF_Grass
p1462
sg344
F1
sg345
I00
sba(imapping
Tile
p1463
(dp1464
g340
g348
sg342
VF_Dirt
p1465
sg344
F1
sg345
I00
sbaa(lp1466
NaNaNaNaNaNaNaNaNaNa(imapping
Tile
p1467
(dp1468
g340
g348
sg342
VF_Grass
p1469
sg344
F1
sg345
I00
sba(imapping
Tile
p1470
(dp1471
g340
g348
sg342
VF_Dirt
p1472
sg344
F1
sg345
I00
sbaa(lp1473
NaNaNaNaNaNaNaNaNaNa(imapping
Tile
p1474
(dp1475
g340
g348
sg342
VF_Grass
p1476
sg344
F1
sg345
I00
sba(imapping
Tile
p1477
(dp1478
g340
g348
sg342
VF_Dirt
p1479
sg344
F1
sg345
I00
sbaa(lp1480
NaNaNaNaNaNaNaNaNaNa(imapping
Tile
p1481
(dp1482
g340
g348
sg342
VF_Grass_Alt_1
p1483
sg344
F1
sg345
I00
sba(imapping
Tile
p1484
(dp1485
g340
g348
sg342
VF_Dirt
p1486
sg344
F1
sg345
I00
sbaa(lp1487
NaNaNaNaNaNaNaNaNaNa(imapping
Tile
p1488
(dp1489
g340
g348
sg342
VF_Grass_Alt_5
p1490
sg344
F1
sg345
I00
sba(imapping
Tile
p1491
(dp1492
g340
g348
sg342
VF_Dirt_Alt_2
p1493
sg344
F1
sg345
I00
sbaa(lp1494
NaNaNaNaNaNaNaNaNaNa(imapping
Tile
p1495
(dp1496
g340
g348
sg342
VF_Grass_Alt_2
p1497
sg344
F1
sg345
I00
sba(imapping
Tile
p1498
(dp1499
g340
g348
sg342
VF_Dirt_Alt_1
p1500
sg344
F1
sg345
I00
sbaa(lp1501
NaNaNaNaNaNaNaNaNaNa(imapping
Tile
p1502
(dp1503
g340
g348
sg342
VF_Grass
p1504
sg344
F1
sg345
I00
sba(imapping
Tile
p1505
(dp1506
g340
g348
sg342
VF_Dirt
p1507
sg344
F1
sg345
I00
sbaa(lp1508
NaNaNaNaNaNaNaNaNaNa(imapping
Tile
p1509
(dp1510
g340
g348
sg342
VF_Grass
p1511
sg344
F1
sg345
I00
sba(imapping
Tile
p1512
(dp1513
g340
g348
sg342
VF_Dirt
p1514
sg344
F1
sg345
I00
sbaa(lp1515
NaNaNaNaNaNaNaNaNaNa(imapping
Tile
p1516
(dp1517
g340
g348
sg342
VF_Grass
p1518
sg344
F1
sg345
I00
sba(imapping
Tile
p1519
(dp1520
g340
g348
sg342
VF_Dirt_Alt_2
p1521
sg344
F1
sg345
I00
sbaa(lp1522
NaNaNaNaNaNaNaNaNaNa(imapping
Tile
p1523
(dp1524
g340
g348
sg342
VF_Grass_Alt_5
p1525
sg344
F1
sg345
I00
sba(imapping
Tile
p1526
(dp1527
g340
g348
sg342
VF_Dirt
p1528
sg344
F1
sg345
I00
sbaa(lp1529
NaNaNaNaNaNaNaNaNaNa(imapping
Tile
p1530
(dp1531
g340
g348
sg342
VF_Grass
p1532
sg344
F1
sg345
I00
sba(imapping
Tile
p1533
(dp1534
g340
g348
sg342
VF_Dirt_Alt_1
p1535
sg344
F1
sg345
I00
sbaa(lp1536
NaNaNaNaNaNaNaNaNaNa(imapping
Tile
p1537
(dp1538
g340
g348
sg342
VF_Grass
p1539
sg344
F1
sg345
I00
sba(imapping
Tile
p1540
(dp1541
g340
g348
sg342
VF_Dirt
p1542
sg344
F1
sg345
I00
sbaasS'bgmusic'
p1543
VSempridge.ogg
p1544
sS'theme'
p1545
VForest
p1546
sS'endef'
p1547
(dp1548
VCSpider
p1549
Vcspider
p1550
sVSnowOgre
p1551
Vsnowogre
p1552
sVWasp
p1553
Vwasp
p1554
sVSpider
p1555
Vspider
p1556
sVWorm
p1557
Vworm
p1558
sVGiantJelly
p1559
Vgiantjelly
p1560
sVPod
p1561
Vpod
p1562
sVGiantWorm
p1563
Vgiantworm
p1564
ssS'tiledef'
p1565
(dp1566
VS_bLRamp
p1567
Vsnow_blramp.png
p1568
sVF_Dirt_R2
p1569
Vdirtr_edge2.png
p1570
sVF_Dirt_R1
p1571
Vdirtr_edge1.png
p1572
sVS_Railing_1
p1573
Vsnow_railing1.png
p1574
sVS_Railing_2
p1575
Vsnow_railing2.png
p1576
sVC_Suit of Armour
p1577
Vsuit_armour.png
p1578
sVS_UCleft
p1579
Vsnow_undercorner_left.png
p1580
sVF_Right_Halframp1
p1581
VR_HR1.png
p1582
sVF_Right_Halframp2
p1583
VR_HR2.png
p1584
sVF_GrassRedge
p1585
Vgrassr_edge.png
p1586
sVS_ECleft
p1587
Vsnow_edgecorner_left.png
p1588
sVF_Tuft1
p1589
Vtuft1.png
p1590
sVF_Tuft2
p1591
Vtuft2.png
p1592
sVS_Tree
p1593
Vsnow_tree.png
p1594
sVF_Grass
p1595
Vgrass.png
p1596
sVC_Castle Wall->Floor R
p1597
Vcstl_wfright.png
p1598
sVS_Railing_L
p1599
Vsnow_railing_left.png
p1600
sVC_Castle HRR
p1601
Vcstl_hr_r.png
p1602
sVS_RRamp
p1603
Vsnow_rramp.png
p1604
sVC_Castle HRL
p1605
Vcstl_hr_l.png
p1606
sVS_Pillar
p1607
Vsnow_pillar.png
p1608
sVS_Railing_R
p1609
Vsnow_railing_right.png
p1610
sVS_Ground1
p1611
Vsnow_ground1.png
p1612
sVF_Stump
p1613
Vtreestump.png
p1614
sVC_Castle Ground 2
p1615
Vcstl_ground2.png
p1616
sVC_Castle Ground 3
p1617
Vcstl_ground3.png
p1618
sVC_Castle Ground 1
p1619
Vcstl_ground1.png
p1620
sVS_Snow2
p1621
Vsnow_snow2.png
p1622
sVF_Grass_Alt_5
p1623
Vgrassc5.png
p1624
sVS_bRRamp
p1625
Vsnow_brramp.png
p1626
sVC_Castle Floor 2
p1627
Vcstl_floor2.png
p1628
sVS_Snow
p1629
Vsnow_snow.png
p1630
sVF_Grass_Alt_2
p1631
Vgrassc2.png
p1632
sVF_ExitSign
p1633
Vexitsign.png
p1634
sVF_Grass->Dirttop
p1635
Vgrassmdirt.png
p1636
sVS_UCright
p1637
Vsnow_undercorner_right.png
p1638
sVS_Pillartop
p1639
Vsnow_pillartop.png
p1640
sVF_Dirttop->Grass
p1641
Vdirtmgrass.png
p1642
sVS_ECright
p1643
Vsnow_edgecorner_right.png
p1644
sVC_Castle HRmL
p1645
Vcstl_hr_m_l.png
p1646
sVC_Castle Wall L
p1647
Vcstl_wleft.png
p1648
sVC_Castle Wall R
p1649
Vcstl_wright.png
p1650
sVC_Castle HRmR
p1651
Vcstl_hr_m_r.png
p1652
sVF_Ice
p1653
Vtile5.png
p1654
sVC_Castle Floor 4
p1655
Vcstl_floor4.png
p1656
sVF_Grass_Alt_4
p1657
Vgrassc4.png
p1658
sVF_Grass_Alt_1
p1659
Vgrassc1.png
p1660
sVC_Castle Floor 1
p1661
Vcstl_floor1.png
p1662
sVF_Grass_Alt_3
p1663
Vgrassc3.png
p1664
sVC_Castle Floor 3
p1665
Vcstl_floor3.png
p1666
sVS_edgewleft1
p1667
Vsnow_edgewall_left1.png
p1668
sVS_edgewleft2
p1669
Vsnow_edgewall_left2.png
p1670
sVS_UCJright
p1671
Vsnow_undercorner_join_right.png
p1672
sVS_LRamp
p1673
Vsnow_lramp.png
p1674
sVC_Castle Floor Edge R
p1675
Vcstl_floor_edge_right.png
p1676
sVF_Dirt_L1
p1677
Vdirtl_edge1.png
p1678
sVF_Dirt_L2
p1679
Vdirtl_edge2.png
p1680
sVC_Castle Floor Edge L
p1681
Vcstl_floor_edge_left.png
p1682
sVF_Left_Halframp2
p1683
VL_HR2.png
p1684
sVF_Left_Halframp1
p1685
VL_HR1.png
p1686
sVF_Shrooms2
p1687
Vshrooms2.png
p1688
sVF_Shrooms3
p1689
Vshrooms3.png
p1690
sVF_Shrooms1
p1691
Vshrooms1.png
p1692
sVF_RampJoinL
p1693
Vramp_mid_dirt_l.png
p1694
sVS_Tree2
p1695
Vsnow_tree2.png
p1696
sVF_RampJoinR
p1697
Vramp_mid_dirt_r.png
p1698
sVF_GrassLedge
p1699
Vgrassl_edge.png
p1700
sVS_Stones
p1701
Vsnow_stones.png
p1702
sVS_edgeright
p1703
Vsnow_edge_right.png
p1704
sVS_edgewright2
p1705
Vsnow_edgewall_right2.png
p1706
sVS_edgewright1
p1707
Vsnow_edgewall_right1.png
p1708
sVF_Dirtb
p1709
Vdirtb.png
p1710
sVF_Right_Ramp
p1711
VR_R.png
p1712
sVF_HalframpJoinL
p1713
Vhalframp_mid_dirt_l.png
p1714
sVF_Dirt_BL
p1715
Vdirtl_bedge.png
p1716
sVF_HalframpJoinR
p1717
Vhalframp_mid_dirt_r.png
p1718
sVF_Dirt_BR
p1719
Vdirtr_bedge.png
p1720
sVF_Dirtb2
p1721
Vdirtb2.png
p1722
sVF_Left_Ramp
p1723
VL_R.png
p1724
sVC_Castle Wall->Floor L
p1725
Vcstl_wfleft.png
p1726
sVF_Dirt
p1727
Vdirt.png
p1728
sVF_Grass->DirtL
p1729
Vgrass_dirt_l.png
p1730
sVS_edgeleft
p1731
Vsnow_edge_left.png
p1732
sVF_Dirttop
p1733
Vdirttop.png
p1734
sVF_Dirt_Alt_4
p1735
Vdirtc4.png
p1736
sVF_Dirt_Alt_3
p1737
Vdirtc3.png
p1738
sVF_Dirt_Alt_2
p1739
Vdirtc2.png
p1740
sVF_Dirt_Alt_1
p1741
Vdirtc1.png
p1742
sVF_Grass->DirtR
p1743
Vgrass_dirt_r.png
p1744
sVS_UCJleft
p1745
Vsnow_undercorner_join_left.png
p1746
ssb.