(imapping
Map
p1
(dp2
S'enemy'
p3
(lp4
(lp5
NaNaNaNaNaNaNaNaNaNaNaNaa(lp6
NaNaNaNaNaNaNaNaNaNaNaNaa(lp7
NaNaNaNaNaNaNaNaNaNaNaNaa(lp8
NaNaNaNaNaNaNaNaNaNaNaNaa(lp9
NaNaNaNaNaNaNaNaNaNaNaNaa(lp10
NaNaNaNaNaNaNaNaNaNaNaNaa(lp11
NaNaNaNaNaNaNaNaNaNaNaNaa(lp12
NaNaNaNaNaNaNaNaNaNaNaNaa(lp13
NaNaNaNaNaNaNaNaNaNaNaNaa(lp14
NaNaNaNaNaNaNaNaNaNaNaNaa(lp15
NaNaNaNaNaNaNaNaNaNaNaNaa(lp16
NaNaNaNaNaNaNaNaNaNaNaNaa(lp17
NaNaNaNaNaNaNaNaNaNaNaNaa(lp18
NaNaNaNaNaNaNaNaNaNaNaNaa(lp19
NaNaNaNaNaNaNaNaNaNaNaNaa(lp20
NaNaNaNaNaNaNaNaNaNaNaNaa(lp21
NaNaNaNaNaNaNaNaNaNaNaNaa(lp22
NaNaNaNaNaNaNaNaNaNaNaNaa(lp23
NaNaNaNaNaNaNaNaNaNaNaNaa(lp24
NaNaNaNaNaNaNaNaNaNaNaNaa(lp25
NaNaNaNaNaNaNaNaNaNaNaNaa(lp26
NaNaNaNaNaNaNaNaNaNaNaNaa(lp27
NaNaNaNaNaNaNaNaNaNaNaNaa(lp28
NaNaNaNaNaNaNaNaNaNaNaNaa(lp29
NaNaNaNaNaNaNaNaNaNaNaNaa(lp30
NaNaNaNaNaNaNaNaNaNaNaNaa(lp31
NaNaNaNaNaNaNaNaNaNaNaNaa(lp32
NaNaNaNaNaNaNaNaNaNaNaNaa(lp33
NaNaNaNaNaNaNaNaNaNaNaNaa(lp34
NaNaNaNaNaNaNaNaNaNaNaNaa(lp35
NaNaNaNaNaNaNaNaNaNaNaNaa(lp36
NaNaNaNaNaNaNaNaNaNaNaNaa(lp37
NaNaNaNaNaNaNaNaNaNaNaNaa(lp38
NaNaNaNaNaNaNaNaNaNaNaNaa(lp39
NaNaNaNaNaNaNaNaNaNaNaNaa(lp40
NaNaNaNaNaNaNaNaNaNaNaNaa(lp41
NaNaNaNaNaNaNaNaNaNaNaNaa(lp42
NaNaNaNaNaNaNaNaNaNaNaNaa(lp43
NaNaNaNaNaNaNaNaNaNaNaNaa(lp44
NaNaNaNaNaNaNaNaNaNaNaNaa(lp45
NaNaNaNaNaNaNaNaNaNaNaNaa(lp46
NaNaNaNaNaNaNaNaNaNaNaNaa(lp47
NaNaNaNaNaNaNaNaNaNaNaNaa(lp48
NaNaNaNaNaNaNaNaNaNaNaNaa(lp49
NaNaNaNaNaNaNaNaNaNaNaNaa(lp50
NaNaNaNaNaNaNaNaNaNaNaNaa(lp51
NaNaNaNaNaNaNaNaNaNaNaNaa(lp52
NaNaNaNaNaNaNaNaNaNaNaNaa(lp53
NaNaNaNaNaNaNaNaNaNaNaNaa(lp54
NaNaNaNaNaNaNaNaNaNaNaNaa(lp55
NaNaNaNaNaNaNaNaNaNaNaNaa(lp56
NaNaNaNaNaNaNaNaNaNaNaNaa(lp57
NaNaNaNaNaNaNaNaNaNaNaNaa(lp58
NaNaNaNaNaNaNaNaNaNaNaNaa(lp59
NaNaNaNaNaNaNaNaNaNaNaNaa(lp60
NaNaNaNaNaNaNaNaNaNaNaNaa(lp61
NaNaNaNaNaNaNaNaNaNaNaNaa(lp62
NaNaNaNaNaNaNaNaNaNaNaNaa(lp63
NaNaNaNaNaNaNaNaNaNaNaNaa(lp64
NaNaNaNaNaNaNaNaNaNaNaNaa(lp65
NaNaNaNaNaNaNaNaNaNaNaNaa(lp66
NaNaNaNaNaNaNaNaNaNaNaNaa(lp67
NaNaNaNaNaNaNaNaNaNaNaNaa(lp68
NaNaNaNaNaNaNaNaNaNaNaNaa(lp69
NaNaNaNaNaNaNaNaNaNaNaNaa(lp70
NaNaNaNaNaNaNaNaNaNaNaNaa(lp71
NaNaNaNaNaNaNaNaNaNaNaNaa(lp72
NaNaNaNaNaNaNaNaNaNaNaNaa(lp73
NaNaNaNaNaNaNaNaNaNaNaNaa(lp74
NaNaNaNaNaNaNaNaNaNaNaNaa(lp75
NaNaNaNaNaNaNaNaNaVGiantWorm
p76
aNaNaa(lp77
NaNaNaNaNaNaNaNaNaNaNaNaa(lp78
NaNaNaNaNaNaNaNaNaNaNaNaa(lp79
NaNaNaNaNaNaNaNaNaNaNaNaa(lp80
NaNaNaNaNaNaNaNaNaNaNaNaa(lp81
NaNaNaNaNaNaNaNaNaNaNaNaa(lp82
NaNaNaNaNaNaNaNaNaNaNaNaa(lp83
NaNaNaNaNaNaNaNaNaNaNaNaa(lp84
NaNaNaNaNaNaNaNaNaNaNaNaa(lp85
NaNaNaNaNaNaNaNaNaNaNaNaa(lp86
NaNaNaNaNaNaNaNaNaNaNaNaa(lp87
NaNaNaNaNaNaNaNaNaNaNaNaa(lp88
NaNaNaNaNaNaNaNaNaNaNaNaa(lp89
NaNaNaNaNaNaNaNaNaNaNaNaa(lp90
NaNaNaNaNaNaNaNaNaNaNaNaa(lp91
NaNaNaNaNaNaNaNaNaNaNaNaa(lp92
NaNaNaNaNaNaNaNaNaNaNaNaa(lp93
NaNaNaNaNaNaNaNaNaNaNaNaa(lp94
NaNaNaNaNaNaNaNaNaNaNaNaa(lp95
NaNaNaNaNaNaNaNaNaNaNaNaa(lp96
NaNaNaNaNaNaNaNaNaNaNaNaa(lp97
NaNaNaNaNaNaNaNaNaNaNaNaa(lp98
NaNaNaNaNaNaNaNaNaNaNaNaa(lp99
NaNaNaNaNaNaNaNaNaNaNaNaa(lp100
NaNaNaNaNaNaNaNaNaNaNaNaa(lp101
NaNaNaNaNaNaNaNaNaNaNaNaa(lp102
NaNaNaNaNaNaNaNaNaNaNaNaa(lp103
NaNaNaNaNaNaNaNaNaNaNaNaa(lp104
NaNaNaNaNaNaNaNaNaNaNaNaa(lp105
NaNaNaNaNaNaNaNaNaNaNaNaa(lp106
NaNaNaNaNaNaNaNaNaNaNaNaa(lp107
NaNaNaNaNaNaNaNaNaNaNaNaa(lp108
NaNaNaNaNaNaNaNaNaNaNaNaa(lp109
NaNaNaNaNaNaNaNaNaNaNaNaa(lp110
NaNaNaNaNaNaNaNaNaNaNaNaa(lp111
NaNaNaNaNaNaNaNaNaNaNaNaa(lp112
NaNaNaNaNaNaNaNaNaNaNaNaa(lp113
NaNaNaNaNaNaNaNaNaNaNaNaa(lp114
NaNaNaNaNaNaNaNaNaNaNaNaa(lp115
NaNaNaNaNaNaNaNaNaNaNaNaa(lp116
NaNaNaNaNaNaNaNaNaNaNaNaa(lp117
NaNaNaNaNaNaNaNaNaNaNaNaa(lp118
NaNaNaNaNaNaNaNaNaNaNaNaa(lp119
NaNaNaNaNaNaNaNaNaNaNaNaa(lp120
NaNaNaNaNaNaNaNaNaNaNaNaa(lp121
NaNaNaNaNaNaNaNaNaNaNaNaa(lp122
NaNaNaNaNaNaNaNaNaNaNaNaa(lp123
NaNaNaNaNaNaNaNaNaNaNaNaa(lp124
NaNaNaNaNaNaNaNaNaNaNaNaa(lp125
NaNaNaNaNaNaNaNaNaNaNaNaa(lp126
NaNaNaNaNaNaNaNaNaNaNaNaa(lp127
NaNaNaNaNaNaNaNaNaNaNaNaa(lp128
NaNaNaNaNaNaNaNaNaNaNaNaa(lp129
NaNaNaNaNaNaNaNaNaNaNaNaa(lp130
NaNaNaNaNaNaNaNaNaNaNaNaa(lp131
NaNaNaNaNaNaNaNaNaNaNaNaa(lp132
NaNaNaNaNaNaNaNaNaNaNaNaa(lp133
NaNaNaNaNaNaNaNaNaNaNaNaasS'objdef'
p134
(dp135
VButterfly
p136
VButterfly.png
p137
sVLevel_End
p138
VEnd.png
p139
sVShield
p140
VShield.png
p141
sVPlayer_Start
p142
VStart.png
p143
sVLever_Snow
p144
VLever1.png
p145
sVFallingRock
p146
VRock.png
p147
sVWalltorch
p148
VWalltorch.png
p149
sVFirepit
p150
VPit.png
p151
sVButterflyC
p152
VButterflyC.png
p153
sVButterflyB
p154
VButterflyB.png
p155
sVSword
p156
VSword.png
p157
sVTreasureBoxC
p158
VTreasureC_Closed.png
p159
sVTreasureBoxB
p160
VTreasureB_Closed.png
p161
sVTreasureBox
p162
VTreasure_Closed.png
p163
sVObelisk_Snow
p164
VObelisk_Snow.png
p165
ssS'obj'
p166
(lp167
(lp168
NaNaNaNaNaNaNaNaNaNaNaNaa(lp169
NaNaNaNaNaNaNaNaVButterflyC
p170
aNaNaNaa(lp171
NaNaNaNaNaNaVButterfly
p172
aNaNaNaNaNaa(lp173
NaNaNaNaNaNaNaNaNaNaNaNaa(lp174
NaNaNaVButterfly
p175
aNaNaNaNaNaNaNaNaa(lp176
NaNaNaNaNaNaNaNaNaNaNaNaa(lp177
NaNaNaNaNaNaNaNaNaNaNaNaa(lp178
NaNaVPlayer_Start
p179
aNaNaNaNaNaNaNaNaNaa(lp180
NaNaNaNaNaNaNaNaNaNaNaNaa(lp181
NaNaNaNaNaNaNaNaNaNaNaNaa(lp182
NaNaNaNaNaNaNaNaNaNaNaNaa(lp183
NaNaNaVButterfly
p184
aNaNaVButterfly
p185
aNaNaNaNaNaa(lp186
NaNaNaNaNaNaNaNaNaNaNaNaa(lp187
NaNaNaNaNaVButterflyB
p188
aNaNaNaNaNaNaa(lp189
NaNaNaNaNaNaNaNaNaNaNaNaa(lp190
NaNaNaNaNaNaNaNaNaNaNaNaa(lp191
NaNaNaNaNaNaNaNaNaNaVTreasureBox
p192
aNaa(lp193
NaNaNaNaNaNaVButterfly
p194
aNaNaNaNaNaa(lp195
NaNaNaNaNaNaNaNaNaNaNaNaa(lp196
NaNaNaNaNaNaNaNaNaNaNaNaa(lp197
NaNaVButterflyB
p198
aNaNaNaNaNaNaNaNaNaa(lp199
NaNaVButterflyC
p200
aNaNaNaNaVButterflyB
p201
aNaNaNaNaa(lp202
NaNaNaNaNaNaNaNaNaNaNaNaa(lp203
NaNaNaVButterfly
p204
aNaNaNaNaNaNaNaNaa(lp205
NaNaNaNaNaNaNaNaNaNaNaNaa(lp206
NaNaNaNaNaNaNaNaNaNaNaNaa(lp207
NaNaNaNaNaNaNaNaNaNaNaNaa(lp208
NaNaNaNaNaNaNaNaNaNaNaNaa(lp209
NaNaNaNaVTreasureBox
p210
aNaNaNaNaNaNaNaa(lp211
NaNaNaNaNaNaNaNaNaNaNaNaa(lp212
NaNaNaNaNaNaNaNaNaNaNaNaa(lp213
NaNaNaVButterflyC
p214
aNaNaNaNaNaNaNaNaa(lp215
NaNaNaVButterflyC
p216
aNaNaNaNaNaNaNaNaa(lp217
NaNaNaVButterfly
p218
aNaNaNaNaNaNaNaNaa(lp219
NaNaNaNaNaNaNaNaNaNaNaNaa(lp220
NaNaNaNaNaNaNaNaNaNaNaNaa(lp221
NaNaNaNaNaNaNaVButterfly
p222
aNaNaNaNaa(lp223
NaNaNaNaNaNaNaNaNaNaNaNaa(lp224
NaNaNaNaNaNaNaNaNaNaNaNaa(lp225
NaNaNaNaNaNaNaNaNaNaNaNaa(lp226
NaNaNaNaNaNaNaNaNaNaNaNaa(lp227
NaNaNaNaNaNaNaNaNaNaNaNaa(lp228
NaNaNaNaNaNaNaNaNaNaNaNaa(lp229
NaNaNaNaNaNaNaVButterfly
p230
aNaNaNaNaa(lp231
NaNaNaVButterfly
p232
aNaNaNaNaNaNaNaNaa(lp233
NaNaNaNaNaNaNaNaNaNaNaNaa(lp234
NaNaNaNaNaNaNaNaNaNaNaNaa(lp235
NaNaNaNaNaNaNaNaNaNaNaNaa(lp236
NaNaNaNaNaNaNaNaNaNaNaNaa(lp237
NaNaNaNaNaNaNaNaNaNaNaNaa(lp238
NaNaNaNaNaNaVButterflyB
p239
aNaNaNaNaNaa(lp240
NaNaNaNaNaNaNaNaNaNaNaNaa(lp241
NaNaNaNaNaNaNaNaNaNaNaNaa(lp242
NaNaNaNaNaNaNaNaNaNaNaNaa(lp243
NaNaNaNaNaNaVButterfly
p244
aNaNaNaNaNaa(lp245
NaNaNaNaNaNaNaNaNaNaNaNaa(lp246
NaNaNaNaNaNaNaNaNaNaNaNaa(lp247
NaNaNaNaNaNaNaNaNaNaNaNaa(lp248
NaNaNaNaNaNaNaNaNaNaNaNaa(lp249
NaNaNaNaNaNaNaNaNaNaNaNaa(lp250
NaNaNaNaNaNaNaNaNaNaNaNaa(lp251
NaNaNaNaNaNaNaNaNaNaNaNaa(lp252
NaNaVButterfly
p253
aVButterflyB
p254
aNaNaNaNaNaNaNaNaa(lp255
NaNaNaNaNaNaNaNaNaNaNaNaa(lp256
NaNaNaNaNaNaNaNaNaNaNaNaa(lp257
NaNaNaNaNaNaNaNaNaNaNaNaa(lp258
NaNaNaNaNaNaNaNaNaNaNaNaa(lp259
NaNaNaNaNaNaNaNaNaNaNaNaa(lp260
NaNaNaNaNaNaNaNaNaNaNaNaa(lp261
NaNaNaNaNaNaNaNaNaNaNaNaa(lp262
NaNaNaNaNaNaNaNaVButterfly
p263
aNaNaNaa(lp264
NaNaNaNaNaNaNaNaNaNaNaNaa(lp265
NaNaNaNaNaNaNaNaNaNaNaNaa(lp266
NaNaNaNaNaNaNaNaNaNaNaNaa(lp267
NaNaNaNaNaNaNaNaNaNaNaNaa(lp268
NaNaNaNaNaNaNaNaNaVLevel_End
p269
aNaNaa(lp270
NaNaNaNaNaNaNaNaNaNaNaNaa(lp271
NaNaNaVButterflyB
p272
aNaNaNaNaNaNaNaNaa(lp273
NaNaNaVButterfly
p274
aNaNaNaNaNaNaNaNaa(lp275
NaNaNaNaNaNaNaNaNaNaNaNaa(lp276
NaNaNaNaNaNaNaNaNaNaNaNaa(lp277
NaNaNaNaNaNaNaNaNaNaNaNaa(lp278
NaNaNaNaNaNaNaNaNaNaNaNaa(lp279
NaNaNaNaNaNaNaNaNaNaNaNaa(lp280
NaNaNaNaNaVButterfly
p281
aNaNaNaNaNaNaa(lp282
NaNaNaNaNaVButterfly
p283
aNaNaNaNaNaNaa(lp284
NaNaNaNaNaVButterflyB
p285
aNaNaNaNaNaNaa(lp286
NaNaNaNaNaNaNaNaNaNaNaNaa(lp287
NaNaNaNaNaNaNaNaNaNaNaNaa(lp288
NaNaNaNaVButterflyB
p289
aNaNaNaNaNaNaNaa(lp290
NaNaNaNaNaNaNaNaNaNaNaNaa(lp291
NaNaNaNaNaNaNaNaNaNaNaNaa(lp292
NaNaNaNaNaNaNaNaNaNaNaNaa(lp293
NaNaNaNaNaNaNaNaNaNaNaNaa(lp294
NaNaNaNaNaNaNaNaNaNaNaNaa(lp295
NaNaNaNaNaNaNaNaNaNaNaNaa(lp296
NaNaNaNaNaNaNaNaNaNaNaNaa(lp297
NaNaNaNaNaNaNaNaNaNaNaNaa(lp298
NaNaNaNaNaNaNaNaNaNaNaNaa(lp299
NaNaNaNaNaNaNaNaNaNaNaNaa(lp300
NaNaNaNaNaNaNaNaNaNaNaNaa(lp301
NaNaNaNaNaNaNaNaNaNaNaNaa(lp302
NaNaNaNaNaNaNaNaNaNaNaNaa(lp303
NaNaNaNaNaNaNaNaNaNaNaNaa(lp304
NaNaNaNaNaNaNaNaNaNaNaNaa(lp305
NaNaNaNaNaNaNaNaNaNaNaNaa(lp306
NaNaNaNaNaNaNaNaNaNaNaNaa(lp307
NaNaNaNaNaNaNaNaNaNaNaNaa(lp308
NaNaNaNaNaNaNaNaNaNaNaNaa(lp309
NaNaNaNaNaNaNaNaNaNaNaNaa(lp310
NaNaNaNaNaNaNaNaNaNaNaNaa(lp311
NaNaNaNaNaNaNaNaNaNaNaNaa(lp312
NaNaNaNaNaNaNaNaNaNaNaNaa(lp313
NaNaNaNaNaNaNaNaNaNaNaNaa(lp314
NaNaNaNaNaNaNaNaNaNaNaNaa(lp315
NaNaNaNaNaNaNaNaNaNaNaNaa(lp316
NaNaNaNaNaNaNaNaNaNaNaNaa(lp317
NaNaNaNaNaNaNaNaNaNaNaNaa(lp318
NaNaNaNaNaNaNaNaNaNaNaNaa(lp319
NaNaNaNaNaNaNaNaNaNaNaNaa(lp320
NaNaNaNaNaNaNaNaNaNaNaNaa(lp321
NaNaNaNaNaNaNaNaNaNaNaNaa(lp322
NaNaNaNaNaNaNaNaNaNaNaNaa(lp323
NaNaNaNaNaNaNaNaNaNaNaNaa(lp324
NaNaNaNaNaNaNaNaNaNaNaNaa(lp325
NaNaNaNaNaNaNaNaNaNaNaNaa(lp326
NaNaNaNaNaNaNaNaNaNaNaNaa(lp327
NaNaNaNaNaNaNaNaNaNaNaNaasS'name'
p328
Vsempridgeboss
p329
sS'map'
p330
(lp331
(lp332
NaNaNaNaNaNaNaNaNaNaNaNaa(lp333
NaNaNaNaNaNaNaNaNaNaNaNaa(lp334
NaNaNaNaNaNaNaNaNaNaNaNaa(lp335
NaNaNaNaNaNaNaNaNaNaNaNaa(lp336
NaNaNaNaNaNaNaNaNaNaNaNaa(lp337
NaNaNaNaNaNaNaNaNaNaNaNaa(lp338
NaNaNa(imapping
Tile
p339
(dp340
S'collidetype'
p341
S'BOX'
p342
sS'type'
p343
VF_GrassLedge
p344
sS'friction'
p345
F1
sS'overhead'
p346
I00
sba(imapping
Tile
p347
(dp348
g341
g342
sg343
VF_Dirt_L1
p349
sg345
F1
sg346
I00
sba(imapping
Tile
p350
(dp351
g341
g342
sg343
VF_Dirt_L2
p352
sg345
F1
sg346
I00
sba(imapping
Tile
p353
(dp354
g341
g342
sg343
VF_Dirt_L2
p355
sg345
F1
sg346
I00
sba(imapping
Tile
p356
(dp357
g341
g342
sg343
VF_Dirt_L2
p358
sg345
F1
sg346
I00
sba(imapping
Tile
p359
(dp360
g341
g342
sg343
VF_Dirt_L1
p361
sg345
F1
sg346
I00
sba(imapping
Tile
p362
(dp363
g341
g342
sg343
VF_Dirt_L1
p364
sg345
F1
sg346
I00
sba(imapping
Tile
p365
(dp366
g341
g342
sg343
VF_Dirt_L2
p367
sg345
F1
sg346
I00
sba(imapping
Tile
p368
(dp369
g341
g342
sg343
VF_Dirt_L1
p370
sg345
F1
sg346
I00
sbaa(lp371
NaNaNa(imapping
Tile
p372
(dp373
g341
g342
sg343
VF_GrassRedge
p374
sg345
F1
sg346
I00
sba(imapping
Tile
p375
(dp376
g341
g342
sg343
VF_Dirt_R2
p377
sg345
F1
sg346
I00
sba(imapping
Tile
p378
(dp379
g341
g342
sg343
VF_Dirt_R2
p380
sg345
F1
sg346
I00
sba(imapping
Tile
p381
(dp382
g341
g342
sg343
VF_Dirt_R2
p383
sg345
F1
sg346
I00
sba(imapping
Tile
p384
(dp385
g341
g342
sg343
VF_Dirt_R1
p386
sg345
F1
sg346
I00
sba(imapping
Tile
p387
(dp388
g341
g342
sg343
VF_Dirt_R2
p389
sg345
F1
sg346
I00
sba(imapping
Tile
p390
(dp391
g341
g342
sg343
VF_Grass->DirtR
p392
sg345
F1
sg346
I00
sba(imapping
Tile
p393
(dp394
g341
g342
sg343
VF_Dirt
p395
sg345
F1
sg346
I00
sba(imapping
Tile
p396
(dp397
g341
g342
sg343
VF_Dirt
p398
sg345
F1
sg346
I00
sbaa(lp399
NaNaNaNaNaNaNaNaNa(imapping
Tile
p400
(dp401
g341
g342
sg343
VF_GrassRedge
p402
sg345
F1
sg346
I00
sba(imapping
Tile
p403
(dp404
g341
g342
sg343
VF_Dirt_R1
p405
sg345
F1
sg346
I00
sba(imapping
Tile
p406
(dp407
g341
g342
sg343
VF_Dirt_R1
p408
sg345
F1
sg346
I00
sbaa(lp409
NaNaNaNaNaNaNaNaNaNaNaNaa(lp410
NaNaNaNaNaNaNaNaNaNaNaNaa(lp411
NaNaNaNaNaNaNaNaNaNaNa(imapping
Tile
p412
(dp413
g341
g342
sg343
VF_GrassLedge
p414
sg345
F1
sg346
I00
sbaa(lp415
NaNaNaNaNaNaNaNaNaNa(imapping
Tile
p416
(dp417
g341
S'NONE_R'
p418
sg343
VF_Shrooms1
p419
sg345
F1
sg346
I00
sba(imapping
Tile
p420
(dp421
g341
g342
sg343
VF_GrassRedge
p422
sg345
F1
sg346
I00
sbaa(lp423
NaNaNaNaNaNaNaNaNaNaNaNaa(lp424
NaNaNaNaNaNaNaNaNaNaNaNaa(lp425
NaNaNaNaNaNaNaNaNaNaNa(imapping
Tile
p426
(dp427
g341
g342
sg343
VF_GrassLedge
p428
sg345
F1
sg346
I00
sbaa(lp429
NaNaNaNaNaNaNaNaNaNaNa(imapping
Tile
p430
(dp431
g341
g342
sg343
VF_Grass_Alt_3
p432
sg345
F1
sg346
I00
sbaa(lp433
NaNaNaNaNaNaNaNaNaNaNa(imapping
Tile
p434
(dp435
g341
g342
sg343
VF_GrassRedge
p436
sg345
F1
sg346
I00
sbaa(lp437
NaNaNaNaNaNaNaNaNaNaNaNaa(lp438
NaNaNaNaNaNaNaNaNaNaNaNaa(lp439
NaNaNaNaNaNaNaNaNaNa(imapping
Tile
p440
(dp441
g341
g418
sg343
VF_Shrooms3
p442
sg345
F1
sg346
I00
sba(imapping
Tile
p443
(dp444
g341
g342
sg343
VF_GrassLedge
p445
sg345
F1
sg346
I00
sbaa(lp446
NaNaNaNaNaNaNaNaNaNa(imapping
Tile
p447
(dp448
g341
S'RIGHT_INCLINATION'
p449
sg343
VF_Right_Ramp
p450
sg345
F1
sg346
I00
sba(imapping
Tile
p451
(dp452
g341
g342
sg343
VF_RampJoinR
p453
sg345
F1
sg346
I00
sbaa(lp454
NaNaNaNaNaNaNaNaNa(imapping
Tile
p455
(dp456
g341
g449
sg343
VF_Right_Ramp
p457
sg345
F1
sg346
I00
sba(imapping
Tile
p458
(dp459
g341
g342
sg343
VF_RampJoinR
p460
sg345
F1
sg346
I00
sba(imapping
Tile
p461
(dp462
g341
g342
sg343
VF_Dirt
p463
sg345
F1
sg346
I00
sbaa(lp464
NaNaNaNaNaNaNaNa(imapping
Tile
p465
(dp466
g341
g449
sg343
VF_Right_Ramp
p467
sg345
F1
sg346
I00
sba(imapping
Tile
p468
(dp469
g341
g342
sg343
VF_RampJoinR
p470
sg345
F1
sg346
I00
sba(imapping
Tile
p471
(dp472
g341
g342
sg343
VF_Dirt
p473
sg345
F1
sg346
I00
sba(imapping
Tile
p474
(dp475
g341
g342
sg343
VF_Dirt
p476
sg345
F1
sg346
I00
sbaa(lp477
NaNaNaNaNaNaNa(imapping
Tile
p478
(dp479
g341
g449
sg343
VF_Right_Ramp
p480
sg345
F1
sg346
I00
sba(imapping
Tile
p481
(dp482
g341
g342
sg343
VF_RampJoinR
p483
sg345
F1
sg346
I00
sba(imapping
Tile
p484
(dp485
g341
g342
sg343
VF_Dirt
p486
sg345
F1
sg346
I00
sba(imapping
Tile
p487
(dp488
g341
g342
sg343
VF_Dirt
p489
sg345
F1
sg346
I00
sba(imapping
Tile
p490
(dp491
g341
g342
sg343
VF_Dirt
p492
sg345
F1
sg346
I00
sbaa(lp493
NaNaNaNaNaNa(imapping
Tile
p494
(dp495
g341
g449
sg343
VF_Right_Ramp
p496
sg345
F1
sg346
I00
sba(imapping
Tile
p497
(dp498
g341
g342
sg343
VF_RampJoinR
p499
sg345
F1
sg346
I00
sba(imapping
Tile
p500
(dp501
g341
g342
sg343
VF_Dirt
p502
sg345
F1
sg346
I00
sba(imapping
Tile
p503
(dp504
g341
g342
sg343
VF_Dirt
p505
sg345
F1
sg346
I00
sba(imapping
Tile
p506
(dp507
g341
g342
sg343
VF_Dirt
p508
sg345
F1
sg346
I00
sba(imapping
Tile
p509
(dp510
g341
g342
sg343
VF_Dirt
p511
sg345
F1
sg346
I00
sbaa(lp512
NaNaNaNaNa(imapping
Tile
p513
(dp514
g341
g449
sg343
VF_Right_Ramp
p515
sg345
F1
sg346
I00
sba(imapping
Tile
p516
(dp517
g341
g342
sg343
VF_RampJoinR
p518
sg345
F1
sg346
I00
sba(imapping
Tile
p519
(dp520
g341
g342
sg343
VF_Dirt
p521
sg345
F1
sg346
I00
sba(imapping
Tile
p522
(dp523
g341
g342
sg343
VF_Dirt
p524
sg345
F1
sg346
I00
sba(imapping
Tile
p525
(dp526
g341
g342
sg343
VF_Dirt
p527
sg345
F1
sg346
I00
sba(imapping
Tile
p528
(dp529
g341
g342
sg343
VF_Dirt
p530
sg345
F1
sg346
I00
sba(imapping
Tile
p531
(dp532
g341
g342
sg343
VF_Dirt
p533
sg345
F1
sg346
I00
sbaa(lp534
NaNaNaNaNa(imapping
Tile
p535
(dp536
g341
g342
sg343
VF_Grass
p537
sg345
F1
sg346
I00
sba(imapping
Tile
p538
(dp539
g341
g342
sg343
VF_Dirt
p540
sg345
F1
sg346
I00
sba(imapping
Tile
p541
(dp542
g341
g342
sg343
VF_Dirt
p543
sg345
F1
sg346
I00
sba(imapping
Tile
p544
(dp545
g341
g342
sg343
VF_Dirt
p546
sg345
F1
sg346
I00
sba(imapping
Tile
p547
(dp548
g341
g342
sg343
VF_Dirt
p549
sg345
F1
sg346
I00
sba(imapping
Tile
p550
(dp551
g341
g342
sg343
VF_Dirt
p552
sg345
F1
sg346
I00
sba(imapping
Tile
p553
(dp554
g341
g342
sg343
VF_Dirt
p555
sg345
F1
sg346
I00
sbaa(lp556
NaNaNaNaNa(imapping
Tile
p557
(dp558
g341
g342
sg343
VF_Grass
p559
sg345
F1
sg346
I00
sba(imapping
Tile
p560
(dp561
g341
g342
sg343
VF_Dirt
p562
sg345
F1
sg346
I00
sba(imapping
Tile
p563
(dp564
g341
g342
sg343
VF_Dirt
p565
sg345
F1
sg346
I00
sba(imapping
Tile
p566
(dp567
g341
g342
sg343
VF_Dirt
p568
sg345
F1
sg346
I00
sba(imapping
Tile
p569
(dp570
g341
g342
sg343
VF_Dirt
p571
sg345
F1
sg346
I00
sba(imapping
Tile
p572
(dp573
g341
g342
sg343
VF_Dirt
p574
sg345
F1
sg346
I00
sba(imapping
Tile
p575
(dp576
g341
g342
sg343
VF_Dirt
p577
sg345
F1
sg346
I00
sbaa(lp578
NaNaNaNaNa(imapping
Tile
p579
(dp580
g341
g342
sg343
VF_GrassRedge
p581
sg345
F1
sg346
I00
sba(imapping
Tile
p582
(dp583
g341
g342
sg343
VF_Dirt_R2
p584
sg345
F1
sg346
I00
sba(imapping
Tile
p585
(dp586
g341
g342
sg343
VF_Dirt_R1
p587
sg345
F1
sg346
I00
sba(imapping
Tile
p588
(dp589
g341
g342
sg343
VF_Dirt_R2
p590
sg345
F1
sg346
I00
sba(imapping
Tile
p591
(dp592
g341
g342
sg343
VF_Grass->DirtR
p593
sg345
F1
sg346
I00
sba(imapping
Tile
p594
(dp595
g341
g342
sg343
VF_Dirt
p596
sg345
F1
sg346
I00
sba(imapping
Tile
p597
(dp598
g341
g342
sg343
VF_Dirt
p599
sg345
F1
sg346
I00
sbaa(lp600
NaNaNaNaNaNaNaNaNa(imapping
Tile
p601
(dp602
g341
g342
sg343
VF_Grass
p603
sg345
F1
sg346
I00
sba(imapping
Tile
p604
(dp605
g341
g342
sg343
VF_Dirt_Alt_4
p606
sg345
F1
sg346
I00
sba(imapping
Tile
p607
(dp608
g341
g342
sg343
VF_Dirt
p609
sg345
F1
sg346
I00
sbaa(lp610
NaNaNaNaNaNaNaNaNa(imapping
Tile
p611
(dp612
g341
g342
sg343
VF_Grass
p613
sg345
F1
sg346
I00
sba(imapping
Tile
p614
(dp615
g341
g342
sg343
VF_Dirt
p616
sg345
F1
sg346
I00
sba(imapping
Tile
p617
(dp618
g341
g342
sg343
VF_Dirt
p619
sg345
F1
sg346
I00
sbaa(lp620
NaNaNaNaNaNaNaNaNa(imapping
Tile
p621
(dp622
g341
S'LEFT_HINCLINATION2'
p623
sg343
VF_Left_Halframp2
p624
sg345
F1
sg346
I00
sba(imapping
Tile
p625
(dp626
g341
g342
sg343
VF_Dirt
p627
sg345
F1
sg346
I00
sba(imapping
Tile
p628
(dp629
g341
g342
sg343
VF_Dirt
p630
sg345
F1
sg346
I00
sbaa(lp631
NaNaNaNaNaNaNaNaNa(imapping
Tile
p632
(dp633
g341
S'LEFT_HINCLINATION1'
p634
sg343
VF_Left_Halframp1
p635
sg345
F1
sg346
I00
sba(imapping
Tile
p636
(dp637
g341
g342
sg343
VF_HalframpJoinL
p638
sg345
F1
sg346
I00
sba(imapping
Tile
p639
(dp640
g341
g342
sg343
VF_Dirt
p641
sg345
F1
sg346
I00
sbaa(lp642
NaNaNaNaNaNaNaNaNa(imapping
Tile
p643
(dp644
g341
g418
sg343
VF_Shrooms1
p645
sg345
F1
sg346
I00
sba(imapping
Tile
p646
(dp647
g341
g342
sg343
VF_Grass
p648
sg345
F1
sg346
I00
sba(imapping
Tile
p649
(dp650
g341
g342
sg343
VF_Dirt
p651
sg345
F1
sg346
I00
sbaa(lp652
NaNaNaNaNaNaNaNaNa(imapping
Tile
p653
(dp654
g341
S'NONE'
p655
sg343
VF_Shrooms2
p656
sg345
F1
sg346
I00
sba(imapping
Tile
p657
(dp658
g341
g342
sg343
VF_Grass_Alt_5
p659
sg345
F1
sg346
I00
sba(imapping
Tile
p660
(dp661
g341
g342
sg343
VF_Dirt
p662
sg345
F1
sg346
I00
sbaa(lp663
NaNaNaNaNaNaNaNaNaNa(imapping
Tile
p664
(dp665
g341
g342
sg343
VF_Grass_Alt_4
p666
sg345
F1
sg346
I00
sba(imapping
Tile
p667
(dp668
g341
g342
sg343
VF_Dirt
p669
sg345
F1
sg346
I00
sbaa(lp670
NaNaNaNaNaNaNaNaNaNa(imapping
Tile
p671
(dp672
g341
g342
sg343
VF_Grass
p673
sg345
F1
sg346
I00
sba(imapping
Tile
p674
(dp675
g341
g342
sg343
VF_Dirt
p676
sg345
F1
sg346
I00
sbaa(lp677
NaNaNaNaNaNaNaNaNaNa(imapping
Tile
p678
(dp679
g341
g342
sg343
VF_Grass
p680
sg345
F1
sg346
I00
sba(imapping
Tile
p681
(dp682
g341
g342
sg343
VF_Dirt
p683
sg345
F1
sg346
I00
sbaa(lp684
NaNaNaNaNaNaNaNaNa(imapping
Tile
p685
(dp686
g341
g655
sg343
VF_Tuft1
p687
sg345
F1
sg346
I00
sba(imapping
Tile
p688
(dp689
g341
g342
sg343
VF_Grass_Alt_3
p690
sg345
F1
sg346
I00
sba(imapping
Tile
p691
(dp692
g341
g342
sg343
VF_Dirt
p693
sg345
F1
sg346
I00
sbaa(lp694
NaNaNaNaNaNaNaNaNa(imapping
Tile
p695
(dp696
g341
g655
sg343
VF_Tuft2
p697
sg345
F1
sg346
I00
sba(imapping
Tile
p698
(dp699
g341
g342
sg343
VF_Grass
p700
sg345
F1
sg346
I00
sba(imapping
Tile
p701
(dp702
g341
g342
sg343
VF_Dirt
p703
sg345
F1
sg346
I00
sbaa(lp704
NaNaNaNaNaNaNaNaNaNa(imapping
Tile
p705
(dp706
g341
g342
sg343
VF_Grass
p707
sg345
F1
sg346
I00
sba(imapping
Tile
p708
(dp709
g341
g342
sg343
VF_Dirt
p710
sg345
F1
sg346
I00
sbaa(lp711
NaNaNaNaNaNaNaNaNa(imapping
Tile
p712
(dp713
g341
g418
sg343
VF_Shrooms3
p714
sg345
F1
sg346
I00
sba(imapping
Tile
p715
(dp716
g341
g342
sg343
VF_Grass
p717
sg345
F1
sg346
I00
sba(imapping
Tile
p718
(dp719
g341
g342
sg343
VF_Dirt
p720
sg345
F1
sg346
I00
sbaa(lp721
NaNaNaNaNaNaNaNaNa(imapping
Tile
p722
(dp723
g341
g655
sg343
VF_Shrooms2
p724
sg345
F1
sg346
I00
sba(imapping
Tile
p725
(dp726
g341
g342
sg343
VF_Grass
p727
sg345
F1
sg346
I00
sba(imapping
Tile
p728
(dp729
g341
g342
sg343
VF_Dirt
p730
sg345
F1
sg346
I00
sbaa(lp731
NaNaNaNaNaNaNaNaNaNa(imapping
Tile
p732
(dp733
g341
g342
sg343
VF_Grass
p734
sg345
F1
sg346
I00
sba(imapping
Tile
p735
(dp736
g341
g342
sg343
VF_Dirt
p737
sg345
F1
sg346
I00
sbaa(lp738
NaNaNaNaNaNaNaNaNa(imapping
Tile
p739
(dp740
g341
g655
sg343
VF_Tuft1
p741
sg345
F1
sg346
I00
sba(imapping
Tile
p742
(dp743
g341
g342
sg343
VF_Grass
p744
sg345
F1
sg346
I00
sba(imapping
Tile
p745
(dp746
g341
g342
sg343
VF_Dirt
p747
sg345
F1
sg346
I00
sbaa(lp748
NaNaNaNaNaNaNaNaNaNa(imapping
Tile
p749
(dp750
g341
g342
sg343
VF_Grass_Alt_3
p751
sg345
F1
sg346
I00
sba(imapping
Tile
p752
(dp753
g341
g342
sg343
VF_Dirt
p754
sg345
F1
sg346
I00
sbaa(lp755
NaNaNaNaNaNaNaNaNaNa(imapping
Tile
p756
(dp757
g341
g342
sg343
VF_Grass
p758
sg345
F1
sg346
I00
sba(imapping
Tile
p759
(dp760
g341
g342
sg343
VF_Dirt
p761
sg345
F1
sg346
I00
sbaa(lp762
NaNaNaNaNaNaNaNaNa(imapping
Tile
p763
(dp764
g341
g655
sg343
VF_Tuft2
p765
sg345
F1
sg346
I00
sba(imapping
Tile
p766
(dp767
g341
g342
sg343
VF_Grass
p768
sg345
F1
sg346
I00
sba(imapping
Tile
p769
(dp770
g341
g342
sg343
VF_Dirt
p771
sg345
F1
sg346
I00
sbaa(lp772
NaNaNaNaNaNaNaNaNa(imapping
Tile
p773
(dp774
g341
g655
sg343
VF_Shrooms2
p775
sg345
F1
sg346
I00
sba(imapping
Tile
p776
(dp777
g341
g342
sg343
VF_Grass_Alt_4
p778
sg345
F1
sg346
I00
sba(imapping
Tile
p779
(dp780
g341
g342
sg343
VF_Dirt
p781
sg345
F1
sg346
I00
sbaa(lp782
NaNaNaNaNaNaNaNaNa(imapping
Tile
p783
(dp784
g341
g655
sg343
VF_Shrooms2
p785
sg345
F1
sg346
I00
sba(imapping
Tile
p786
(dp787
g341
g342
sg343
VF_Grass
p788
sg345
F1
sg346
I00
sba(imapping
Tile
p789
(dp790
g341
g342
sg343
VF_Dirt
p791
sg345
F1
sg346
I00
sbaa(lp792
NaNaNaNaNaNaNaNaNa(imapping
Tile
p793
(dp794
g341
g655
sg343
VF_Tuft1
p795
sg345
F1
sg346
I00
sba(imapping
Tile
p796
(dp797
g341
g342
sg343
VF_Grass_Alt_3
p798
sg345
F1
sg346
I00
sba(imapping
Tile
p799
(dp800
g341
g342
sg343
VF_Dirt
p801
sg345
F1
sg346
I00
sbaa(lp802
NaNaNaNaNaNaNaNaNaNa(imapping
Tile
p803
(dp804
g341
g342
sg343
VF_Grass
p805
sg345
F1
sg346
I00
sba(imapping
Tile
p806
(dp807
g341
g342
sg343
VF_Dirt
p808
sg345
F1
sg346
I00
sbaa(lp809
NaNaNaNaNaNaNaNaNa(imapping
Tile
p810
(dp811
g341
g655
sg343
VF_Tuft2
p812
sg345
F1
sg346
I00
sba(imapping
Tile
p813
(dp814
g341
g342
sg343
VF_Grass_Alt_3
p815
sg345
F1
sg346
I00
sba(imapping
Tile
p816
(dp817
g341
g342
sg343
VF_Dirt
p818
sg345
F1
sg346
I00
sbaa(lp819
NaNaNaNaNaNaNaNaNa(imapping
Tile
p820
(dp821
g341
g655
sg343
VF_Tuft2
p822
sg345
F1
sg346
I00
sba(imapping
Tile
p823
(dp824
g341
g342
sg343
VF_Grass
p825
sg345
F1
sg346
I00
sba(imapping
Tile
p826
(dp827
g341
g342
sg343
VF_Dirt
p828
sg345
F1
sg346
I00
sbaa(lp829
NaNaNaNaNaNaNaNaNaNa(imapping
Tile
p830
(dp831
g341
g342
sg343
VF_Grass
p832
sg345
F1
sg346
I00
sba(imapping
Tile
p833
(dp834
g341
g342
sg343
VF_Dirt
p835
sg345
F1
sg346
I00
sbaa(lp836
NaNaNaNaNaNaNaNaNaNa(imapping
Tile
p837
(dp838
g341
g342
sg343
VF_Grass_Alt_5
p839
sg345
F1
sg346
I00
sba(imapping
Tile
p840
(dp841
g341
g342
sg343
VF_Dirt
p842
sg345
F1
sg346
I00
sbaa(lp843
NaNaNaNaNaNaNaNaNa(imapping
Tile
p844
(dp845
g341
g418
sg343
VF_Shrooms3
p846
sg345
F1
sg346
I00
sba(imapping
Tile
p847
(dp848
g341
g342
sg343
VF_Grass
p849
sg345
F1
sg346
I00
sba(imapping
Tile
p850
(dp851
g341
g342
sg343
VF_Dirt
p852
sg345
F1
sg346
I00
sbaa(lp853
NaNaNaNaNaNaNaNaNa(imapping
Tile
p854
(dp855
g341
g655
sg343
VF_Tuft1
p856
sg345
F1
sg346
I00
sba(imapping
Tile
p857
(dp858
g341
g342
sg343
VF_Grass
p859
sg345
F1
sg346
I00
sba(imapping
Tile
p860
(dp861
g341
g342
sg343
VF_Dirt
p862
sg345
F1
sg346
I00
sbaa(lp863
NaNaNaNaNaNaNaNaNaNa(imapping
Tile
p864
(dp865
g341
g342
sg343
VF_Grass
p866
sg345
F1
sg346
I00
sba(imapping
Tile
p867
(dp868
g341
g342
sg343
VF_Dirt
p869
sg345
F1
sg346
I00
sbaa(lp870
NaNaNaNaNaNaNaNaNaNa(imapping
Tile
p871
(dp872
g341
g342
sg343
VF_Grass_Alt_4
p873
sg345
F1
sg346
I00
sba(imapping
Tile
p874
(dp875
g341
g342
sg343
VF_Dirt
p876
sg345
F1
sg346
I00
sbaa(lp877
NaNaNaNaNaNaNaNaNaNa(imapping
Tile
p878
(dp879
g341
g342
sg343
VF_Grass_Alt_4
p880
sg345
F1
sg346
I00
sba(imapping
Tile
p881
(dp882
g341
g342
sg343
VF_Dirt
p883
sg345
F1
sg346
I00
sbaa(lp884
NaNaNaNaNaNaNaNaNaNa(imapping
Tile
p885
(dp886
g341
g342
sg343
VF_Grass
p887
sg345
F1
sg346
I00
sba(imapping
Tile
p888
(dp889
g341
g342
sg343
VF_Dirt
p890
sg345
F1
sg346
I00
sbaa(lp891
NaNaNaNaNaNaNaNaNaNa(imapping
Tile
p892
(dp893
g341
g342
sg343
VF_Grass_Alt_5
p894
sg345
F1
sg346
I00
sba(imapping
Tile
p895
(dp896
g341
g342
sg343
VF_Dirt
p897
sg345
F1
sg346
I00
sbaa(lp898
NaNaNaNaNaNaNaNaNa(imapping
Tile
p899
(dp900
g341
g418
sg343
VF_Stump
p901
sg345
F1
sg346
I00
sba(imapping
Tile
p902
(dp903
g341
g342
sg343
VF_Grass
p904
sg345
F1
sg346
I00
sba(imapping
Tile
p905
(dp906
g341
g342
sg343
VF_Dirt
p907
sg345
F1
sg346
I00
sbaa(lp908
NaNaNaNaNaNaNaNaNaNa(imapping
Tile
p909
(dp910
g341
g342
sg343
VF_Grass
p911
sg345
F1
sg346
I00
sba(imapping
Tile
p912
(dp913
g341
g342
sg343
VF_Dirt
p914
sg345
F1
sg346
I00
sbaa(lp915
NaNaNaNaNaNaNaNaNaNa(imapping
Tile
p916
(dp917
g341
g342
sg343
VF_Grass
p918
sg345
F1
sg346
I00
sba(imapping
Tile
p919
(dp920
g341
g342
sg343
VF_Dirt
p921
sg345
F1
sg346
I00
sbaa(lp922
NaNaNaNaNaNaNaNaNaNa(imapping
Tile
p923
(dp924
g341
g342
sg343
VF_Grass
p925
sg345
F1
sg346
I00
sba(imapping
Tile
p926
(dp927
g341
g342
sg343
VF_Dirt
p928
sg345
F1
sg346
I00
sbaa(lp929
NaNaNaNaNaNaNaNaNa(imapping
Tile
p930
(dp931
g341
g418
sg343
VF_Shrooms1
p932
sg345
F1
sg346
I00
sba(imapping
Tile
p933
(dp934
g341
g342
sg343
VF_Grass
p935
sg345
F1
sg346
I00
sba(imapping
Tile
p936
(dp937
g341
g342
sg343
VF_Dirt
p938
sg345
F1
sg346
I00
sbaa(lp939
NaNaNaNaNaNaNaNaNaNa(imapping
Tile
p940
(dp941
g341
g342
sg343
VF_Grass
p942
sg345
F1
sg346
I00
sba(imapping
Tile
p943
(dp944
g341
g342
sg343
VF_Dirt
p945
sg345
F1
sg346
I00
sbaa(lp946
NaNaNaNaNaNaNaNaNaNa(imapping
Tile
p947
(dp948
g341
g342
sg343
VF_Grass
p949
sg345
F1
sg346
I00
sba(imapping
Tile
p950
(dp951
g341
g342
sg343
VF_Dirt
p952
sg345
F1
sg346
I00
sbaa(lp953
NaNaNaNaNaNaNaNaNaNa(imapping
Tile
p954
(dp955
g341
g342
sg343
VF_Grass_Alt_5
p956
sg345
F1
sg346
I00
sba(imapping
Tile
p957
(dp958
g341
g342
sg343
VF_Dirt
p959
sg345
F1
sg346
I00
sbaa(lp960
NaNaNaNaNaNaNaNaNaNa(imapping
Tile
p961
(dp962
g341
g342
sg343
VF_Grass
p963
sg345
F1
sg346
I00
sba(imapping
Tile
p964
(dp965
g341
g342
sg343
VF_Dirt
p966
sg345
F1
sg346
I00
sbaa(lp967
NaNaNaNaNaNaNaNaNa(imapping
Tile
p968
(dp969
g341
g655
sg343
VF_ExitSign
p970
sg345
F1
sg346
I00
sba(imapping
Tile
p971
(dp972
g341
g342
sg343
VF_Grass_Alt_3
p973
sg345
F1
sg346
I00
sba(imapping
Tile
p974
(dp975
g341
g342
sg343
VF_Dirt
p976
sg345
F1
sg346
I00
sbaa(lp977
NaNaNaNaNaNaNaNaNaNa(imapping
Tile
p978
(dp979
g341
g342
sg343
VF_Grass
p980
sg345
F1
sg346
I00
sba(imapping
Tile
p981
(dp982
g341
g342
sg343
VF_Dirt
p983
sg345
F1
sg346
I00
sbaa(lp984
NaNaNaNaNaNaNaNaNaNa(imapping
Tile
p985
(dp986
g341
g342
sg343
VF_Grass
p987
sg345
F1
sg346
I00
sba(imapping
Tile
p988
(dp989
g341
g342
sg343
VF_Dirt
p990
sg345
F1
sg346
I00
sbaa(lp991
NaNaNaNaNaNaNaNaNaNa(imapping
Tile
p992
(dp993
g341
g342
sg343
VF_Grass
p994
sg345
F1
sg346
I00
sba(imapping
Tile
p995
(dp996
g341
g342
sg343
VF_Dirt
p997
sg345
F1
sg346
I00
sbaa(lp998
NaNaNaNaNaNaNaNaNaNa(imapping
Tile
p999
(dp1000
g341
g342
sg343
VF_Grass
p1001
sg345
F1
sg346
I00
sba(imapping
Tile
p1002
(dp1003
g341
g342
sg343
VF_Dirt
p1004
sg345
F1
sg346
I00
sbaa(lp1005
NaNaNaNaNaNaNaNaNaNa(imapping
Tile
p1006
(dp1007
g341
g342
sg343
VF_Grass
p1008
sg345
F1
sg346
I00
sba(imapping
Tile
p1009
(dp1010
g341
g342
sg343
VF_Dirt
p1011
sg345
F1
sg346
I00
sbaa(lp1012
NaNaNaNaNaNaNaNaNaNa(imapping
Tile
p1013
(dp1014
g341
g342
sg343
VF_Grass_Alt_5
p1015
sg345
F1
sg346
I00
sba(imapping
Tile
p1016
(dp1017
g341
g342
sg343
VF_Dirt
p1018
sg345
F1
sg346
I00
sbaa(lp1019
NaNaNaNaNaNaNaNaNaNa(imapping
Tile
p1020
(dp1021
g341
g342
sg343
VF_Grass
p1022
sg345
F1
sg346
I00
sba(imapping
Tile
p1023
(dp1024
g341
g342
sg343
VF_Dirt
p1025
sg345
F1
sg346
I00
sbaa(lp1026
NaNaNaNaNaNaNaNaNaNa(imapping
Tile
p1027
(dp1028
g341
g342
sg343
VF_Grass
p1029
sg345
F1
sg346
I00
sba(imapping
Tile
p1030
(dp1031
g341
g342
sg343
VF_Dirt
p1032
sg345
F1
sg346
I00
sbaa(lp1033
NaNaNaNaNaNaNaNaNaNa(imapping
Tile
p1034
(dp1035
g341
g342
sg343
VF_Grass_Alt_4
p1036
sg345
F1
sg346
I00
sba(imapping
Tile
p1037
(dp1038
g341
g342
sg343
VF_Dirt
p1039
sg345
F1
sg346
I00
sbaa(lp1040
NaNaNaNaNaNaNaNaNaNa(imapping
Tile
p1041
(dp1042
g341
g342
sg343
VF_Grass
p1043
sg345
F1
sg346
I00
sba(imapping
Tile
p1044
(dp1045
g341
g342
sg343
VF_Dirt
p1046
sg345
F1
sg346
I00
sbaa(lp1047
NaNaNaNaNaNaNaNaNaNa(imapping
Tile
p1048
(dp1049
g341
g342
sg343
VF_Grass
p1050
sg345
F1
sg346
I00
sba(imapping
Tile
p1051
(dp1052
g341
g342
sg343
VF_Dirt
p1053
sg345
F1
sg346
I00
sbaa(lp1054
NaNaNaNaNaNaNaNaNaNa(imapping
Tile
p1055
(dp1056
g341
g342
sg343
VF_Grass_Alt_5
p1057
sg345
F1
sg346
I00
sba(imapping
Tile
p1058
(dp1059
g341
g342
sg343
VF_Dirt
p1060
sg345
F1
sg346
I00
sbaa(lp1061
NaNaNaNaNaNaNaNaNaNa(imapping
Tile
p1062
(dp1063
g341
g342
sg343
VF_Grass
p1064
sg345
F1
sg346
I00
sba(imapping
Tile
p1065
(dp1066
g341
g342
sg343
VF_Dirt
p1067
sg345
F1
sg346
I00
sbaa(lp1068
NaNaNaNaNaNaNaNaNaNa(imapping
Tile
p1069
(dp1070
g341
g342
sg343
VF_Grass
p1071
sg345
F1
sg346
I00
sba(imapping
Tile
p1072
(dp1073
g341
g342
sg343
VF_Dirt
p1074
sg345
F1
sg346
I00
sbaa(lp1075
NaNaNaNaNaNaNaNaNaNa(imapping
Tile
p1076
(dp1077
g341
g342
sg343
VF_Grass
p1078
sg345
F1
sg346
I00
sba(imapping
Tile
p1079
(dp1080
g341
g342
sg343
VF_Dirt
p1081
sg345
F1
sg346
I00
sbaa(lp1082
NaNaNaNaNaNaNaNaNaNa(imapping
Tile
p1083
(dp1084
g341
g342
sg343
VF_Grass
p1085
sg345
F1
sg346
I00
sba(imapping
Tile
p1086
(dp1087
g341
g342
sg343
VF_Dirt
p1088
sg345
F1
sg346
I00
sbaa(lp1089
NaNaNaNaNaNaNaNaNaNa(imapping
Tile
p1090
(dp1091
g341
g342
sg343
VF_Grass
p1092
sg345
F1
sg346
I00
sba(imapping
Tile
p1093
(dp1094
g341
g342
sg343
VF_Dirt
p1095
sg345
F1
sg346
I00
sbaa(lp1096
NaNaNaNaNaNaNaNaNaNa(imapping
Tile
p1097
(dp1098
g341
g342
sg343
VF_Grass
p1099
sg345
F1
sg346
I00
sba(imapping
Tile
p1100
(dp1101
g341
g342
sg343
VF_Dirt
p1102
sg345
F1
sg346
I00
sbaa(lp1103
NaNaNaNaNaNaNaNaNaNa(imapping
Tile
p1104
(dp1105
g341
g342
sg343
VF_Grass
p1106
sg345
F1
sg346
I00
sba(imapping
Tile
p1107
(dp1108
g341
g342
sg343
VF_Dirt
p1109
sg345
F1
sg346
I00
sbaa(lp1110
NaNaNaNaNaNaNaNaNaNa(imapping
Tile
p1111
(dp1112
g341
g342
sg343
VF_Grass
p1113
sg345
F1
sg346
I00
sba(imapping
Tile
p1114
(dp1115
g341
g342
sg343
VF_Dirt
p1116
sg345
F1
sg346
I00
sbaa(lp1117
NaNaNaNaNaNaNaNaNaNaNaNaa(lp1118
NaNaNaNaNaNaNaNaNaNaNaNaa(lp1119
NaNaNaNaNaNaNaNaNaNaNaNaa(lp1120
NaNaNaNaNaNaNaNaNaNaNaNaa(lp1121
NaNaNaNaNaNaNaNaNaNaNaNaa(lp1122
NaNaNaNaNaNaNaNaNaNaNaNaa(lp1123
NaNaNaNaNaNaNaNaNaNaNaNaa(lp1124
NaNaNaNaNaNaNaNaNaNaNaNaa(lp1125
NaNaNaNaNaNaNaNaNaNaNaNaa(lp1126
NaNaNaNaNaNaNaNaNaNaNaNaa(lp1127
NaNaNaNaNaNaNaNaNaNaNaNaa(lp1128
NaNaNaNaNaNaNaNaNaNaNaNaa(lp1129
NaNaNaNaNaNaNaNaNaNaNaNaa(lp1130
NaNaNaNaNaNaNaNaNaNaNaNaa(lp1131
NaNaNaNaNaNaNaNaNaNaNaNaa(lp1132
NaNaNaNaNaNaNaNaNaNaNaNaa(lp1133
NaNaNaNaNaNaNaNaNaNaNaNaa(lp1134
NaNaNaNaNaNaNaNaNaNaNaNaa(lp1135
NaNaNaNaNaNaNaNaNaNaNaNaa(lp1136
NaNaNaNaNaNaNaNaNaNaNaNaa(lp1137
NaNaNaNaNaNaNaNaNaNaNaNaa(lp1138
NaNaNaNaNaNaNaNaNaNaNaNaa(lp1139
NaNaNaNaNaNaNaNaNaNaNaNaa(lp1140
NaNaNaNaNaNaNaNaNaNaNaNaa(lp1141
NaNaNaNaNaNaNaNaNaNaNaNaa(lp1142
NaNaNaNaNaNaNaNaNaNaNaNaa(lp1143
NaNaNaNaNaNaNaNaNaNaNaNaa(lp1144
NaNaNaNaNaNaNaNaNaNaNaNaa(lp1145
NaNaNaNaNaNaNaNaNaNaNaNaa(lp1146
NaNaNaNaNaNaNaNaNaNaNaNaa(lp1147
NaNaNaNaNaNaNaNaNaNaNaNaa(lp1148
NaNaNaNaNaNaNaNaNaNaNaNaa(lp1149
NaNaNaNaNaNaNaNaNaNaNaNaa(lp1150
NaNaNaNaNaNaNaNaNaNaNaNaasS'bgmusic'
p1151
Vbattle.ogg
p1152
sS'theme'
p1153
VForest
p1154
sS'endef'
p1155
(dp1156
VCSpider
p1157
Vcspider
p1158
sVSnowOgre
p1159
Vsnowogre
p1160
sVWasp
p1161
Vwasp
p1162
sVSpider
p1163
Vspider
p1164
sVWorm
p1165
Vworm
p1166
sVGiantJelly
p1167
Vgiantjelly
p1168
sVPod
p1169
Vpod
p1170
sVGiantWorm
p1171
Vgiantworm
p1172
ssS'tiledef'
p1173
(dp1174
VS_bLRamp
p1175
Vsnow_blramp.png
p1176
sVF_Dirt_R2
p1177
Vdirtr_edge2.png
p1178
sVF_Dirt_R1
p1179
Vdirtr_edge1.png
p1180
sVS_Railing_1
p1181
Vsnow_railing1.png
p1182
sVS_Railing_2
p1183
Vsnow_railing2.png
p1184
sVC_Suit of Armour
p1185
Vsuit_armour.png
p1186
sVS_UCleft
p1187
Vsnow_undercorner_left.png
p1188
sVF_Right_Halframp1
p1189
VR_HR1.png
p1190
sVF_Right_Halframp2
p1191
VR_HR2.png
p1192
sVF_GrassRedge
p1193
Vgrassr_edge.png
p1194
sVS_ECleft
p1195
Vsnow_edgecorner_left.png
p1196
sVF_Tuft1
p1197
Vtuft1.png
p1198
sVF_Tuft2
p1199
Vtuft2.png
p1200
sVS_Tree
p1201
Vsnow_tree.png
p1202
sVF_Grass
p1203
Vgrass.png
p1204
sVC_Castle Wall->Floor R
p1205
Vcstl_wfright.png
p1206
sVS_Railing_L
p1207
Vsnow_railing_left.png
p1208
sVC_Castle HRR
p1209
Vcstl_hr_r.png
p1210
sVS_RRamp
p1211
Vsnow_rramp.png
p1212
sVC_Castle HRL
p1213
Vcstl_hr_l.png
p1214
sVS_Pillar
p1215
Vsnow_pillar.png
p1216
sVS_Railing_R
p1217
Vsnow_railing_right.png
p1218
sVS_Ground1
p1219
Vsnow_ground1.png
p1220
sVF_Stump
p1221
Vtreestump.png
p1222
sVC_Castle Ground 2
p1223
Vcstl_ground2.png
p1224
sVC_Castle Ground 3
p1225
Vcstl_ground3.png
p1226
sVC_Castle Ground 1
p1227
Vcstl_ground1.png
p1228
sVS_Snow2
p1229
Vsnow_snow2.png
p1230
sVF_Grass_Alt_5
p1231
Vgrassc5.png
p1232
sVS_bRRamp
p1233
Vsnow_brramp.png
p1234
sVC_Castle Floor 2
p1235
Vcstl_floor2.png
p1236
sVS_Snow
p1237
Vsnow_snow.png
p1238
sVF_Grass_Alt_2
p1239
Vgrassc2.png
p1240
sVF_ExitSign
p1241
Vexitsign.png
p1242
sVF_Grass->Dirttop
p1243
Vgrassmdirt.png
p1244
sVS_UCright
p1245
Vsnow_undercorner_right.png
p1246
sVS_Pillartop
p1247
Vsnow_pillartop.png
p1248
sVF_Dirttop->Grass
p1249
Vdirtmgrass.png
p1250
sVS_ECright
p1251
Vsnow_edgecorner_right.png
p1252
sVC_Castle HRmL
p1253
Vcstl_hr_m_l.png
p1254
sVC_Castle Wall L
p1255
Vcstl_wleft.png
p1256
sVC_Castle Wall R
p1257
Vcstl_wright.png
p1258
sVC_Castle HRmR
p1259
Vcstl_hr_m_r.png
p1260
sVF_Ice
p1261
Vtile5.png
p1262
sVC_Castle Floor 4
p1263
Vcstl_floor4.png
p1264
sVF_Grass_Alt_4
p1265
Vgrassc4.png
p1266
sVF_Grass_Alt_1
p1267
Vgrassc1.png
p1268
sVC_Castle Floor 1
p1269
Vcstl_floor1.png
p1270
sVF_Grass_Alt_3
p1271
Vgrassc3.png
p1272
sVC_Castle Floor 3
p1273
Vcstl_floor3.png
p1274
sVS_edgewleft1
p1275
Vsnow_edgewall_left1.png
p1276
sVS_edgewleft2
p1277
Vsnow_edgewall_left2.png
p1278
sVS_UCJright
p1279
Vsnow_undercorner_join_right.png
p1280
sVS_LRamp
p1281
Vsnow_lramp.png
p1282
sVC_Castle Floor Edge R
p1283
Vcstl_floor_edge_right.png
p1284
sVF_Dirt_L1
p1285
Vdirtl_edge1.png
p1286
sVF_Dirt_L2
p1287
Vdirtl_edge2.png
p1288
sVC_Castle Floor Edge L
p1289
Vcstl_floor_edge_left.png
p1290
sVF_Left_Halframp2
p1291
VL_HR2.png
p1292
sVF_Left_Halframp1
p1293
VL_HR1.png
p1294
sVF_Shrooms2
p1295
Vshrooms2.png
p1296
sVF_Shrooms3
p1297
Vshrooms3.png
p1298
sVF_Shrooms1
p1299
Vshrooms1.png
p1300
sVF_RampJoinL
p1301
Vramp_mid_dirt_l.png
p1302
sVS_Tree2
p1303
Vsnow_tree2.png
p1304
sVF_RampJoinR
p1305
Vramp_mid_dirt_r.png
p1306
sVF_GrassLedge
p1307
Vgrassl_edge.png
p1308
sVS_Stones
p1309
Vsnow_stones.png
p1310
sVS_edgeright
p1311
Vsnow_edge_right.png
p1312
sVS_edgewright2
p1313
Vsnow_edgewall_right2.png
p1314
sVS_edgewright1
p1315
Vsnow_edgewall_right1.png
p1316
sVF_Dirtb
p1317
Vdirtb.png
p1318
sVF_Right_Ramp
p1319
VR_R.png
p1320
sVF_HalframpJoinL
p1321
Vhalframp_mid_dirt_l.png
p1322
sVF_Dirt_BL
p1323
Vdirtl_bedge.png
p1324
sVF_HalframpJoinR
p1325
Vhalframp_mid_dirt_r.png
p1326
sVF_Dirt_BR
p1327
Vdirtr_bedge.png
p1328
sVF_Dirtb2
p1329
Vdirtb2.png
p1330
sVF_Left_Ramp
p1331
VL_R.png
p1332
sVC_Castle Wall->Floor L
p1333
Vcstl_wfleft.png
p1334
sVF_Dirt
p1335
Vdirt.png
p1336
sVF_Grass->DirtL
p1337
Vgrass_dirt_l.png
p1338
sVS_edgeleft
p1339
Vsnow_edge_left.png
p1340
sVF_Dirttop
p1341
Vdirttop.png
p1342
sVF_Dirt_Alt_4
p1343
Vdirtc4.png
p1344
sVF_Dirt_Alt_3
p1345
Vdirtc3.png
p1346
sVF_Dirt_Alt_2
p1347
Vdirtc2.png
p1348
sVF_Dirt_Alt_1
p1349
Vdirtc1.png
p1350
sVF_Grass->DirtR
p1351
Vgrass_dirt_r.png
p1352
sVS_UCJleft
p1353
Vsnow_undercorner_join_left.png
p1354
ssb.