(imapping
Map
p1
(dp2
S'enemy'
p3
(lp4
(lp5
NaNaNaNaNaNaNaNaNaNaNaNaa(lp6
NaNaNaNaNaNaNaNaNaNaNaNaa(lp7
NaNaNaNaNaNaNaNaNaNaNaNaa(lp8
NaNaNaNaNaNaNaNaNaNaNaNaa(lp9
NaNaNaNaNaNaNaNaNaNaNaNaa(lp10
NaNaNaNaNaNaNaNaNaNaNaNaa(lp11
NaNaNaNaNaNaNaNaNaNaNaNaa(lp12
NaNaNaNaNaNaNaNaNaNaNaNaa(lp13
NaNaNaNaNaNaNaNaNaNaNaNaa(lp14
NaNaNaNaNaNaNaNaNaNaNaNaa(lp15
NaNaNaNaNaNaNaNaNaNaNaNaa(lp16
NaNaNaNaNaNaNaNaNaNaNaNaa(lp17
NaNaNaNaNaNaNaNaNaNaNaNaa(lp18
NaNaNaNaNaNaNaNaNaNaNaNaa(lp19
NaNaNaNaNaNaNaNaNaNaNaNaa(lp20
NaNaNaNaNaNaNaNaNaNaNaNaa(lp21
NaNaNaNaNaNaNaNaNaNaNaNaa(lp22
NaNaNaNaNaNaNaNaNaNaNaNaa(lp23
NaNaNaNaNaNaNaNaNaNaNaNaa(lp24
NaNaNaNaNaNaNaNaNaNaNaNaa(lp25
NaNaNaNaNaNaNaNaNaNaNaNaa(lp26
NaNaNaNaNaNaNaNaNaNaNaNaa(lp27
NaNaNaNaNaNaNaNaNaNaNaNaa(lp28
NaNaNaNaNaNaNaNaNaNaNaNaa(lp29
NaNaNaNaNaNaNaNaNaNaNaNaa(lp30
NaNaNaNaNaNaNaNaNaNaNaNaa(lp31
NaNaNaNaNaNaNaNaNaNaNaNaa(lp32
NaNaNaNaNaNaNaNaNaNaNaNaa(lp33
NaNaNaNaNaNaNaNaNaNaNaNaa(lp34
NaNaNaNaNaNaNaNaNaNaNaNaa(lp35
NaNaNaNaNaNaNaNaNaNaNaNaa(lp36
NaNaNaNaNaNaNaNaNaNaNaNaa(lp37
NaNaNaNaNaNaNaNaNaNaNaNaa(lp38
NaNaNaNaNaNaNaNaNaNaNaNaa(lp39
NaNaNaNaNaNaNaNaVWorm
p40
aNaNaNaa(lp41
NaNaNaNaNaNaNaNaNaNaNaNaa(lp42
NaNaNaNaNaNaNaNaNaNaNaNaa(lp43
NaNaNaNaNaNaNaVWasp
p44
aNaNaNaNaa(lp45
NaNaNaNaNaNaNaNaNaNaNaNaa(lp46
NaNaNaNaNaNaNaNaNaNaNaNaa(lp47
NaNaNaNaNaNaNaNaVWorm
p48
aNaNaNaa(lp49
NaNaNaNaNaNaNaNaNaNaNaNaa(lp50
NaNaNaNaNaNaNaNaNaNaNaNaa(lp51
NaNaNaNaNaNaNaVSpider
p52
aNaNaNaNaa(lp53
NaNaNaNaNaNaNaNaNaNaNaNaa(lp54
NaNaNaNaNaNaNaNaNaVWasp
p55
aNaNaa(lp56
NaNaNaNaNaNaNaNaNaNaVPod
p57
aNaa(lp58
NaNaNaNaNaNaNaNaNaNaNaNaa(lp59
NaNaNaNaNaNaNaNaNaNaNaNaa(lp60
NaNaNaNaNaNaNaNaNaNaNaNaa(lp61
NaNaNaNaNaNaNaNaNaNaNaNaa(lp62
NaNaNaNaNaNaNaNaNaNaNaNaa(lp63
NaNaNaNaNaNaNaNaNaNaNaNaa(lp64
NaNaNaNaNaNaNaNaNaNaNaNaa(lp65
NaNaNaNaNaNaNaNaVWasp
p66
aNaNaNaa(lp67
NaNaNaNaNaNaNaNaNaNaNaNaa(lp68
NaNaNaNaNaNaNaNaNaNaNaNaa(lp69
NaNaNaNaNaNaNaNaNaNaNaNaa(lp70
NaNaNaNaNaNaNaNaNaNaNaNaa(lp71
NaNaNaNaNaNaNaNaNaNaNaNaa(lp72
NaNaNaNaNaNaVWasp
p73
aNaNaNaNaNaa(lp74
NaNaNaNaNaNaNaNaNaNaNaNaa(lp75
NaNaNaNaNaNaNaNaNaNaNaNaa(lp76
NaNaNaNaNaNaNaNaNaNaNaNaa(lp77
NaNaNaNaNaNaNaNaNaNaNaNaa(lp78
NaNaNaNaNaNaNaNaNaNaNaNaa(lp79
NaNaNaNaNaNaVPod
p80
aNaNaNaNaNaa(lp81
NaNaNaNaNaNaNaNaNaNaNaNaa(lp82
NaNaNaNaNaNaNaNaNaNaNaNaa(lp83
NaNaNaNaNaNaVPod
p84
aNaNaNaNaNaa(lp85
NaNaNaNaNaNaNaNaNaNaNaNaa(lp86
NaNaNaNaNaNaNaNaNaNaNaNaa(lp87
NaNaNaNaNaNaNaNaNaNaNaNaa(lp88
NaNaNaNaNaNaNaNaNaNaNaNaa(lp89
NaNaNaNaNaNaNaNaNaNaNaNaa(lp90
NaNaNaNaNaNaNaNaNaNaNaNaa(lp91
NaNaNaNaNaNaNaNaNaNaNaNaa(lp92
NaNaNaNaNaNaNaNaNaNaNaNaa(lp93
NaNaNaNaNaNaVWorm
p94
aNaNaNaNaNaa(lp95
NaNaNaNaNaNaNaNaNaNaNaNaa(lp96
NaNaNaNaNaNaNaNaNaNaNaNaa(lp97
NaNaNaNaNaVWorm
p98
aNaNaNaNaNaNaa(lp99
NaNaNaNaNaNaNaNaNaNaNaNaa(lp100
NaNaNaNaNaNaNaNaNaNaNaNaa(lp101
NaNaNaNaNaNaNaNaNaNaNaNaa(lp102
NaNaNaNaVWorm
p103
aNaNaNaNaNaNaNaa(lp104
NaNaNaNaNaNaNaNaNaNaNaNaa(lp105
NaNaNaNaNaNaNaNaNaNaNaNaa(lp106
NaNaNaVWorm
p107
aNaNaNaNaNaNaNaNaa(lp108
NaNaNaNaNaNaNaNaNaNaNaNaa(lp109
NaNaVWorm
p110
aNaNaNaNaNaNaNaNaNaa(lp111
NaNaNaNaNaNaNaNaNaNaNaNaa(lp112
NaNaNaNaNaNaNaNaNaNaNaNaa(lp113
NaNaNaNaNaNaNaNaNaNaNaNaa(lp114
NaNaNaNaNaNaNaNaNaNaNaNaa(lp115
NaNaNaNaNaNaNaNaNaNaNaNaa(lp116
NaNaNaNaNaNaNaNaNaNaNaNaa(lp117
NaNaNaNaNaNaNaNaNaNaNaNaa(lp118
NaNaNaNaNaNaNaNaNaNaNaNaa(lp119
NaNaNaNaNaNaNaNaNaNaNaNaa(lp120
NaNaNaNaNaNaNaNaNaNaVWasp
p121
aNaa(lp122
NaNaNaNaNaNaNaNaNaNaNaNaa(lp123
NaNaNaNaNaNaNaNaNaNaNaNaa(lp124
NaNaNaNaNaNaNaNaNaNaNaNaa(lp125
NaNaNaNaNaNaNaNaNaNaNaNaa(lp126
NaNaNaNaNaNaNaNaNaNaNaNaa(lp127
NaNaNaNaNaNaNaNaNaNaNaNaa(lp128
NaNaNaNaNaNaNaNaNaNaNaNaa(lp129
NaNaNaNaNaNaNaNaNaNaNaNaa(lp130
NaNaNaNaNaNaNaNaNaNaNaNaa(lp131
NaNaNaNaNaNaNaNaNaNaNaNaa(lp132
NaNaNaNaNaNaNaNaNaNaNaNaa(lp133
NaNaNaNaNaNaNaNaNaNaNaNaa(lp134
NaNaNaNaNaNaNaNaNaNaNaNaa(lp135
NaNaNaNaNaNaNaNaNaNaNaNaa(lp136
NaNaNaNaNaNaNaNaNaNaNaNaa(lp137
NaNaNaNaNaNaNaNaNaNaNaNaa(lp138
NaNaNaNaNaNaNaNaNaNaNaNaa(lp139
NaNaNaNaNaNaNaNaNaNaNaNaa(lp140
NaNaNaNaNaNaNaNaNaNaNaNaa(lp141
NaNaNaNaNaNaNaNaNaNaNaNaa(lp142
NaNaNaNaNaNaNaNaNaNaNaNaa(lp143
NaNaNaNaNaNaNaNaNaNaNaNaa(lp144
NaNaNaNaNaNaNaNaNaNaNaNaa(lp145
NaNaNaNaNaNaNaNaNaNaNaNaa(lp146
NaNaNaNaNaNaNaNaNaNaNaNaa(lp147
NaNaNaNaNaNaNaNaNaNaNaNaa(lp148
NaNaNaNaNaNaNaNaNaNaNaNaasS'objdef'
p149
(dp150
VButterfly
p151
VButterfly.png
p152
sVLevel_End
p153
VEnd.png
p154
sVShield
p155
VShield.png
p156
sVPlayer_Start
p157
VStart.png
p158
sVLever_Snow
p159
VLever1.png
p160
sVTorchref
p161
VTorchref.png
p162
sVWalltorch
p163
VWalltorch.png
p164
sVFirepit
p165
VPit.png
p166
sVSign
p167
VSign.png
p168
sVButterflyC
p169
VButterflyC.png
p170
sVButterflyB
p171
VButterflyB.png
p172
sVSword
p173
VSword.png
p174
sVTreasureBoxC
p175
VTreasureC_Closed.png
p176
sVTreasureBoxB
p177
VTreasureB_Closed.png
p178
sVTreasureBox
p179
VTreasure_Closed.png
p180
sVFallingRock
p181
VRock.png
p182
sVObelisk_Snow
p183
VObelisk_Snow.png
p184
ssS'obj'
p185
(lp186
(lp187
NaNaNaNaNaNaNaNaNaNaNaNaa(lp188
NaNaNaNaNaNaNaNaNaNaNaNaa(lp189
NaNaNaVButterflyC
p190
aNaNaNaVTreasureBox
p191
aNaNaNaNaa(lp192
NaNaNaNaNaNaNaNaNaNaNaNaa(lp193
NaNaNaNaNaNaNaNaNaNaNaNaa(lp194
NaNaNaNaNaNaNaNaNaNaNaNaa(lp195
NaNaNaNaVButterfly
p196
aNaNaNaNaNaNaNaa(lp197
NaNaNaNaNaNaNaNaNaNaNaNaa(lp198
NaNaNaNaNaNaNaNaNaNaNaNaa(lp199
NaNaNaNaNaNaNaNaNaNaNaNaa(lp200
NaNaNaNaNaNaNaNaNaNaNaNaa(lp201
NaVButterflyC
p202
aNaNaNaNaNaNaNaNaNaNaa(lp203
NaNaNaNaNaNaNaNaNaNaNaNaa(lp204
NaNaVPlayer_Start
p205
aNaNaNaNaNaNaNaVButterflyB
p206
aNaa(lp207
NaNaNaNaNaNaNaNaNaNaNaNaa(lp208
NaNaNaNaVButterfly
p209
aNaNaNaNaNaNaNaa(lp210
NaNaNaNaNaNaNaNaNaNaNaNaa(lp211
NaNaNaNaNaNaNaNaNaNaNaNaa(lp212
NaNaNaNaNaNaNaNaNaNaNaNaa(lp213
NaNaNaNaNaNaNaNaNaNaNaNaa(lp214
NaNaNaNaNaNaNaNaNaNaNaNaa(lp215
NaNaNaNaNaNaNaNaNaNaNaNaa(lp216
NaNaNaNaNaNaNaNaNaNaNaNaa(lp217
NaNaNaNaNaNaNaNaNaNaNaNaa(lp218
NaNaNaNaNaNaNaNaNaNaNaNaa(lp219
NaNaNaNaVButterfly
p220
aNaNaNaNaNaNaNaa(lp221
NaNaNaNaNaNaNaNaVButterflyC
p222
aNaNaNaa(lp223
NaNaNaVButterflyC
p224
aNaNaNaNaNaNaNaNaa(lp225
NaNaNaNaNaNaNaNaNaNaNaNaa(lp226
NaNaNaNaVTreasureBox
p227
aNaNaNaNaNaNaNaa(lp228
NaNaNaNaNaNaNaNaNaNaNaNaa(lp229
NaNaNaNaNaNaNaNaNaNaNaNaa(lp230
NaNaVButterflyC
p231
aNaNaNaVButterflyB
p232
aNaNaNaNaNaa(lp233
NaNaNaNaNaNaNaNaNaNaNaNaa(lp234
NaNaNaNaNaNaNaNaNaNaNaNaa(lp235
NaNaNaNaNaNaNaNaNaNaNaNaa(lp236
NaNaNaNaNaNaNaNaVButterfly
p237
aNaNaNaa(lp238
NaNaNaNaNaNaNaNaNaNaNaNaa(lp239
NaNaNaNaNaVButterfly
p240
aNaNaNaNaNaNaa(lp241
NaNaNaNaNaNaNaNaNaNaNaNaa(lp242
NaNaNaNaNaNaVButterfly
p243
aNaNaNaNaNaa(lp244
NaNaNaNaNaNaNaNaNaNaNaNaa(lp245
NaNaNaNaNaNaNaNaNaNaNaNaa(lp246
NaNaNaNaNaNaNaNaNaNaNaNaa(lp247
NaNaNaNaNaNaNaNaNaNaNaNaa(lp248
NaNaNaNaNaNaNaNaNaNaNaNaa(lp249
NaNaNaNaNaNaNaNaNaNaNaNaa(lp250
NaNaNaNaNaNaNaNaNaNaNaNaa(lp251
NaNaNaNaNaNaNaNaNaNaNaNaa(lp252
NaNaNaNaNaNaNaNaNaNaNaNaa(lp253
NaNaNaNaNaNaNaNaNaNaNaNaa(lp254
NaNaNaNaNaNaNaNaNaNaNaNaa(lp255
NaNaNaNaNaNaNaNaNaNaNaNaa(lp256
NaNaNaNaNaNaNaNaNaNaNaNaa(lp257
NaNaNaNaNaNaNaNaNaNaNaNaa(lp258
NaNaNaNaNaNaNaNaNaNaNaNaa(lp259
NaNaNaNaNaNaNaNaNaNaNaNaa(lp260
NaNaNaNaNaNaNaNaNaNaNaNaa(lp261
NaNaNaNaNaNaNaNaNaNaNaNaa(lp262
NaNaNaNaNaNaNaNaNaNaNaNaa(lp263
NaNaNaNaNaNaNaNaNaNaNaNaa(lp264
NaNaNaNaNaNaNaNaNaNaNaNaa(lp265
NaNaNaNaNaNaNaNaNaNaNaNaa(lp266
NaNaNaNaNaNaNaNaNaNaNaNaa(lp267
NaNaNaNaNaNaNaNaNaNaNaNaa(lp268
NaNaNaNaNaNaNaNaNaNaNaNaa(lp269
NaNaNaNaNaNaNaNaNaNaNaNaa(lp270
NaNaNaNaVButterfly
p271
aNaNaNaNaNaNaNaa(lp272
NaNaNaNaNaNaNaNaNaNaNaNaa(lp273
NaNaNaNaNaNaNaNaNaNaNaNaa(lp274
NaNaNaNaNaNaNaNaNaNaNaNaa(lp275
NaNaNaNaNaNaNaNaNaNaNaNaa(lp276
NaNaNaNaNaVButterflyB
p277
aNaNaNaNaNaNaa(lp278
NaNaNaNaNaNaNaNaNaNaNaNaa(lp279
NaNaNaNaNaNaNaNaNaNaNaNaa(lp280
NaNaVButterflyC
p281
aNaNaNaNaNaNaNaNaNaa(lp282
NaNaNaNaNaNaNaNaNaNaNaNaa(lp283
NaNaNaNaNaNaNaNaNaNaNaNaa(lp284
NaNaNaNaNaNaNaNaNaNaNaNaa(lp285
NaNaNaNaNaNaNaNaNaNaNaNaa(lp286
NaNaVButterflyB
p287
aNaNaNaNaNaNaNaNaNaa(lp288
NaNaNaNaNaNaNaNaNaNaNaNaa(lp289
NaNaNaNaNaNaNaNaNaNaNaNaa(lp290
NaNaNaNaVTreasureBox
p291
aNaNaNaNaNaNaNaa(lp292
NaNaVButterfly
p293
aNaNaNaNaNaNaNaNaNaa(lp294
NaNaNaNaNaNaNaNaNaNaNaNaa(lp295
NaNaNaNaNaNaNaNaNaNaNaNaa(lp296
NaNaNaNaNaNaNaNaNaNaNaNaa(lp297
NaNaNaNaNaNaNaNaNaNaNaNaa(lp298
NaNaNaNaNaNaNaNaNaNaNaNaa(lp299
NaNaNaNaNaNaNaNaNaNaNaNaa(lp300
NaNaNaNaNaNaNaNaNaNaNaNaa(lp301
NaNaNaNaNaNaNaNaNaNaNaNaa(lp302
NaNaNaNaNaNaNaNaNaNaNaNaa(lp303
NaNaNaVButterfly
p304
aNaNaNaNaNaNaNaNaa(lp305
NaNaNaNaNaNaNaNaNaNaNaNaa(lp306
NaNaNaNaNaNaNaNaNaNaVButterfly
p307
aNaa(lp308
NaNaNaNaNaNaNaNaNaNaNaNaa(lp309
NaNaNaNaNaNaNaNaNaNaNaNaa(lp310
NaNaNaNaNaVButterflyC
p311
aNaNaNaNaNaNaa(lp312
NaNaNaNaNaNaNaNaNaNaNaNaa(lp313
NaNaNaNaNaNaNaNaNaNaNaNaa(lp314
NaNaNaNaNaNaVButterfly
p315
aNaNaNaNaNaa(lp316
NaNaNaNaNaNaNaNaNaNaNaNaa(lp317
NaNaNaNaNaNaNaNaNaVLevel_End
p318
aNaNaa(lp319
NaNaNaNaNaNaNaNaNaNaNaNaa(lp320
NaNaNaNaNaNaVButterflyC
p321
aNaNaNaNaNaa(lp322
NaNaNaNaNaNaVButterflyC
p323
aNaNaNaNaNaa(lp324
NaNaNaNaNaNaNaNaNaNaNaNaa(lp325
NaNaNaNaNaNaNaNaNaNaNaNaa(lp326
NaNaNaNaNaNaNaNaNaNaNaNaa(lp327
NaNaNaNaNaNaNaNaNaNaNaNaa(lp328
NaNaNaNaNaNaNaNaNaNaNaNaa(lp329
NaNaNaNaNaNaNaNaNaNaNaNaa(lp330
NaNaNaNaNaNaNaNaNaNaNaNaa(lp331
NaNaNaNaNaNaNaNaNaNaNaNaa(lp332
NaNaNaNaNaNaNaNaNaNaNaNaa(lp333
NaNaNaNaNaNaNaNaNaNaNaNaa(lp334
NaNaNaNaNaNaNaNaNaNaNaNaa(lp335
NaNaNaNaNaNaNaNaNaNaNaNaa(lp336
NaNaNaNaNaNaNaNaNaNaNaNaa(lp337
NaNaNaNaNaNaNaNaNaNaNaNaa(lp338
NaNaNaNaNaNaNaNaNaNaNaNaa(lp339
NaNaNaNaNaNaNaNaNaNaNaNaa(lp340
NaNaNaNaNaNaNaNaNaNaNaNaa(lp341
NaNaNaNaNaNaNaNaNaNaNaNaa(lp342
NaNaNaNaNaNaNaNaNaNaNaNaa(lp343
NaNaNaNaNaNaNaNaNaNaNaNaasS'name'
p344
Vsempridge4
p345
sS'map'
p346
(lp347
(lp348
NaNaNaNa(imapping
Tile
p349
(dp350
S'collidetype'
p351
S'BOX'
p352
sS'type'
p353
VF_GrassRedge
p354
sS'friction'
p355
F1
sS'overhead'
p356
I00
sba(imapping
Tile
p357
(dp358
g351
g352
sg353
VF_Dirt_R1
p359
sg355
F1
sg356
I00
sba(imapping
Tile
p360
(dp361
g351
g352
sg353
VF_Dirt_R2
p362
sg355
F1
sg356
I00
sba(imapping
Tile
p363
(dp364
g351
g352
sg353
VF_Dirt_R1
p365
sg355
F1
sg356
I00
sba(imapping
Tile
p366
(dp367
g351
g352
sg353
VF_Grass->DirtR
p368
sg355
F1
sg356
I00
sba(imapping
Tile
p369
(dp370
g351
g352
sg353
VF_Dirt
p371
sg355
F1
sg356
I00
sba(imapping
Tile
p372
(dp373
g351
g352
sg353
VF_Dirt_Alt_1
p374
sg355
F1
sg356
I00
sba(imapping
Tile
p375
(dp376
g351
g352
sg353
VF_Dirt_Alt_3
p377
sg355
F1
sg356
I00
sbaa(lp378
NaNaNaNaNaNaNaNa(imapping
Tile
p379
(dp380
g351
g352
sg353
VF_Grass
p381
sg355
F1
sg356
I00
sba(imapping
Tile
p382
(dp383
g351
g352
sg353
VF_Dirt_Alt_4
p384
sg355
F1
sg356
I00
sba(imapping
Tile
p385
(dp386
g351
g352
sg353
VF_Dirt
p387
sg355
F1
sg356
I00
sba(imapping
Tile
p388
(dp389
g351
g352
sg353
VF_Dirt
p390
sg355
F1
sg356
I00
sbaa(lp391
NaNaNaNaNaNaNaNa(imapping
Tile
p392
(dp393
g351
g352
sg353
VF_Grass_Alt_3
p394
sg355
F1
sg356
I00
sba(imapping
Tile
p395
(dp396
g351
g352
sg353
VF_Dirt
p397
sg355
F1
sg356
I00
sba(imapping
Tile
p398
(dp399
g351
g352
sg353
VF_Dirt_Alt_3
p400
sg355
F1
sg356
I00
sba(imapping
Tile
p401
(dp402
g351
g352
sg353
VF_Dirt
p403
sg355
F1
sg356
I00
sbaa(lp404
NaNaNaNaNaNaNa(imapping
Tile
p405
(dp406
g351
S'NONE_R'
p407
sg353
VF_Stump
p408
sg355
F1
sg356
I00
sba(imapping
Tile
p409
(dp410
g351
g352
sg353
VF_Grass_Alt_4
p411
sg355
F1
sg356
I00
sba(imapping
Tile
p412
(dp413
g351
g352
sg353
VF_Dirt
p414
sg355
F1
sg356
I00
sba(imapping
Tile
p415
(dp416
g351
g352
sg353
VF_Dirt
p417
sg355
F1
sg356
I00
sba(imapping
Tile
p418
(dp419
g351
g352
sg353
VF_Dirt
p420
sg355
F1
sg356
I00
sbaa(lp421
NaNaNaNaNaNaNaNa(imapping
Tile
p422
(dp423
g351
g352
sg353
VF_GrassRedge
p424
sg355
F1
sg356
I00
sba(imapping
Tile
p425
(dp426
g351
g352
sg353
VF_Dirt_R1
p427
sg355
F1
sg356
I00
sba(imapping
Tile
p428
(dp429
g351
g352
sg353
VF_Dirt_R2
p430
sg355
F1
sg356
I00
sba(imapping
Tile
p431
(dp432
g351
g352
sg353
VF_Grass->DirtR
p433
sg355
F1
sg356
I00
sbaa(lp434
NaNaNaNaNaNaNaNaNaNaNa(imapping
Tile
p435
(dp436
g351
g352
sg353
VF_Grass->Dirttop
p437
sg355
F1
sg356
I00
sbaa(lp438
NaNaNaNaNaNaNaNaNaNaNa(imapping
Tile
p439
(dp440
g351
g352
sg353
VF_Dirttop
p441
sg355
F1
sg356
I00
sbaa(lp442
NaNaNaNaNaNaNaNaNaNaNa(imapping
Tile
p443
(dp444
g351
g352
sg353
VF_Dirttop->Grass
p445
sg355
F1
sg356
I00
sbaa(lp446
NaNa(imapping
Tile
p447
(dp448
g351
S'NONE'
p449
sg353
VF_Tuft2
p450
sg355
F1
sg356
I00
sba(imapping
Tile
p451
(dp452
g351
g352
sg353
VF_GrassLedge
p453
sg355
F1
sg356
I00
sba(imapping
Tile
p454
(dp455
g351
g352
sg353
VF_Dirt_L2
p456
sg355
F1
sg356
I00
sba(imapping
Tile
p457
(dp458
g351
g352
sg353
VF_Dirt_L2
p459
sg355
F1
sg356
I00
sba(imapping
Tile
p460
(dp461
g351
g352
sg353
VF_Dirt_L1
p462
sg355
F1
sg356
I00
sba(imapping
Tile
p463
(dp464
g351
g352
sg353
VF_Dirt_L2
p465
sg355
F1
sg356
I00
sba(imapping
Tile
p466
(dp467
g351
g352
sg353
VF_Dirt_BL
p468
sg355
F1
sg356
I00
sbaNa(imapping
Tile
p469
(dp470
g351
g407
sg353
VF_Shrooms3
p471
sg355
F1
sg356
I00
sba(imapping
Tile
p472
(dp473
g351
g352
sg353
VF_Grass
p474
sg355
F1
sg356
I00
sbaa(lp475
NaNa(imapping
Tile
p476
(dp477
g351
g449
sg353
VF_Tuft1
p478
sg355
F1
sg356
I00
sba(imapping
Tile
p479
(dp480
g351
g352
sg353
VF_Grass_Alt_1
p481
sg355
F1
sg356
I00
sba(imapping
Tile
p482
(dp483
g351
g352
sg353
VF_Dirt_Alt_3
p484
sg355
F1
sg356
I00
sba(imapping
Tile
p485
(dp486
g351
g352
sg353
VF_Dirt
p487
sg355
F1
sg356
I00
sba(imapping
Tile
p488
(dp489
g351
g352
sg353
VF_Dirt
p490
sg355
F1
sg356
I00
sba(imapping
Tile
p491
(dp492
g351
g352
sg353
VF_Dirt
p493
sg355
F1
sg356
I00
sba(imapping
Tile
p494
(dp495
g351
g352
sg353
VF_Dirtb
p496
sg355
F1
sg356
I00
sbaNaNa(imapping
Tile
p497
(dp498
g351
g352
sg353
VF_Grass
p499
sg355
F1
sg356
I00
sbaa(lp500
NaNa(imapping
Tile
p501
(dp502
g351
g449
sg353
VF_Tuft2
p503
sg355
F1
sg356
I00
sba(imapping
Tile
p504
(dp505
g351
g352
sg353
VF_Grass_Alt_2
p506
sg355
F1
sg356
I00
sba(imapping
Tile
p507
(dp508
g351
g352
sg353
VF_Dirt
p509
sg355
F1
sg356
I00
sba(imapping
Tile
p510
(dp511
g351
g352
sg353
VF_Dirt_Alt_1
p512
sg355
F1
sg356
I00
sba(imapping
Tile
p513
(dp514
g351
g352
sg353
VF_Dirt
p515
sg355
F1
sg356
I00
sba(imapping
Tile
p516
(dp517
g351
g352
sg353
VF_Dirt_Alt_3
p518
sg355
F1
sg356
I00
sba(imapping
Tile
p519
(dp520
g351
g352
sg353
VF_Dirtb2
p521
sg355
F1
sg356
I00
sbaNaNa(imapping
Tile
p522
(dp523
g351
g352
sg353
VF_Grass_Alt_2
p524
sg355
F1
sg356
I00
sbaa(lp525
NaNa(imapping
Tile
p526
(dp527
g351
g449
sg353
VF_Tuft1
p528
sg355
F1
sg356
I00
sba(imapping
Tile
p529
(dp530
g351
g352
sg353
VF_Grass_Alt_3
p531
sg355
F1
sg356
I00
sba(imapping
Tile
p532
(dp533
g351
g352
sg353
VF_Dirt
p534
sg355
F1
sg356
I00
sba(imapping
Tile
p535
(dp536
g351
g352
sg353
VF_Dirt
p537
sg355
F1
sg356
I00
sba(imapping
Tile
p538
(dp539
g351
g352
sg353
VF_Dirt_Alt_4
p540
sg355
F1
sg356
I00
sba(imapping
Tile
p541
(dp542
g351
g352
sg353
VF_Dirt
p543
sg355
F1
sg356
I00
sba(imapping
Tile
p544
(dp545
g351
g352
sg353
VF_Dirtb
p546
sg355
F1
sg356
I00
sbaNa(imapping
Tile
p547
(dp548
g351
g449
sg353
VF_Tuft2
p549
sg355
F1
sg356
I00
sba(imapping
Tile
p550
(dp551
g351
g352
sg353
VF_Grass_Alt_1
p552
sg355
F1
sg356
I00
sbaa(lp553
NaNa(imapping
Tile
p554
(dp555
g351
g449
sg353
VF_Tuft2
p556
sg355
F1
sg356
I00
sba(imapping
Tile
p557
(dp558
g351
g352
sg353
VF_Grass_Alt_1
p559
sg355
F1
sg356
I00
sba(imapping
Tile
p560
(dp561
g351
g352
sg353
VF_Dirt
p562
sg355
F1
sg356
I00
sba(imapping
Tile
p563
(dp564
g351
g352
sg353
VF_Dirt_Alt_4
p565
sg355
F1
sg356
I00
sba(imapping
Tile
p566
(dp567
g351
g352
sg353
VF_Dirt
p568
sg355
F1
sg356
I00
sba(imapping
Tile
p569
(dp570
g351
g352
sg353
VF_Dirt
p571
sg355
F1
sg356
I00
sba(imapping
Tile
p572
(dp573
g351
g352
sg353
VF_Dirtb2
p574
sg355
F1
sg356
I00
sbaNa(imapping
Tile
p575
(dp576
g351
g449
sg353
VF_Tuft1
p577
sg355
F1
sg356
I00
sba(imapping
Tile
p578
(dp579
g351
g352
sg353
VF_Grass
p580
sg355
F1
sg356
I00
sbaa(lp581
NaNaNa(imapping
Tile
p582
(dp583
g351
g352
sg353
VF_Grass_Alt_1
p584
sg355
F1
sg356
I00
sba(imapping
Tile
p585
(dp586
g351
g352
sg353
VF_Dirt
p587
sg355
F1
sg356
I00
sba(imapping
Tile
p588
(dp589
g351
g352
sg353
VF_Dirt
p590
sg355
F1
sg356
I00
sba(imapping
Tile
p591
(dp592
g351
g352
sg353
VF_Dirt
p593
sg355
F1
sg356
I00
sba(imapping
Tile
p594
(dp595
g351
g352
sg353
VF_Dirt
p596
sg355
F1
sg356
I00
sba(imapping
Tile
p597
(dp598
g351
g352
sg353
VF_Dirtb
p599
sg355
F1
sg356
I00
sbaNaNa(imapping
Tile
p600
(dp601
g351
g352
sg353
VF_Grass_Alt_3
p602
sg355
F1
sg356
I00
sbaa(lp603
NaNaNa(imapping
Tile
p604
(dp605
g351
g352
sg353
VF_GrassRedge
p606
sg355
F1
sg356
I00
sba(imapping
Tile
p607
(dp608
g351
g352
sg353
VF_Dirt_R1
p609
sg355
F1
sg356
I00
sba(imapping
Tile
p610
(dp611
g351
g352
sg353
VF_Dirt_R2
p612
sg355
F1
sg356
I00
sba(imapping
Tile
p613
(dp614
g351
g352
sg353
VF_Dirt_R1
p615
sg355
F1
sg356
I00
sba(imapping
Tile
p616
(dp617
g351
g352
sg353
VF_Dirt_R2
p618
sg355
F1
sg356
I00
sba(imapping
Tile
p619
(dp620
g351
g352
sg353
VF_Dirt_BR
p621
sg355
F1
sg356
I00
sbaNaNa(imapping
Tile
p622
(dp623
g351
g352
sg353
VF_Grass_Alt_4
p624
sg355
F1
sg356
I00
sbaa(lp625
NaNaNaNaNaNaNaNaNaNaNa(imapping
Tile
p626
(dp627
g351
g352
sg353
VF_Grass
p628
sg355
F1
sg356
I00
sbaa(lp629
NaNaNa(imapping
Tile
p630
(dp631
g351
g352
sg353
VF_GrassLedge
p632
sg355
F1
sg356
I00
sba(imapping
Tile
p633
(dp634
g351
g352
sg353
VF_Dirt_L2
p635
sg355
F1
sg356
I00
sba(imapping
Tile
p636
(dp637
g351
g352
sg353
VF_Dirt_L2
p638
sg355
F1
sg356
I00
sba(imapping
Tile
p639
(dp640
g351
g352
sg353
VF_Dirt_L2
p641
sg355
F1
sg356
I00
sba(imapping
Tile
p642
(dp643
g351
g352
sg353
VF_Dirt_L2
p644
sg355
F1
sg356
I00
sba(imapping
Tile
p645
(dp646
g351
g352
sg353
VF_Dirt_BL
p647
sg355
F1
sg356
I00
sbaNa(imapping
Tile
p648
(dp649
g351
g449
sg353
VF_Shrooms2
p650
sg355
F1
sg356
I00
sba(imapping
Tile
p651
(dp652
g351
g352
sg353
VF_Grass
p653
sg355
F1
sg356
I00
sbaa(lp654
NaNa(imapping
Tile
p655
(dp656
g351
g407
sg353
VF_Shrooms3
p657
sg355
F1
sg356
I00
sba(imapping
Tile
p658
(dp659
g351
g352
sg353
VF_GrassRedge
p660
sg355
F1
sg356
I00
sba(imapping
Tile
p661
(dp662
g351
g352
sg353
VF_Dirt_R2
p663
sg355
F1
sg356
I00
sba(imapping
Tile
p664
(dp665
g351
g352
sg353
VF_Dirt_R2
p666
sg355
F1
sg356
I00
sba(imapping
Tile
p667
(dp668
g351
g352
sg353
VF_Dirt_R2
p669
sg355
F1
sg356
I00
sba(imapping
Tile
p670
(dp671
g351
g352
sg353
VF_Dirt_R2
p672
sg355
F1
sg356
I00
sba(imapping
Tile
p673
(dp674
g351
g352
sg353
VF_Dirt_BR
p675
sg355
F1
sg356
I00
sbaNaNa(imapping
Tile
p676
(dp677
g351
g352
sg353
VF_Grass_Alt_3
p678
sg355
F1
sg356
I00
sbaa(lp679
NaNaNaNaNaNaNaNaNaNaNa(imapping
Tile
p680
(dp681
g351
g352
sg353
VF_Grass
p682
sg355
F1
sg356
I00
sbaa(lp683
NaNaNaNaNaNaNaNaNaNaNa(imapping
Tile
p684
(dp685
g351
g352
sg353
VF_Grass_Alt_3
p686
sg355
F1
sg356
I00
sbaa(lp687
NaNaNaNa(imapping
Tile
p688
(dp689
g351
g352
sg353
VF_GrassLedge
p690
sg355
F1
sg356
I00
sba(imapping
Tile
p691
(dp692
g351
g352
sg353
VF_Dirt_L1
p693
sg355
F1
sg356
I00
sba(imapping
Tile
p694
(dp695
g351
g352
sg353
VF_Dirt_L1
p696
sg355
F1
sg356
I00
sba(imapping
Tile
p697
(dp698
g351
g352
sg353
VF_Dirt_L1
p699
sg355
F1
sg356
I00
sba(imapping
Tile
p700
(dp701
g351
g352
sg353
VF_Dirt_BL
p702
sg355
F1
sg356
I00
sbaNaNa(imapping
Tile
p703
(dp704
g351
g352
sg353
VF_Grass
p705
sg355
F1
sg356
I00
sbaa(lp706
NaNaNaNa(imapping
Tile
p707
(dp708
g351
g352
sg353
VF_Grass_Alt_3
p709
sg355
F1
sg356
I00
sba(imapping
Tile
p710
(dp711
g351
g352
sg353
VF_Dirt
p712
sg355
F1
sg356
I00
sba(imapping
Tile
p713
(dp714
g351
g352
sg353
VF_Dirt_Alt_3
p715
sg355
F1
sg356
I00
sba(imapping
Tile
p716
(dp717
g351
g352
sg353
VF_Dirt
p718
sg355
F1
sg356
I00
sba(imapping
Tile
p719
(dp720
g351
g352
sg353
VF_Dirtb
p721
sg355
F1
sg356
I00
sbaNaNa(imapping
Tile
p722
(dp723
g351
g352
sg353
VF_Grass
p724
sg355
F1
sg356
I00
sbaa(lp725
NaNaNaNa(imapping
Tile
p726
(dp727
g351
S'LEFT_INCLINATION'
p728
sg353
VF_Left_Ramp
p729
sg355
F1
sg356
I00
sba(imapping
Tile
p730
(dp731
g351
g352
sg353
VF_HalframpJoinL
p732
sg355
F1
sg356
I00
sba(imapping
Tile
p733
(dp734
g351
g352
sg353
VF_Dirt_Alt_1
p735
sg355
F1
sg356
I00
sba(imapping
Tile
p736
(dp737
g351
g352
sg353
VF_Dirt_Alt_4
p738
sg355
F1
sg356
I00
sba(imapping
Tile
p739
(dp740
g351
g352
sg353
VF_Dirtb
p741
sg355
F1
sg356
I00
sbaNaNa(imapping
Tile
p742
(dp743
g351
g352
sg353
VF_Grass
p744
sg355
F1
sg356
I00
sbaa(lp745
NaNaNaNaNa(imapping
Tile
p746
(dp747
g351
g728
sg353
VF_Left_Ramp
p748
sg355
F1
sg356
I00
sba(imapping
Tile
p749
(dp750
g351
g352
sg353
VF_HalframpJoinL
p751
sg355
F1
sg356
I00
sba(imapping
Tile
p752
(dp753
g351
g352
sg353
VF_Dirt
p754
sg355
F1
sg356
I00
sba(imapping
Tile
p755
(dp756
g351
g352
sg353
VF_Dirtb
p757
sg355
F1
sg356
I00
sbaNa(imapping
Tile
p758
(dp759
g351
g407
sg353
VF_Stump
p760
sg355
F1
sg356
I00
sba(imapping
Tile
p761
(dp762
g351
g352
sg353
VF_Grass
p763
sg355
F1
sg356
I00
sbaa(lp764
NaNaNaNaNaNa(imapping
Tile
p765
(dp766
g351
g728
sg353
VF_Left_Ramp
p767
sg355
F1
sg356
I00
sba(imapping
Tile
p768
(dp769
g351
g352
sg353
VF_RampJoinL
p770
sg355
F1
sg356
I00
sba(imapping
Tile
p771
(dp772
g351
g352
sg353
VF_Dirtb
p773
sg355
F1
sg356
I00
sbaNaNa(imapping
Tile
p774
(dp775
g351
g352
sg353
VF_Grass_Alt_4
p776
sg355
F1
sg356
I00
sbaa(lp777
NaNaNaNaNaNa(imapping
Tile
p778
(dp779
g351
g449
sg353
VF_Shrooms2
p780
sg355
F1
sg356
I00
sba(imapping
Tile
p781
(dp782
g351
g352
sg353
VF_GrassRedge
p783
sg355
F1
sg356
I00
sba(imapping
Tile
p784
(dp785
g351
g352
sg353
VF_Dirt_BR
p786
sg355
F1
sg356
I00
sbaNa(imapping
Tile
p787
(dp788
g351
g407
sg353
VF_Shrooms1
p789
sg355
F1
sg356
I00
sba(imapping
Tile
p790
(dp791
g351
g352
sg353
VF_Grass
p792
sg355
F1
sg356
I00
sbaa(lp793
NaNaNaNaNaNaNaNaNaNa(imapping
Tile
p794
(dp795
g351
g407
sg353
VF_Shrooms1
p796
sg355
F1
sg356
I00
sba(imapping
Tile
p797
(dp798
g351
g352
sg353
VF_Grass_Alt_3
p799
sg355
F1
sg356
I00
sbaa(lp800
NaNaNaNaNaNaNaNaNaNa(imapping
Tile
p801
(dp802
g351
g449
sg353
VF_Shrooms2
p803
sg355
F1
sg356
I00
sba(imapping
Tile
p804
(dp805
g351
g352
sg353
VF_Grass
p806
sg355
F1
sg356
I00
sbaa(lp807
NaNaNaNaNa(imapping
Tile
p808
(dp809
g351
g352
sg353
VF_GrassLedge
p810
sg355
F1
sg356
I00
sba(imapping
Tile
p811
(dp812
g351
g352
sg353
VF_Dirt_BL
p813
sg355
F1
sg356
I00
sbaNaNaNa(imapping
Tile
p814
(dp815
g351
S'RIGHT_INCLINATION'
p816
sg353
VF_Right_Ramp
p817
sg355
F1
sg356
I00
sba(imapping
Tile
p818
(dp819
g351
g352
sg353
VF_RampJoinR
p820
sg355
F1
sg356
I00
sbaa(lp821
NaNaNaNaNa(imapping
Tile
p822
(dp823
g351
g352
sg353
VF_Grass_Alt_4
p824
sg355
F1
sg356
I00
sba(imapping
Tile
p825
(dp826
g351
g352
sg353
VF_Dirtb
p827
sg355
F1
sg356
I00
sbaNaNa(imapping
Tile
p828
(dp829
g351
g816
sg353
VF_Right_Ramp
p830
sg355
F1
sg356
I00
sba(imapping
Tile
p831
(dp832
g351
g352
sg353
VF_RampJoinR
p833
sg355
F1
sg356
I00
sba(imapping
Tile
p834
(dp835
g351
g352
sg353
VF_Dirt
p836
sg355
F1
sg356
I00
sbaa(lp837
NaNaNaNa(imapping
Tile
p838
(dp839
g351
g449
sg353
VF_Shrooms2
p840
sg355
F1
sg356
I00
sba(imapping
Tile
p841
(dp842
g351
g352
sg353
VF_GrassRedge
p843
sg355
F1
sg356
I00
sba(imapping
Tile
p844
(dp845
g351
g352
sg353
VF_Dirt_BR
p846
sg355
F1
sg356
I00
sbaNa(imapping
Tile
p847
(dp848
g351
g407
sg353
VF_Shrooms1
p849
sg355
F1
sg356
I00
sba(imapping
Tile
p850
(dp851
g351
g352
sg353
VF_Grass
p852
sg355
F1
sg356
I00
sba(imapping
Tile
p853
(dp854
g351
g352
sg353
VF_Dirt
p855
sg355
F1
sg356
I00
sba(imapping
Tile
p856
(dp857
g351
g352
sg353
VF_Dirt
p858
sg355
F1
sg356
I00
sbaa(lp859
NaNaNaNaNaNaNaNaNa(imapping
Tile
p860
(dp861
g351
g352
sg353
VF_Grass->Dirttop
p862
sg355
F1
sg356
I00
sba(imapping
Tile
p863
(dp864
g351
g352
sg353
VF_Dirt
p865
sg355
F1
sg356
I00
sba(imapping
Tile
p866
(dp867
g351
g352
sg353
VF_Dirt
p868
sg355
F1
sg356
I00
sbaa(lp869
NaNaNaNaNaNaNaNaNa(imapping
Tile
p870
(dp871
g351
g352
sg353
VF_Dirttop
p872
sg355
F1
sg356
I00
sba(imapping
Tile
p873
(dp874
g351
g352
sg353
VF_Dirt
p875
sg355
F1
sg356
I00
sba(imapping
Tile
p876
(dp877
g351
g352
sg353
VF_Dirt_Alt_1
p878
sg355
F1
sg356
I00
sbaa(lp879
NaNaNaNaNaNaNaNa(imapping
Tile
p880
(dp881
g351
g407
sg353
VF_Shrooms1
p882
sg355
F1
sg356
I00
sba(imapping
Tile
p883
(dp884
g351
g352
sg353
VF_Dirttop
p885
sg355
F1
sg356
I00
sba(imapping
Tile
p886
(dp887
g351
g352
sg353
VF_Dirt
p888
sg355
F1
sg356
I00
sba(imapping
Tile
p889
(dp890
g351
g352
sg353
VF_Dirt_Alt_3
p891
sg355
F1
sg356
I00
sbaa(lp892
NaNaNaNaNaNaNaNaNa(imapping
Tile
p893
(dp894
g351
g352
sg353
VF_Dirttop
p895
sg355
F1
sg356
I00
sba(imapping
Tile
p896
(dp897
g351
g352
sg353
VF_Dirt
p898
sg355
F1
sg356
I00
sba(imapping
Tile
p899
(dp900
g351
g352
sg353
VF_Dirt
p901
sg355
F1
sg356
I00
sbaa(lp902
NaNaNaNaNaNaNaNaNa(imapping
Tile
p903
(dp904
g351
g352
sg353
VF_Dirttop
p905
sg355
F1
sg356
I00
sba(imapping
Tile
p906
(dp907
g351
g352
sg353
VF_Dirt
p908
sg355
F1
sg356
I00
sba(imapping
Tile
p909
(dp910
g351
g352
sg353
VF_Dirt
p911
sg355
F1
sg356
I00
sbaa(lp912
NaNaNaNaNaNaNaNaNa(imapping
Tile
p913
(dp914
g351
g352
sg353
VF_Dirttop
p915
sg355
F1
sg356
I00
sba(imapping
Tile
p916
(dp917
g351
g352
sg353
VF_Dirt
p918
sg355
F1
sg356
I00
sba(imapping
Tile
p919
(dp920
g351
g352
sg353
VF_Dirt_Alt_3
p921
sg355
F1
sg356
I00
sbaa(lp922
NaNaNaNaNaNaNaNaNa(imapping
Tile
p923
(dp924
g351
g352
sg353
VF_Dirttop
p925
sg355
F1
sg356
I00
sba(imapping
Tile
p926
(dp927
g351
g352
sg353
VF_Dirt
p928
sg355
F1
sg356
I00
sba(imapping
Tile
p929
(dp930
g351
g352
sg353
VF_Dirt
p931
sg355
F1
sg356
I00
sbaa(lp932
NaNaNaNaNaNaNaNaNa(imapping
Tile
p933
(dp934
g351
g352
sg353
VF_Dirttop
p935
sg355
F1
sg356
I00
sba(imapping
Tile
p936
(dp937
g351
g352
sg353
VF_Dirt_Alt_1
p938
sg355
F1
sg356
I00
sba(imapping
Tile
p939
(dp940
g351
g352
sg353
VF_Dirt
p941
sg355
F1
sg356
I00
sbaa(lp942
NaNaNaNaNaNaNaNaNa(imapping
Tile
p943
(dp944
g351
g352
sg353
VF_Dirttop
p945
sg355
F1
sg356
I00
sba(imapping
Tile
p946
(dp947
g351
g352
sg353
VF_Dirt
p948
sg355
F1
sg356
I00
sba(imapping
Tile
p949
(dp950
g351
g352
sg353
VF_Dirt
p951
sg355
F1
sg356
I00
sbaa(lp952
NaNaNaNaNaNaNaNaNa(imapping
Tile
p953
(dp954
g351
g352
sg353
VF_Dirttop
p955
sg355
F1
sg356
I00
sba(imapping
Tile
p956
(dp957
g351
g352
sg353
VF_Dirt
p958
sg355
F1
sg356
I00
sba(imapping
Tile
p959
(dp960
g351
g352
sg353
VF_Dirt
p961
sg355
F1
sg356
I00
sbaa(lp962
NaNaNaNaNaNaNaNaNa(imapping
Tile
p963
(dp964
g351
g352
sg353
VF_Dirttop
p965
sg355
F1
sg356
I00
sba(imapping
Tile
p966
(dp967
g351
g352
sg353
VF_Dirt_Alt_4
p968
sg355
F1
sg356
I00
sba(imapping
Tile
p969
(dp970
g351
g352
sg353
VF_Dirt
p971
sg355
F1
sg356
I00
sbaa(lp972
NaNaNaNaNaNaNaNaNa(imapping
Tile
p973
(dp974
g351
g352
sg353
VF_Dirttop->Grass
p975
sg355
F1
sg356
I00
sba(imapping
Tile
p976
(dp977
g351
g352
sg353
VF_Dirt
p978
sg355
F1
sg356
I00
sba(imapping
Tile
p979
(dp980
g351
g352
sg353
VF_Dirt
p981
sg355
F1
sg356
I00
sbaa(lp982
NaNaNaNaNaNaNaNaNa(imapping
Tile
p983
(dp984
g351
g352
sg353
VF_GrassRedge
p985
sg355
F1
sg356
I00
sba(imapping
Tile
p986
(dp987
g351
g352
sg353
VF_Dirt_R1
p988
sg355
F1
sg356
I00
sba(imapping
Tile
p989
(dp990
g351
g352
sg353
VF_Dirt_R1
p991
sg355
F1
sg356
I00
sbaa(lp992
NaNaNaNaNaNaNaNaNaNaNaNaa(lp993
NaNaNaNaNaNaNaNaNaNaNaNaa(lp994
NaNaNaNaNaNaNaNaNaNaNa(imapping
Tile
p995
(dp996
g351
g352
sg353
VF_GrassLedge
p997
sg355
F1
sg356
I00
sbaa(lp998
NaNaNaNaNaNaNaNaNaNaNa(imapping
Tile
p999
(dp1000
g351
g352
sg353
VF_Grass_Alt_1
p1001
sg355
F1
sg356
I00
sbaa(lp1002
NaNaNaNaNaNaNaNaNaNa(imapping
Tile
p1003
(dp1004
g351
g449
sg353
VF_Tuft2
p1005
sg355
F1
sg356
I00
sba(imapping
Tile
p1006
(dp1007
g351
g352
sg353
VF_Grass_Alt_2
p1008
sg355
F1
sg356
I00
sbaa(lp1009
NaNaNaNaNaNaNaNaNaNa(imapping
Tile
p1010
(dp1011
g351
g407
sg353
VF_Shrooms1
p1012
sg355
F1
sg356
I00
sba(imapping
Tile
p1013
(dp1014
g351
g352
sg353
VF_Grass_Alt_5
p1015
sg355
F1
sg356
I00
sbaa(lp1016
NaNaNaNaNaNaNaNaNaNa(imapping
Tile
p1017
(dp1018
g351
g407
sg353
VF_Stump
p1019
sg355
F1
sg356
I00
sba(imapping
Tile
p1020
(dp1021
g351
g352
sg353
VF_Grass_Alt_3
p1022
sg355
F1
sg356
I00
sbaa(lp1023
NaNaNaNaNaNaNaNaNaNaNa(imapping
Tile
p1024
(dp1025
g351
g352
sg353
VF_GrassRedge
p1026
sg355
F1
sg356
I00
sbaa(lp1027
NaNaNaNaNaNaNaNaNa(imapping
Tile
p1028
(dp1029
g351
g449
sg353
VF_Tuft2
p1030
sg355
F1
sg356
I00
sba(imapping
Tile
p1031
(dp1032
g351
g352
sg353
VF_GrassLedge
p1033
sg355
F1
sg356
I00
sba(imapping
Tile
p1034
(dp1035
g351
g352
sg353
VF_Dirt_BL
p1036
sg355
F1
sg356
I00
sbaa(lp1037
NaNaNaNaNaNaNaNaNaNa(imapping
Tile
p1038
(dp1039
g351
g352
sg353
VF_GrassRedge
p1040
sg355
F1
sg356
I00
sba(imapping
Tile
p1041
(dp1042
g351
g352
sg353
VF_Dirt_BR
p1043
sg355
F1
sg356
I00
sbaa(lp1044
NaNaNaNaNaNaNaNaNaNaNaNaa(lp1045
NaNaNaNaNaNaNaNaNa(imapping
Tile
p1046
(dp1047
g351
g352
sg353
VF_GrassLedge
p1048
sg355
F1
sg356
I00
sba(imapping
Tile
p1049
(dp1050
g351
g352
sg353
VF_Dirt_BL
p1051
sg355
F1
sg356
I00
sbaNaa(lp1052
NaNaNaNaNaNaNaNaNa(imapping
Tile
p1053
(dp1054
g351
g352
sg353
VF_GrassRedge
p1055
sg355
F1
sg356
I00
sba(imapping
Tile
p1056
(dp1057
g351
g352
sg353
VF_Dirt_BR
p1058
sg355
F1
sg356
I00
sbaNaa(lp1059
NaNaNaNaNaNaNaNaNaNaNaNaa(lp1060
NaNaNaNaNaNaNaNa(imapping
Tile
p1061
(dp1062
g351
g352
sg353
VF_GrassLedge
p1063
sg355
F1
sg356
I00
sba(imapping
Tile
p1064
(dp1065
g351
g352
sg353
VF_Dirt_BL
p1066
sg355
F1
sg356
I00
sbaNaNaa(lp1067
NaNaNaNaNaNaNaNa(imapping
Tile
p1068
(dp1069
g351
g352
sg353
VF_GrassRedge
p1070
sg355
F1
sg356
I00
sba(imapping
Tile
p1071
(dp1072
g351
g352
sg353
VF_Dirt_BR
p1073
sg355
F1
sg356
I00
sbaNaNaa(lp1074
NaNaNaNaNaNaNaNaNaNaNaNaa(lp1075
NaNaNaNaNaNaNa(imapping
Tile
p1076
(dp1077
g351
g352
sg353
VF_GrassLedge
p1078
sg355
F1
sg356
I00
sba(imapping
Tile
p1079
(dp1080
g351
g352
sg353
VF_Dirt_BL
p1081
sg355
F1
sg356
I00
sbaNaNaNaa(lp1082
NaNaNaNaNaNa(imapping
Tile
p1083
(dp1084
g351
g449
sg353
VF_Tuft2
p1085
sg355
F1
sg356
I00
sba(imapping
Tile
p1086
(dp1087
g351
g352
sg353
VF_GrassRedge
p1088
sg355
F1
sg356
I00
sba(imapping
Tile
p1089
(dp1090
g351
g352
sg353
VF_Dirt_BR
p1091
sg355
F1
sg356
I00
sbaNaNaNaa(lp1092
NaNaNaNaNaNaNaNaNaNaNaNaa(lp1093
NaNaNaNaNaNaNaNaNaNaNaNaa(lp1094
NaNaNaNaNaNa(imapping
Tile
p1095
(dp1096
g351
g449
sg353
VF_Tuft1
p1097
sg355
F1
sg356
I00
sba(imapping
Tile
p1098
(dp1099
g351
g352
sg353
VF_GrassLedge
p1100
sg355
F1
sg356
I00
sba(imapping
Tile
p1101
(dp1102
g351
g352
sg353
VF_Dirt_L2
p1103
sg355
F1
sg356
I00
sba(imapping
Tile
p1104
(dp1105
g351
g352
sg353
VF_Dirt_L1
p1106
sg355
F1
sg356
I00
sba(imapping
Tile
p1107
(dp1108
g351
g352
sg353
VF_Dirt_L1
p1109
sg355
F1
sg356
I00
sba(imapping
Tile
p1110
(dp1111
g351
g352
sg353
VF_Dirt_L2
p1112
sg355
F1
sg356
I00
sbaa(lp1113
NaNaNaNaNaNaNa(imapping
Tile
p1114
(dp1115
g351
g352
sg353
VF_Grass
p1116
sg355
F1
sg356
I00
sba(imapping
Tile
p1117
(dp1118
g351
g352
sg353
VF_Dirt_Alt_1
p1119
sg355
F1
sg356
I00
sba(imapping
Tile
p1120
(dp1121
g351
g352
sg353
VF_Dirt
p1122
sg355
F1
sg356
I00
sba(imapping
Tile
p1123
(dp1124
g351
g352
sg353
VF_Dirt
p1125
sg355
F1
sg356
I00
sba(imapping
Tile
p1126
(dp1127
g351
g352
sg353
VF_Dirt
p1128
sg355
F1
sg356
I00
sbaa(lp1129
NaNaNaNaNaNa(imapping
Tile
p1130
(dp1131
g351
g449
sg353
VF_Tuft2
p1132
sg355
F1
sg356
I00
sba(imapping
Tile
p1133
(dp1134
g351
g352
sg353
VF_Grass_Alt_2
p1135
sg355
F1
sg356
I00
sba(imapping
Tile
p1136
(dp1137
g351
g352
sg353
VF_Dirt_Alt_1
p1138
sg355
F1
sg356
I00
sba(imapping
Tile
p1139
(dp1140
g351
g352
sg353
VF_Dirt
p1141
sg355
F1
sg356
I00
sba(imapping
Tile
p1142
(dp1143
g351
g352
sg353
VF_Dirt
p1144
sg355
F1
sg356
I00
sba(imapping
Tile
p1145
(dp1146
g351
g352
sg353
VF_Dirt_Alt_1
p1147
sg355
F1
sg356
I00
sbaa(lp1148
NaNaNaNaNaNaNa(imapping
Tile
p1149
(dp1150
g351
g352
sg353
VF_Grass_Alt_3
p1151
sg355
F1
sg356
I00
sba(imapping
Tile
p1152
(dp1153
g351
g352
sg353
VF_Dirt
p1154
sg355
F1
sg356
I00
sba(imapping
Tile
p1155
(dp1156
g351
g352
sg353
VF_Dirt
p1157
sg355
F1
sg356
I00
sba(imapping
Tile
p1158
(dp1159
g351
g352
sg353
VF_Dirt
p1160
sg355
F1
sg356
I00
sba(imapping
Tile
p1161
(dp1162
g351
g352
sg353
VF_Dirt
p1163
sg355
F1
sg356
I00
sbaa(lp1164
NaNaNaNaNaNaNa(imapping
Tile
p1165
(dp1166
g351
g352
sg353
VF_Grass
p1167
sg355
F1
sg356
I00
sba(imapping
Tile
p1168
(dp1169
g351
g352
sg353
VF_Dirt
p1170
sg355
F1
sg356
I00
sba(imapping
Tile
p1171
(dp1172
g351
g352
sg353
VF_Dirt
p1173
sg355
F1
sg356
I00
sba(imapping
Tile
p1174
(dp1175
g351
g352
sg353
VF_Dirt_Alt_1
p1176
sg355
F1
sg356
I00
sba(imapping
Tile
p1177
(dp1178
g351
g352
sg353
VF_Dirt
p1179
sg355
F1
sg356
I00
sbaa(lp1180
NaNaNaNaNaNaNa(imapping
Tile
p1181
(dp1182
g351
g352
sg353
VF_GrassRedge
p1183
sg355
F1
sg356
I00
sba(imapping
Tile
p1184
(dp1185
g351
g352
sg353
VF_Grass->DirtR
p1186
sg355
F1
sg356
I00
sba(imapping
Tile
p1187
(dp1188
g351
g352
sg353
VF_Dirt
p1189
sg355
F1
sg356
I00
sba(imapping
Tile
p1190
(dp1191
g351
g352
sg353
VF_Dirt
p1192
sg355
F1
sg356
I00
sba(imapping
Tile
p1193
(dp1194
g351
g352
sg353
VF_Dirt
p1195
sg355
F1
sg356
I00
sbaa(lp1196
NaNaNaNaNaNaNaNa(imapping
Tile
p1197
(dp1198
g351
g352
sg353
VF_Grass
p1199
sg355
F1
sg356
I00
sba(imapping
Tile
p1200
(dp1201
g351
g352
sg353
VF_Dirt
p1202
sg355
F1
sg356
I00
sba(imapping
Tile
p1203
(dp1204
g351
g352
sg353
VF_Dirt
p1205
sg355
F1
sg356
I00
sba(imapping
Tile
p1206
(dp1207
g351
g352
sg353
VF_Dirt
p1208
sg355
F1
sg356
I00
sbaa(lp1209
NaNaNaNaNaNaNa(imapping
Tile
p1210
(dp1211
g351
g407
sg353
VF_Shrooms1
p1212
sg355
F1
sg356
I00
sba(imapping
Tile
p1213
(dp1214
g351
g352
sg353
VF_Grass_Alt_2
p1215
sg355
F1
sg356
I00
sba(imapping
Tile
p1216
(dp1217
g351
g352
sg353
VF_Dirt
p1218
sg355
F1
sg356
I00
sba(imapping
Tile
p1219
(dp1220
g351
g352
sg353
VF_Dirt
p1221
sg355
F1
sg356
I00
sba(imapping
Tile
p1222
(dp1223
g351
g352
sg353
VF_Dirt_Alt_2
p1224
sg355
F1
sg356
I00
sbaa(lp1225
NaNaNaNaNaNaNaNa(imapping
Tile
p1226
(dp1227
g351
g352
sg353
VF_Grass_Alt_3
p1228
sg355
F1
sg356
I00
sba(imapping
Tile
p1229
(dp1230
g351
g352
sg353
VF_Dirt
p1231
sg355
F1
sg356
I00
sba(imapping
Tile
p1232
(dp1233
g351
g352
sg353
VF_Dirt
p1234
sg355
F1
sg356
I00
sba(imapping
Tile
p1235
(dp1236
g351
g352
sg353
VF_Dirt_Alt_2
p1237
sg355
F1
sg356
I00
sbaa(lp1238
NaNaNaNaNaNaNaNa(imapping
Tile
p1239
(dp1240
g351
g352
sg353
VF_Grass
p1241
sg355
F1
sg356
I00
sba(imapping
Tile
p1242
(dp1243
g351
g352
sg353
VF_Dirt_Alt_2
p1244
sg355
F1
sg356
I00
sba(imapping
Tile
p1245
(dp1246
g351
g352
sg353
VF_Dirt
p1247
sg355
F1
sg356
I00
sba(imapping
Tile
p1248
(dp1249
g351
g352
sg353
VF_Dirt
p1250
sg355
F1
sg356
I00
sbaa(lp1251
NaNaNaNaNaNaNa(imapping
Tile
p1252
(dp1253
g351
g352
sg353
VF_GrassLedge
p1254
sg355
F1
sg356
I00
sba(imapping
Tile
p1255
(dp1256
g351
g352
sg353
VF_Grass->DirtL
p1257
sg355
F1
sg356
I00
sba(imapping
Tile
p1258
(dp1259
g351
g352
sg353
VF_Dirt
p1260
sg355
F1
sg356
I00
sba(imapping
Tile
p1261
(dp1262
g351
g352
sg353
VF_Dirt
p1263
sg355
F1
sg356
I00
sba(imapping
Tile
p1264
(dp1265
g351
g352
sg353
VF_Dirt
p1266
sg355
F1
sg356
I00
sbaa(lp1267
NaNaNaNaNaNaNa(imapping
Tile
p1268
(dp1269
g351
g352
sg353
VF_Grass_Alt_3
p1270
sg355
F1
sg356
I00
sba(imapping
Tile
p1271
(dp1272
g351
g352
sg353
VF_Dirt
p1273
sg355
F1
sg356
I00
sba(imapping
Tile
p1274
(dp1275
g351
g352
sg353
VF_Dirt
p1276
sg355
F1
sg356
I00
sba(imapping
Tile
p1277
(dp1278
g351
g352
sg353
VF_Dirt
p1279
sg355
F1
sg356
I00
sba(imapping
Tile
p1280
(dp1281
g351
g352
sg353
VF_Dirt
p1282
sg355
F1
sg356
I00
sbaa(lp1283
NaNaNaNaNaNaNa(imapping
Tile
p1284
(dp1285
g351
g352
sg353
VF_Grass_Alt_5
p1286
sg355
F1
sg356
I00
sba(imapping
Tile
p1287
(dp1288
g351
g352
sg353
VF_Dirt
p1289
sg355
F1
sg356
I00
sba(imapping
Tile
p1290
(dp1291
g351
g352
sg353
VF_Dirt
p1292
sg355
F1
sg356
I00
sba(imapping
Tile
p1293
(dp1294
g351
g352
sg353
VF_Dirt
p1295
sg355
F1
sg356
I00
sba(imapping
Tile
p1296
(dp1297
g351
g352
sg353
VF_Dirt
p1298
sg355
F1
sg356
I00
sbaa(lp1299
NaNaNaNaNaNaNa(imapping
Tile
p1300
(dp1301
g351
g352
sg353
VF_Grass
p1302
sg355
F1
sg356
I00
sba(imapping
Tile
p1303
(dp1304
g351
g352
sg353
VF_Dirt
p1305
sg355
F1
sg356
I00
sba(imapping
Tile
p1306
(dp1307
g351
g352
sg353
VF_Dirt
p1308
sg355
F1
sg356
I00
sba(imapping
Tile
p1309
(dp1310
g351
g352
sg353
VF_Dirt_Alt_2
p1311
sg355
F1
sg356
I00
sba(imapping
Tile
p1312
(dp1313
g351
g352
sg353
VF_Dirt
p1314
sg355
F1
sg356
I00
sbaa(lp1315
NaNaNaNaNaNa(imapping
Tile
p1316
(dp1317
g351
g352
sg353
VF_GrassLedge
p1318
sg355
F1
sg356
I00
sba(imapping
Tile
p1319
(dp1320
g351
g352
sg353
VF_Grass->DirtL
p1321
sg355
F1
sg356
I00
sba(imapping
Tile
p1322
(dp1323
g351
g352
sg353
VF_Dirt
p1324
sg355
F1
sg356
I00
sba(imapping
Tile
p1325
(dp1326
g351
g352
sg353
VF_Dirt
p1327
sg355
F1
sg356
I00
sba(imapping
Tile
p1328
(dp1329
g351
g352
sg353
VF_Dirt
p1330
sg355
F1
sg356
I00
sba(imapping
Tile
p1331
(dp1332
g351
g352
sg353
VF_Dirt
p1333
sg355
F1
sg356
I00
sbaa(lp1334
NaNaNaNaNaNa(imapping
Tile
p1335
(dp1336
g351
g352
sg353
VF_Grass_Alt_3
p1337
sg355
F1
sg356
I00
sba(imapping
Tile
p1338
(dp1339
g351
g352
sg353
VF_Dirt
p1340
sg355
F1
sg356
I00
sba(imapping
Tile
p1341
(dp1342
g351
g352
sg353
VF_Dirt_Alt_3
p1343
sg355
F1
sg356
I00
sba(imapping
Tile
p1344
(dp1345
g351
g352
sg353
VF_Dirt
p1346
sg355
F1
sg356
I00
sba(imapping
Tile
p1347
(dp1348
g351
g352
sg353
VF_Dirt_Alt_3
p1349
sg355
F1
sg356
I00
sba(imapping
Tile
p1350
(dp1351
g351
g352
sg353
VF_Dirt
p1352
sg355
F1
sg356
I00
sbaa(lp1353
NaNaNaNaNaNa(imapping
Tile
p1354
(dp1355
g351
g352
sg353
VF_Grass
p1356
sg355
F1
sg356
I00
sba(imapping
Tile
p1357
(dp1358
g351
g352
sg353
VF_Dirt
p1359
sg355
F1
sg356
I00
sba(imapping
Tile
p1360
(dp1361
g351
g352
sg353
VF_Dirt
p1362
sg355
F1
sg356
I00
sba(imapping
Tile
p1363
(dp1364
g351
g352
sg353
VF_Dirt
p1365
sg355
F1
sg356
I00
sba(imapping
Tile
p1366
(dp1367
g351
g352
sg353
VF_Dirt
p1368
sg355
F1
sg356
I00
sba(imapping
Tile
p1369
(dp1370
g351
g352
sg353
VF_Dirt
p1371
sg355
F1
sg356
I00
sbaa(lp1372
NaNaNaNaNa(imapping
Tile
p1373
(dp1374
g351
g352
sg353
VF_GrassLedge
p1375
sg355
F1
sg356
I00
sba(imapping
Tile
p1376
(dp1377
g351
g352
sg353
VF_Grass->DirtL
p1378
sg355
F1
sg356
I00
sba(imapping
Tile
p1379
(dp1380
g351
g352
sg353
VF_Dirt
p1381
sg355
F1
sg356
I00
sba(imapping
Tile
p1382
(dp1383
g351
g352
sg353
VF_Dirt
p1384
sg355
F1
sg356
I00
sba(imapping
Tile
p1385
(dp1386
g351
g352
sg353
VF_Dirt_Alt_3
p1387
sg355
F1
sg356
I00
sba(imapping
Tile
p1388
(dp1389
g351
g352
sg353
VF_Dirt
p1390
sg355
F1
sg356
I00
sba(imapping
Tile
p1391
(dp1392
g351
g352
sg353
VF_Dirt
p1393
sg355
F1
sg356
I00
sbaa(lp1394
NaNaNaNaNa(imapping
Tile
p1395
(dp1396
g351
g352
sg353
VF_Grass_Alt_2
p1397
sg355
F1
sg356
I00
sba(imapping
Tile
p1398
(dp1399
g351
g352
sg353
VF_Dirt
p1400
sg355
F1
sg356
I00
sba(imapping
Tile
p1401
(dp1402
g351
g352
sg353
VF_Dirt
p1403
sg355
F1
sg356
I00
sba(imapping
Tile
p1404
(dp1405
g351
g352
sg353
VF_Dirt
p1406
sg355
F1
sg356
I00
sba(imapping
Tile
p1407
(dp1408
g351
g352
sg353
VF_Dirt_Alt_3
p1409
sg355
F1
sg356
I00
sba(imapping
Tile
p1410
(dp1411
g351
g352
sg353
VF_Dirt
p1412
sg355
F1
sg356
I00
sba(imapping
Tile
p1413
(dp1414
g351
g352
sg353
VF_Dirt
p1415
sg355
F1
sg356
I00
sbaa(lp1416
NaNaNaNaNa(imapping
Tile
p1417
(dp1418
g351
g352
sg353
VF_Grass_Alt_3
p1419
sg355
F1
sg356
I00
sba(imapping
Tile
p1420
(dp1421
g351
g352
sg353
VF_Dirt
p1422
sg355
F1
sg356
I00
sba(imapping
Tile
p1423
(dp1424
g351
g352
sg353
VF_Dirt
p1425
sg355
F1
sg356
I00
sba(imapping
Tile
p1426
(dp1427
g351
g352
sg353
VF_Dirt
p1428
sg355
F1
sg356
I00
sba(imapping
Tile
p1429
(dp1430
g351
g352
sg353
VF_Dirt
p1431
sg355
F1
sg356
I00
sba(imapping
Tile
p1432
(dp1433
g351
g352
sg353
VF_Dirt
p1434
sg355
F1
sg356
I00
sba(imapping
Tile
p1435
(dp1436
g351
g352
sg353
VF_Dirt
p1437
sg355
F1
sg356
I00
sbaa(lp1438
NaNaNaNaNa(imapping
Tile
p1439
(dp1440
g351
g352
sg353
VF_Grass
p1441
sg355
F1
sg356
I00
sba(imapping
Tile
p1442
(dp1443
g351
g352
sg353
VF_Dirt
p1444
sg355
F1
sg356
I00
sba(imapping
Tile
p1445
(dp1446
g351
g352
sg353
VF_Dirt
p1447
sg355
F1
sg356
I00
sba(imapping
Tile
p1448
(dp1449
g351
g352
sg353
VF_Dirt
p1450
sg355
F1
sg356
I00
sba(imapping
Tile
p1451
(dp1452
g351
g352
sg353
VF_Dirt
p1453
sg355
F1
sg356
I00
sba(imapping
Tile
p1454
(dp1455
g351
g352
sg353
VF_Dirt_Alt_4
p1456
sg355
F1
sg356
I00
sba(imapping
Tile
p1457
(dp1458
g351
g352
sg353
VF_Dirt
p1459
sg355
F1
sg356
I00
sbaa(lp1460
NaNaNaNa(imapping
Tile
p1461
(dp1462
g351
g352
sg353
VF_GrassLedge
p1463
sg355
F1
sg356
I00
sba(imapping
Tile
p1464
(dp1465
g351
g352
sg353
VF_Grass->DirtL
p1466
sg355
F1
sg356
I00
sba(imapping
Tile
p1467
(dp1468
g351
g352
sg353
VF_Dirt
p1469
sg355
F1
sg356
I00
sba(imapping
Tile
p1470
(dp1471
g351
g352
sg353
VF_Dirt_Alt_3
p1472
sg355
F1
sg356
I00
sba(imapping
Tile
p1473
(dp1474
g351
g352
sg353
VF_Dirt
p1475
sg355
F1
sg356
I00
sba(imapping
Tile
p1476
(dp1477
g351
g352
sg353
VF_Dirt
p1478
sg355
F1
sg356
I00
sba(imapping
Tile
p1479
(dp1480
g351
g352
sg353
VF_Dirt_Alt_3
p1481
sg355
F1
sg356
I00
sba(imapping
Tile
p1482
(dp1483
g351
g352
sg353
VF_Dirt
p1484
sg355
F1
sg356
I00
sbaa(lp1485
NaNaNaNa(imapping
Tile
p1486
(dp1487
g351
g352
sg353
VF_Grass_Alt_5
p1488
sg355
F1
sg356
I00
sba(imapping
Tile
p1489
(dp1490
g351
g352
sg353
VF_Dirt
p1491
sg355
F1
sg356
I00
sba(imapping
Tile
p1492
(dp1493
g351
g352
sg353
VF_Dirt
p1494
sg355
F1
sg356
I00
sba(imapping
Tile
p1495
(dp1496
g351
g352
sg353
VF_Dirt
p1497
sg355
F1
sg356
I00
sba(imapping
Tile
p1498
(dp1499
g351
g352
sg353
VF_Dirt
p1500
sg355
F1
sg356
I00
sba(imapping
Tile
p1501
(dp1502
g351
g352
sg353
VF_Dirt
p1503
sg355
F1
sg356
I00
sba(imapping
Tile
p1504
(dp1505
g351
g352
sg353
VF_Dirt_Alt_3
p1506
sg355
F1
sg356
I00
sba(imapping
Tile
p1507
(dp1508
g351
g352
sg353
VF_Dirt
p1509
sg355
F1
sg356
I00
sbaa(lp1510
NaNaNaNa(imapping
Tile
p1511
(dp1512
g351
g352
sg353
VF_Grass
p1513
sg355
F1
sg356
I00
sba(imapping
Tile
p1514
(dp1515
g351
g352
sg353
VF_Dirt
p1516
sg355
F1
sg356
I00
sba(imapping
Tile
p1517
(dp1518
g351
g352
sg353
VF_Dirt_Alt_3
p1519
sg355
F1
sg356
I00
sba(imapping
Tile
p1520
(dp1521
g351
g352
sg353
VF_Dirt
p1522
sg355
F1
sg356
I00
sba(imapping
Tile
p1523
(dp1524
g351
g352
sg353
VF_Dirt_Alt_4
p1525
sg355
F1
sg356
I00
sba(imapping
Tile
p1526
(dp1527
g351
g352
sg353
VF_Dirt
p1528
sg355
F1
sg356
I00
sba(imapping
Tile
p1529
(dp1530
g351
g352
sg353
VF_Dirt_Alt_3
p1531
sg355
F1
sg356
I00
sba(imapping
Tile
p1532
(dp1533
g351
g352
sg353
VF_Dirt
p1534
sg355
F1
sg356
I00
sbaa(lp1535
NaNaNa(imapping
Tile
p1536
(dp1537
g351
g352
sg353
VF_GrassLedge
p1538
sg355
F1
sg356
I00
sba(imapping
Tile
p1539
(dp1540
g351
g352
sg353
VF_Grass->DirtL
p1541
sg355
F1
sg356
I00
sba(imapping
Tile
p1542
(dp1543
g351
g352
sg353
VF_Dirt
p1544
sg355
F1
sg356
I00
sba(imapping
Tile
p1545
(dp1546
g351
g352
sg353
VF_Dirt
p1547
sg355
F1
sg356
I00
sba(imapping
Tile
p1548
(dp1549
g351
g352
sg353
VF_Dirt
p1550
sg355
F1
sg356
I00
sba(imapping
Tile
p1551
(dp1552
g351
g352
sg353
VF_Dirt
p1553
sg355
F1
sg356
I00
sba(imapping
Tile
p1554
(dp1555
g351
g352
sg353
VF_Dirt
p1556
sg355
F1
sg356
I00
sba(imapping
Tile
p1557
(dp1558
g351
g352
sg353
VF_Dirt
p1559
sg355
F1
sg356
I00
sba(imapping
Tile
p1560
(dp1561
g351
g352
sg353
VF_Dirt
p1562
sg355
F1
sg356
I00
sbaa(lp1563
NaNaNa(imapping
Tile
p1564
(dp1565
g351
g352
sg353
VF_GrassRedge
p1566
sg355
F1
sg356
I00
sba(imapping
Tile
p1567
(dp1568
g351
g352
sg353
VF_Dirt_R2
p1569
sg355
F1
sg356
I00
sba(imapping
Tile
p1570
(dp1571
g351
g352
sg353
VF_Dirt_R2
p1572
sg355
F1
sg356
I00
sba(imapping
Tile
p1573
(dp1574
g351
g352
sg353
VF_Dirt_R2
p1575
sg355
F1
sg356
I00
sba(imapping
Tile
p1576
(dp1577
g351
g352
sg353
VF_Dirt_R2
p1578
sg355
F1
sg356
I00
sba(imapping
Tile
p1579
(dp1580
g351
g352
sg353
VF_Dirt_R2
p1581
sg355
F1
sg356
I00
sba(imapping
Tile
p1582
(dp1583
g351
g352
sg353
VF_Dirt_R2
p1584
sg355
F1
sg356
I00
sba(imapping
Tile
p1585
(dp1586
g351
g352
sg353
VF_Dirt_R2
p1587
sg355
F1
sg356
I00
sba(imapping
Tile
p1588
(dp1589
g351
g352
sg353
VF_Dirt_R2
p1590
sg355
F1
sg356
I00
sbaa(lp1591
NaNaNaNaNaNaNaNaNaNaNaNaa(lp1592
NaNaNaNaNaNaNaNaNaNaNaNaa(lp1593
NaNaNaNaNaNa(imapping
Tile
p1594
(dp1595
g351
g352
sg353
VF_GrassLedge
p1596
sg355
F1
sg356
I00
sba(imapping
Tile
p1597
(dp1598
g351
g352
sg353
VF_Dirt_BL
p1599
sg355
F1
sg356
I00
sbaNaNaNaNaa(lp1600
NaNaNaNaNa(imapping
Tile
p1601
(dp1602
g351
g449
sg353
VF_ExitSign
p1603
sg355
F1
sg356
I00
sba(imapping
Tile
p1604
(dp1605
g351
g352
sg353
VF_Grass_Alt_3
p1606
sg355
F1
sg356
I00
sba(imapping
Tile
p1607
(dp1608
g351
g352
sg353
VF_Dirtb
p1609
sg355
F1
sg356
I00
sbaNaNaNaNaa(lp1610
NaNaNaNaNa(imapping
Tile
p1611
(dp1612
g351
g449
sg353
VF_Tuft1
p1613
sg355
F1
sg356
I00
sba(imapping
Tile
p1614
(dp1615
g351
g352
sg353
VF_GrassRedge
p1616
sg355
F1
sg356
I00
sba(imapping
Tile
p1617
(dp1618
g351
g352
sg353
VF_Dirt_BR
p1619
sg355
F1
sg356
I00
sbaNaNaNaNaa(lp1620
NaNaNaNaNaNaNaNaNaNaNaNaa(lp1621
NaNaNaNaNaNaNaNaNaNa(imapping
Tile
p1622
(dp1623
g351
g352
sg353
VF_GrassLedge
p1624
sg355
F1
sg356
I00
sba(imapping
Tile
p1625
(dp1626
g351
g352
sg353
VF_Dirt_L1
p1627
sg355
F1
sg356
I00
sbaa(lp1628
NaNaNaNaNaNaNaNaNa(imapping
Tile
p1629
(dp1630
g351
g407
sg353
VF_Shrooms1
p1631
sg355
F1
sg356
I00
sba(imapping
Tile
p1632
(dp1633
g351
g352
sg353
VF_GrassRedge
p1634
sg355
F1
sg356
I00
sba(imapping
Tile
p1635
(dp1636
g351
g352
sg353
VF_Dirt_R2
p1637
sg355
F1
sg356
I00
sbaa(lp1638
NaNaNaNaNaNaNaNaNaNaNaNaa(lp1639
NaNaNaNaNaNaNaNaNaNaNaNaa(lp1640
NaNaNaNaNaNaNaNaNaNaNa(imapping
Tile
p1641
(dp1642
g351
g352
sg353
VF_GrassLedge
p1643
sg355
F1
sg356
I00
sbaa(lp1644
NaNaNaNaNaNaNaNaNaNaNa(imapping
Tile
p1645
(dp1646
g351
g352
sg353
VF_Grass_Alt_3
p1647
sg355
F1
sg356
I00
sbaa(lp1648
NaNaNaNaNaNaNaNaNaNa(imapping
Tile
p1649
(dp1650
g351
S'RIGHT_HINCLINATION1'
p1651
sg353
VF_Right_Halframp1
p1652
sg355
F1
sg356
I00
sba(imapping
Tile
p1653
(dp1654
g351
g352
sg353
VF_RampJoinR
p1655
sg355
F1
sg356
I00
sbaa(lp1656
NaNaNaNaNaNaNaNaNaNa(imapping
Tile
p1657
(dp1658
g351
S'RIGHT_HINCLINATION2'
p1659
sg353
VF_Right_Halframp2
p1660
sg355
F1
sg356
I00
sba(imapping
Tile
p1661
(dp1662
g351
g352
sg353
VF_Dirt
p1663
sg355
F1
sg356
I00
sbaa(lp1664
NaNaNaNaNaNaNaNaNa(imapping
Tile
p1665
(dp1666
g351
g1651
sg353
VF_Right_Halframp1
p1667
sg355
F1
sg356
I00
sba(imapping
Tile
p1668
(dp1669
g351
g352
sg353
VF_RampJoinR
p1670
sg355
F1
sg356
I00
sba(imapping
Tile
p1671
(dp1672
g351
g352
sg353
VF_Dirt
p1673
sg355
F1
sg356
I00
sbaa(lp1674
NaNaNaNaNaNaNaNaNa(imapping
Tile
p1675
(dp1676
g351
g1659
sg353
VF_Right_Halframp2
p1677
sg355
F1
sg356
I00
sba(imapping
Tile
p1678
(dp1679
g351
g352
sg353
VF_Dirt
p1680
sg355
F1
sg356
I00
sba(imapping
Tile
p1681
(dp1682
g351
g352
sg353
VF_Dirt
p1683
sg355
F1
sg356
I00
sbaa(lp1684
NaNaNaNaNaNaNaNa(imapping
Tile
p1685
(dp1686
g351
g1651
sg353
VF_Right_Halframp1
p1687
sg355
F1
sg356
I00
sba(imapping
Tile
p1688
(dp1689
g351
g352
sg353
VF_RampJoinR
p1690
sg355
F1
sg356
I00
sba(imapping
Tile
p1691
(dp1692
g351
g352
sg353
VF_Dirt
p1693
sg355
F1
sg356
I00
sba(imapping
Tile
p1694
(dp1695
g351
g352
sg353
VF_Dirt
p1696
sg355
F1
sg356
I00
sbaa(lp1697
NaNaNaNaNaNaNaNa(imapping
Tile
p1698
(dp1699
g351
g1659
sg353
VF_Right_Halframp2
p1700
sg355
F1
sg356
I00
sba(imapping
Tile
p1701
(dp1702
g351
g352
sg353
VF_Dirt
p1703
sg355
F1
sg356
I00
sba(imapping
Tile
p1704
(dp1705
g351
g352
sg353
VF_Dirt
p1706
sg355
F1
sg356
I00
sba(imapping
Tile
p1707
(dp1708
g351
g352
sg353
VF_Dirt
p1709
sg355
F1
sg356
I00
sbaa(lp1710
NaNaNaNaNaNaNaNa(imapping
Tile
p1711
(dp1712
g351
g352
sg353
VF_Grass
p1713
sg355
F1
sg356
I00
sba(imapping
Tile
p1714
(dp1715
g351
g352
sg353
VF_Dirt
p1716
sg355
F1
sg356
I00
sba(imapping
Tile
p1717
(dp1718
g351
g352
sg353
VF_Dirt
p1719
sg355
F1
sg356
I00
sba(imapping
Tile
p1720
(dp1721
g351
g352
sg353
VF_Dirt
p1722
sg355
F1
sg356
I00
sbaa(lp1723
NaNaNaNaNaNaNaNa(imapping
Tile
p1724
(dp1725
g351
g352
sg353
VF_Grass
p1726
sg355
F1
sg356
I00
sba(imapping
Tile
p1727
(dp1728
g351
g352
sg353
VF_Dirt
p1729
sg355
F1
sg356
I00
sba(imapping
Tile
p1730
(dp1731
g351
g352
sg353
VF_Dirt
p1732
sg355
F1
sg356
I00
sba(imapping
Tile
p1733
(dp1734
g351
g352
sg353
VF_Dirt
p1735
sg355
F1
sg356
I00
sbaa(lp1736
NaNaNaNaNaNaNaNa(imapping
Tile
p1737
(dp1738
g351
g352
sg353
VF_Grass
p1739
sg355
F1
sg356
I00
sba(imapping
Tile
p1740
(dp1741
g351
g352
sg353
VF_Dirt
p1742
sg355
F1
sg356
I00
sba(imapping
Tile
p1743
(dp1744
g351
g352
sg353
VF_Dirt
p1745
sg355
F1
sg356
I00
sba(imapping
Tile
p1746
(dp1747
g351
g352
sg353
VF_Dirt
p1748
sg355
F1
sg356
I00
sbaa(lp1749
NaNaNaNaNaNaNa(imapping
Tile
p1750
(dp1751
g351
g449
sg353
VF_Shrooms2
p1752
sg355
F1
sg356
I00
sba(imapping
Tile
p1753
(dp1754
g351
g352
sg353
VF_Grass
p1755
sg355
F1
sg356
I00
sba(imapping
Tile
p1756
(dp1757
g351
g352
sg353
VF_Dirt
p1758
sg355
F1
sg356
I00
sba(imapping
Tile
p1759
(dp1760
g351
g352
sg353
VF_Dirt
p1761
sg355
F1
sg356
I00
sba(imapping
Tile
p1762
(dp1763
g351
g352
sg353
VF_Dirt
p1764
sg355
F1
sg356
I00
sbaa(lp1765
NaNaNaNaNaNaNa(imapping
Tile
p1766
(dp1767
g351
g449
sg353
VF_Tuft1
p1768
sg355
F1
sg356
I00
sba(imapping
Tile
p1769
(dp1770
g351
g352
sg353
VF_Grass
p1771
sg355
F1
sg356
I00
sba(imapping
Tile
p1772
(dp1773
g351
g352
sg353
VF_Dirt
p1774
sg355
F1
sg356
I00
sba(imapping
Tile
p1775
(dp1776
g351
g352
sg353
VF_Dirt
p1777
sg355
F1
sg356
I00
sba(imapping
Tile
p1778
(dp1779
g351
g352
sg353
VF_Dirt
p1780
sg355
F1
sg356
I00
sbaa(lp1781
NaNaNaNaNaNaNa(imapping
Tile
p1782
(dp1783
g351
g449
sg353
VF_Tuft1
p1784
sg355
F1
sg356
I00
sba(imapping
Tile
p1785
(dp1786
g351
g352
sg353
VF_Grass
p1787
sg355
F1
sg356
I00
sba(imapping
Tile
p1788
(dp1789
g351
g352
sg353
VF_Dirt
p1790
sg355
F1
sg356
I00
sba(imapping
Tile
p1791
(dp1792
g351
g352
sg353
VF_Dirt
p1793
sg355
F1
sg356
I00
sba(imapping
Tile
p1794
(dp1795
g351
g352
sg353
VF_Dirt
p1796
sg355
F1
sg356
I00
sbaa(lp1797
NaNaNaNaNaNaNaNa(imapping
Tile
p1798
(dp1799
g351
g352
sg353
VF_Grass
p1800
sg355
F1
sg356
I00
sba(imapping
Tile
p1801
(dp1802
g351
g352
sg353
VF_Dirt
p1803
sg355
F1
sg356
I00
sba(imapping
Tile
p1804
(dp1805
g351
g352
sg353
VF_Dirt
p1806
sg355
F1
sg356
I00
sba(imapping
Tile
p1807
(dp1808
g351
g352
sg353
VF_Dirt
p1809
sg355
F1
sg356
I00
sbaa(lp1810
NaNaNaNaNaNaNa(imapping
Tile
p1811
(dp1812
g351
g407
sg353
VF_Shrooms1
p1813
sg355
F1
sg356
I00
sba(imapping
Tile
p1814
(dp1815
g351
g352
sg353
VF_Grass
p1816
sg355
F1
sg356
I00
sba(imapping
Tile
p1817
(dp1818
g351
g352
sg353
VF_Dirt
p1819
sg355
F1
sg356
I00
sba(imapping
Tile
p1820
(dp1821
g351
g352
sg353
VF_Dirt
p1822
sg355
F1
sg356
I00
sba(imapping
Tile
p1823
(dp1824
g351
g352
sg353
VF_Dirt
p1825
sg355
F1
sg356
I00
sbaa(lp1826
NaNaNaNaNaNaNaNa(imapping
Tile
p1827
(dp1828
g351
g352
sg353
VF_Grass
p1829
sg355
F1
sg356
I00
sba(imapping
Tile
p1830
(dp1831
g351
g352
sg353
VF_Dirt
p1832
sg355
F1
sg356
I00
sba(imapping
Tile
p1833
(dp1834
g351
g352
sg353
VF_Dirt
p1835
sg355
F1
sg356
I00
sba(imapping
Tile
p1836
(dp1837
g351
g352
sg353
VF_Dirt
p1838
sg355
F1
sg356
I00
sbaa(lp1839
NaNaNaNaNaNaNa(imapping
Tile
p1840
(dp1841
g351
g407
sg353
VF_Stump
p1842
sg355
F1
sg356
I00
sba(imapping
Tile
p1843
(dp1844
g351
g352
sg353
VF_Grass
p1845
sg355
F1
sg356
I00
sba(imapping
Tile
p1846
(dp1847
g351
g352
sg353
VF_Dirt
p1848
sg355
F1
sg356
I00
sba(imapping
Tile
p1849
(dp1850
g351
g352
sg353
VF_Dirt
p1851
sg355
F1
sg356
I00
sba(imapping
Tile
p1852
(dp1853
g351
g352
sg353
VF_Dirt
p1854
sg355
F1
sg356
I00
sbaa(lp1855
NaNaNaNaNaNaNaNa(imapping
Tile
p1856
(dp1857
g351
g352
sg353
VF_Grass
p1858
sg355
F1
sg356
I00
sba(imapping
Tile
p1859
(dp1860
g351
g352
sg353
VF_Dirt
p1861
sg355
F1
sg356
I00
sba(imapping
Tile
p1862
(dp1863
g351
g352
sg353
VF_Dirt
p1864
sg355
F1
sg356
I00
sba(imapping
Tile
p1865
(dp1866
g351
g352
sg353
VF_Dirt
p1867
sg355
F1
sg356
I00
sbaa(lp1868
NaNaNaNaNaNaNaNa(imapping
Tile
p1869
(dp1870
g351
g352
sg353
VF_Grass
p1871
sg355
F1
sg356
I00
sba(imapping
Tile
p1872
(dp1873
g351
g352
sg353
VF_Dirt
p1874
sg355
F1
sg356
I00
sba(imapping
Tile
p1875
(dp1876
g351
g352
sg353
VF_Dirt
p1877
sg355
F1
sg356
I00
sba(imapping
Tile
p1878
(dp1879
g351
g352
sg353
VF_Dirt
p1880
sg355
F1
sg356
I00
sbaa(lp1881
NaNaNaNaNaNaNaNa(imapping
Tile
p1882
(dp1883
g351
g352
sg353
VF_Grass
p1884
sg355
F1
sg356
I00
sba(imapping
Tile
p1885
(dp1886
g351
g352
sg353
VF_Dirt
p1887
sg355
F1
sg356
I00
sba(imapping
Tile
p1888
(dp1889
g351
g352
sg353
VF_Dirt
p1890
sg355
F1
sg356
I00
sba(imapping
Tile
p1891
(dp1892
g351
g352
sg353
VF_Dirt
p1893
sg355
F1
sg356
I00
sbaa(lp1894
NaNaNaNaNaNaNaNa(imapping
Tile
p1895
(dp1896
g351
g352
sg353
VF_Grass
p1897
sg355
F1
sg356
I00
sba(imapping
Tile
p1898
(dp1899
g351
g352
sg353
VF_Dirt
p1900
sg355
F1
sg356
I00
sba(imapping
Tile
p1901
(dp1902
g351
g352
sg353
VF_Dirt
p1903
sg355
F1
sg356
I00
sba(imapping
Tile
p1904
(dp1905
g351
g352
sg353
VF_Dirt
p1906
sg355
F1
sg356
I00
sbaa(lp1907
NaNaNaNaNaNaNaNa(imapping
Tile
p1908
(dp1909
g351
g352
sg353
VF_Grass
p1910
sg355
F1
sg356
I00
sba(imapping
Tile
p1911
(dp1912
g351
g352
sg353
VF_Dirt
p1913
sg355
F1
sg356
I00
sba(imapping
Tile
p1914
(dp1915
g351
g352
sg353
VF_Dirt
p1916
sg355
F1
sg356
I00
sba(imapping
Tile
p1917
(dp1918
g351
g352
sg353
VF_Dirt
p1919
sg355
F1
sg356
I00
sbaa(lp1920
NaNaNaNaNaNaNaNa(imapping
Tile
p1921
(dp1922
g351
g352
sg353
VF_Grass
p1923
sg355
F1
sg356
I00
sba(imapping
Tile
p1924
(dp1925
g351
g352
sg353
VF_Dirt
p1926
sg355
F1
sg356
I00
sba(imapping
Tile
p1927
(dp1928
g351
g352
sg353
VF_Dirt
p1929
sg355
F1
sg356
I00
sba(imapping
Tile
p1930
(dp1931
g351
g352
sg353
VF_Dirt
p1932
sg355
F1
sg356
I00
sbaa(lp1933
NaNaNaNaNaNaNaNa(imapping
Tile
p1934
(dp1935
g351
g352
sg353
VF_Grass
p1936
sg355
F1
sg356
I00
sba(imapping
Tile
p1937
(dp1938
g351
g352
sg353
VF_Dirt
p1939
sg355
F1
sg356
I00
sba(imapping
Tile
p1940
(dp1941
g351
g352
sg353
VF_Dirt
p1942
sg355
F1
sg356
I00
sba(imapping
Tile
p1943
(dp1944
g351
g352
sg353
VF_Dirt
p1945
sg355
F1
sg356
I00
sbaa(lp1946
NaNaNaNaNaNaNaNa(imapping
Tile
p1947
(dp1948
g351
g352
sg353
VF_Grass
p1949
sg355
F1
sg356
I00
sba(imapping
Tile
p1950
(dp1951
g351
g352
sg353
VF_Dirt
p1952
sg355
F1
sg356
I00
sba(imapping
Tile
p1953
(dp1954
g351
g352
sg353
VF_Dirt
p1955
sg355
F1
sg356
I00
sba(imapping
Tile
p1956
(dp1957
g351
g352
sg353
VF_Dirt
p1958
sg355
F1
sg356
I00
sbaa(lp1959
NaNaNaNaNaNaNaNa(imapping
Tile
p1960
(dp1961
g351
g352
sg353
VF_Grass
p1962
sg355
F1
sg356
I00
sba(imapping
Tile
p1963
(dp1964
g351
g352
sg353
VF_Dirt
p1965
sg355
F1
sg356
I00
sba(imapping
Tile
p1966
(dp1967
g351
g352
sg353
VF_Dirt
p1968
sg355
F1
sg356
I00
sba(imapping
Tile
p1969
(dp1970
g351
g352
sg353
VF_Dirt
p1971
sg355
F1
sg356
I00
sbaasS'bgmusic'
p1972
VSempridge2.ogg
p1973
sS'theme'
p1974
VForest
p1975
sS'endef'
p1976
(dp1977
VBoss_Radkelu
p1978
Vboss_radkelu
p1979
sVCSpider
p1980
Vcspider
p1981
sVSnowOgre
p1982
Vsnowogre
p1983
sVWasp
p1984
Vwasp
p1985
sVPoisPod
p1986
Vpoispod
p1987
sVSpider
p1988
Vspider
p1989
sVSnowBat
p1990
Vsnowbat
p1991
sVWorm
p1992
Vworm
p1993
sVGiantJelly
p1994
Vgiantjelly
p1995
sVPod
p1996
Vpod
p1997
sVGiantWorm
p1998
Vgiantworm
p1999
ssS'tiledef'
p2000
(dp2001
VS_bLRamp
p2002
Vsnow_blramp.png
p2003
sViC_Ice
p2004
Vcaveice.png
p2005
sVF_Dirt_R2
p2006
Vdirtr_edge2.png
p2007
sVF_Dirt_R1
p2008
Vdirtr_edge1.png
p2009
sVS_Railing_1
p2010
Vsnow_railing1.png
p2011
sVS_Railing_2
p2012
Vsnow_railing2.png
p2013
sVC_Suit of Armour
p2014
Vsuit_armour.png
p2015
sVS_UCleft
p2016
Vsnow_undercorner_left.png
p2017
sVF_Right_Halframp1
p2018
VR_HR1.png
p2019
sVF_Right_Halframp2
p2020
VR_HR2.png
p2021
sVF_GrassRedge
p2022
Vgrassr_edge.png
p2023
sVS_ECleft
p2024
Vsnow_edgecorner_left.png
p2025
sViC_wr2
p2026
Vcavewr2.png
p2027
sVF_Tuft1
p2028
Vtuft1.png
p2029
sVF_Tuft2
p2030
Vtuft2.png
p2031
sVS_Tree
p2032
Vsnow_tree.png
p2033
sVF_Grass
p2034
Vgrass.png
p2035
sVS_Railing_L
p2036
Vsnow_railing_left.png
p2037
sVC_Castle HRR
p2038
Vcstl_hr_r.png
p2039
sVS_RRamp
p2040
Vsnow_rramp.png
p2041
sVC_Castle HRL
p2042
Vcstl_hr_l.png
p2043
sVS_Pillar
p2044
Vsnow_pillar.png
p2045
sVS_Railing_R
p2046
Vsnow_railing_right.png
p2047
sVS_Tree2
p2048
Vsnow_tree2.png
p2049
sVS_Ground1
p2050
Vsnow_ground1.png
p2051
sVF_Stump
p2052
Vtreestump.png
p2053
sVC_Castle Ground 2
p2054
Vcstl_ground2.png
p2055
sVC_Castle Ground 3
p2056
Vcstl_ground3.png
p2057
sVC_Castle Ground 1
p2058
Vcstl_ground1.png
p2059
sVS_Snow2
p2060
Vsnow_snow2.png
p2061
sVF_Grass_Alt_5
p2062
Vgrassc5.png
p2063
sViC_jl
p2064
Vcavejl.png
p2065
sVS_bRRamp
p2066
Vsnow_brramp.png
p2067
sViC_TopL
p2068
Vcavetl.png
p2069
sViC_Floor 1
p2070
Vcavefloor1.png
p2071
sViC_Floor 3
p2072
Vcavefloor3.png
p2073
sViC_Floor 2
p2074
Vcavefloor2.png
p2075
sViC_TopR
p2076
Vcavetr.png
p2077
sViC_jr
p2078
Vcavejr.png
p2079
sVC_Castle Floor 2
p2080
Vcstl_floor2.png
p2081
sVS_Snow
p2082
Vsnow_snow.png
p2083
sVF_Grass_Alt_2
p2084
Vgrassc2.png
p2085
sVF_ExitSign
p2086
Vexitsign.png
p2087
sVF_Grass->Dirttop
p2088
Vgrassmdirt.png
p2089
sVS_UCright
p2090
Vsnow_undercorner_right.png
p2091
sVS_Pillartop
p2092
Vsnow_pillartop.png
p2093
sViC_wr
p2094
Vcavewr.png
p2095
sVF_Dirttop->Grass
p2096
Vdirtmgrass.png
p2097
sVS_ECright
p2098
Vsnow_edgecorner_right.png
p2099
sVC_Castle HRmL
p2100
Vcstl_hr_m_l.png
p2101
sVC_Castle Wall L
p2102
Vcstl_wleft.png
p2103
sVC_Castle Wall R
p2104
Vcstl_wright.png
p2105
sVC_Castle HRmR
p2106
Vcstl_hr_m_r.png
p2107
sVF_Ice
p2108
Vtile5.png
p2109
sViC_wl
p2110
Vcavewl.png
p2111
sVC_Castle Floor 4
p2112
Vcstl_floor4.png
p2113
sVF_Grass_Alt_4
p2114
Vgrassc4.png
p2115
sVF_Grass_Alt_1
p2116
Vgrassc1.png
p2117
sVC_Castle Floor 1
p2118
Vcstl_floor1.png
p2119
sVF_Grass_Alt_3
p2120
Vgrassc3.png
p2121
sVC_Castle Floor 3
p2122
Vcstl_floor3.png
p2123
sVS_edgewleft1
p2124
Vsnow_edgewall_left1.png
p2125
sVS_edgewleft2
p2126
Vsnow_edgewall_left2.png
p2127
sVS_UCJright
p2128
Vsnow_undercorner_join_right.png
p2129
sVS_LRamp
p2130
Vsnow_lramp.png
p2131
sVC_Castle Floor Edge R
p2132
Vcstl_floor_edge_right.png
p2133
sVF_Dirt_L1
p2134
Vdirtl_edge1.png
p2135
sVF_Dirt_L2
p2136
Vdirtl_edge2.png
p2137
sVC_Castle Floor Edge L
p2138
Vcstl_floor_edge_left.png
p2139
sVF_Left_Halframp2
p2140
VL_HR2.png
p2141
sVF_Left_Halframp1
p2142
VL_HR1.png
p2143
sVF_Shrooms2
p2144
Vshrooms2.png
p2145
sVF_Shrooms3
p2146
Vshrooms3.png
p2147
sVF_Shrooms1
p2148
Vshrooms1.png
p2149
sVF_RampJoinL
p2150
Vramp_mid_dirt_l.png
p2151
sVC_Castle Wall->Floor R
p2152
Vcstl_wfright.png
p2153
sVF_RampJoinR
p2154
Vramp_mid_dirt_r.png
p2155
sVF_GrassLedge
p2156
Vgrassl_edge.png
p2157
sVS_Stones
p2158
Vsnow_stones.png
p2159
sVS_edgeright
p2160
Vsnow_edge_right.png
p2161
sVS_edgewright2
p2162
Vsnow_edgewall_right2.png
p2163
sVS_edgewright1
p2164
Vsnow_edgewall_right1.png
p2165
sVF_Dirtb
p2166
Vdirtb.png
p2167
sVF_Right_Ramp
p2168
VR_R.png
p2169
sVF_HalframpJoinL
p2170
Vhalframp_mid_dirt_l.png
p2171
sVF_Dirt_BL
p2172
Vdirtl_bedge.png
p2173
sVF_HalframpJoinR
p2174
Vhalframp_mid_dirt_r.png
p2175
sVF_Dirt_BR
p2176
Vdirtr_bedge.png
p2177
sVF_Dirtb2
p2178
Vdirtb2.png
p2179
sVF_Left_Ramp
p2180
VL_R.png
p2181
sVC_Castle Wall->Floor L
p2182
Vcstl_wfleft.png
p2183
sVS_UCJleft
p2184
Vsnow_undercorner_join_left.png
p2185
sVF_Dirt
p2186
Vdirt.png
p2187
sVF_Grass->DirtL
p2188
Vgrass_dirt_l.png
p2189
sVS_edgeleft
p2190
Vsnow_edge_left.png
p2191
sVF_Dirttop
p2192
Vdirttop.png
p2193
sVF_Dirt_Alt_4
p2194
Vdirtc4.png
p2195
sVF_Dirt_Alt_3
p2196
Vdirtc3.png
p2197
sVF_Dirt_Alt_2
p2198
Vdirtc2.png
p2199
sVF_Dirt_Alt_1
p2200
Vdirtc1.png
p2201
sVF_Grass->DirtR
p2202
Vgrass_dirt_r.png
p2203
sViC_wl2
p2204
Vcavewl2.png
p2205
ssb.