(imapping
Map
p1
(dp2
S'enemy'
p3
(lp4
(lp5
NaNaNaNaNaNaNaNaNaNaNaNaa(lp6
NaNaNaNaNaNaNaNaNaNaNaNaa(lp7
NaNaNaNaNaNaNaNaNaNaNaNaa(lp8
NaNaNaNaNaNaNaNaNaNaNaNaa(lp9
NaNaNaNaNaNaNaNaNaNaNaNaa(lp10
NaNaNaNaNaNaVWorm
p11
aNaNaNaNaNaa(lp12
NaNaNaNaNaNaNaNaNaNaNaNaa(lp13
NaNaNaVSpider
p14
aNaNaNaNaNaVWasp
p15
aNaNaa(lp16
NaNaNaVSpider
p17
aNaNaNaNaNaNaNaNaa(lp18
NaNaNaNaNaNaNaNaNaNaNaNaa(lp19
NaNaNaNaNaNaNaNaNaNaNaNaa(lp20
NaNaNaNaNaNaNaNaNaNaNaNaa(lp21
NaNaNaNaNaNaNaNaNaVWorm
p22
aNaNaa(lp23
NaNaNaNaNaNaNaNaNaNaNaNaa(lp24
NaNaNaNaNaNaNaNaNaNaNaNaa(lp25
NaNaNaNaNaNaNaNaNaNaNaNaa(lp26
NaNaNaNaNaNaNaNaNaVWorm
p27
aNaNaa(lp28
NaNaNaNaNaNaNaNaNaNaNaNaa(lp29
NaNaNaNaNaNaNaNaNaNaNaNaa(lp30
NaNaNaNaNaNaNaNaNaNaNaNaa(lp31
NaNaNaNaNaNaNaNaNaVWorm
p32
aNaNaa(lp33
NaNaNaNaNaNaNaNaNaNaNaNaa(lp34
NaNaNaNaNaNaNaNaNaNaNaNaa(lp35
NaNaNaNaNaNaNaNaNaNaNaNaa(lp36
NaNaNaNaNaNaNaNaNaNaNaNaa(lp37
NaNaNaNaNaNaNaNaVSpider
p38
aNaNaNaa(lp39
NaNaNaNaNaNaNaNaNaNaNaNaa(lp40
NaNaNaNaNaNaNaNaNaNaNaNaa(lp41
NaNaNaNaNaNaNaNaNaNaNaNaa(lp42
NaNaNaNaNaNaNaVSpider
p43
aNaNaNaNaa(lp44
NaNaNaNaNaNaNaVSpider
p45
aVWorm
p46
aNaNaNaa(lp47
NaNaNaNaNaNaNaNaNaNaNaNaa(lp48
NaNaNaNaNaNaNaNaNaNaNaNaa(lp49
NaNaNaNaNaNaNaNaNaNaNaNaa(lp50
NaNaNaNaNaNaNaNaVSpider
p51
aNaNaNaa(lp52
NaNaNaNaNaNaNaNaNaNaNaNaa(lp53
NaNaNaNaNaNaNaNaVWorm
p54
aNaNaNaa(lp55
NaNaNaNaNaNaNaNaNaNaNaNaa(lp56
NaNaNaNaNaNaNaNaNaNaNaNaa(lp57
NaNaNaNaNaNaNaNaNaNaNaNaa(lp58
NaNaNaNaNaNaNaNaNaNaNaNaa(lp59
NaNaNaNaNaNaNaNaNaNaNaNaa(lp60
NaNaNaNaNaNaNaNaNaVWasp
p61
aNaNaa(lp62
NaNaNaNaNaNaNaNaNaNaNaNaa(lp63
NaNaNaNaNaNaNaNaNaVWasp
p64
aNaNaa(lp65
NaNaNaNaNaNaNaNaNaNaVWorm
p66
aNaa(lp67
NaNaVWasp
p68
aNaNaNaNaNaNaNaNaNaa(lp69
NaNaNaNaNaNaNaNaNaVWasp
p70
aNaNaa(lp71
NaNaNaNaNaNaNaNaNaNaNaNaa(lp72
NaNaNaNaNaNaNaNaNaNaNaNaa(lp73
NaNaNaNaNaNaNaNaNaNaNaNaa(lp74
NaNaNaNaNaNaNaNaNaNaNaNaa(lp75
NaNaNaNaNaNaNaNaNaNaNaNaa(lp76
NaNaNaNaNaNaNaNaNaNaNaNaa(lp77
NaNaNaNaNaNaNaNaNaNaNaNaa(lp78
NaNaNaNaNaNaNaNaNaNaNaNaa(lp79
NaNaNaNaNaNaNaNaNaNaNaNaa(lp80
NaNaNaNaNaNaNaNaNaNaNaNaa(lp81
NaNaNaNaNaNaNaNaNaNaNaNaa(lp82
NaNaNaNaNaNaNaNaNaNaNaNaa(lp83
NaNaNaNaNaNaNaNaNaNaNaNaa(lp84
NaNaNaNaNaNaNaNaNaNaNaNaa(lp85
NaNaNaNaVPod
p86
aNaNaNaNaNaNaNaa(lp87
NaNaNaNaNaNaNaNaNaNaNaNaa(lp88
NaNaNaNaNaNaNaNaNaNaNaNaa(lp89
NaNaNaNaNaNaNaNaNaNaNaNaa(lp90
NaNaNaNaNaNaNaNaNaNaNaNaa(lp91
NaNaNaNaNaNaNaNaNaNaNaNaa(lp92
NaNaNaNaNaNaNaNaNaNaNaNaa(lp93
NaNaNaNaNaNaNaNaNaNaNaNaa(lp94
NaNaNaNaNaNaNaNaNaNaNaNaa(lp95
NaNaNaNaNaNaNaNaNaNaNaNaa(lp96
NaNaNaNaNaNaNaNaNaNaNaNaa(lp97
NaNaNaNaNaNaNaNaNaNaNaNaa(lp98
NaNaNaNaNaNaNaNaNaNaNaNaa(lp99
NaNaNaNaNaNaNaNaNaNaNaNaa(lp100
NaNaNaNaNaNaNaNaNaNaNaNaa(lp101
NaNaNaNaNaNaNaNaNaNaNaNaa(lp102
NaNaNaNaNaNaNaNaNaNaNaNaa(lp103
NaNaNaNaNaNaNaNaNaNaVPod
p104
aNaa(lp105
NaNaNaNaNaNaNaNaNaNaNaNaa(lp106
NaNaNaNaNaNaNaNaNaNaNaNaa(lp107
NaNaNaNaNaNaNaNaNaNaNaNaa(lp108
NaNaNaNaNaNaNaNaNaNaNaNaa(lp109
NaNaNaNaNaNaNaNaNaNaNaNaa(lp110
NaNaNaNaNaNaNaNaNaNaNaNaa(lp111
NaNaNaNaVSpider
p112
aNaNaNaNaNaNaNaa(lp113
NaNaNaNaNaNaNaNaNaNaNaNaa(lp114
NaNaNaNaNaNaNaNaNaNaNaNaa(lp115
NaNaNaNaNaNaNaNaNaNaNaNaa(lp116
NaNaNaNaNaNaNaNaNaNaNaNaa(lp117
NaNaNaNaNaNaNaNaNaNaNaNaa(lp118
NaNaNaNaNaNaNaNaNaNaNaNaa(lp119
NaNaNaVSpider
p120
aNaNaNaNaNaNaNaNaa(lp121
NaNaNaNaNaNaNaNaNaNaNaNaa(lp122
NaNaNaNaNaNaNaNaNaNaNaNaa(lp123
NaNaNaNaNaVWorm
p124
aNaNaNaNaNaNaa(lp125
NaNaNaNaNaNaNaNaNaNaNaNaa(lp126
NaNaNaNaNaNaNaNaNaNaNaNaa(lp127
NaNaNaNaVSpider
p128
aNaNaNaNaNaNaNaa(lp129
NaNaNaNaNaNaNaNaNaNaNaNaa(lp130
NaNaNaNaNaNaNaVWasp
p131
aNaNaNaNaa(lp132
NaNaNaNaNaNaNaNaVWorm
p133
aNaNaNaa(lp134
NaNaNaNaNaNaNaNaNaNaNaNaa(lp135
NaNaNaNaNaNaNaNaNaNaNaNaa(lp136
NaNaNaVSpider
p137
aNaNaNaNaNaNaNaNaa(lp138
NaNaNaNaNaNaNaNaNaNaNaNaa(lp139
NaNaNaNaNaNaNaNaNaNaNaNaa(lp140
NaNaNaNaNaNaNaNaNaNaNaNaa(lp141
NaNaNaNaNaVWasp
p142
aNaNaNaNaNaNaa(lp143
NaNaNaNaNaNaNaNaNaNaNaNaa(lp144
NaNaNaNaNaNaNaNaNaNaNaNaa(lp145
NaNaNaNaNaNaNaNaNaNaNaNaa(lp146
NaNaNaNaNaNaNaNaNaNaNaNaa(lp147
NaNaNaNaNaNaNaNaNaNaNaNaa(lp148
NaNaNaNaNaNaNaNaNaNaNaNaa(lp149
NaNaNaNaNaNaNaNaNaNaNaNaa(lp150
NaNaNaNaNaNaNaNaNaNaNaNaa(lp151
NaNaNaNaNaNaNaNaNaNaNaNaa(lp152
NaNaNaNaNaNaNaNaNaNaNaNaa(lp153
NaNaNaNaNaNaNaNaNaNaNaNaa(lp154
NaNaNaNaNaNaNaNaNaNaNaNaa(lp155
NaNaNaNaNaNaNaNaNaNaNaNaa(lp156
NaNaNaNaNaNaNaNaNaNaNaNaa(lp157
NaNaNaNaNaNaNaNaNaNaNaNaa(lp158
NaNaNaNaNaNaNaNaNaNaNaNaa(lp159
NaNaNaNaNaNaNaNaNaNaNaNaa(lp160
NaNaNaNaNaNaNaNaNaNaNaNaasS'objdef'
p161
(dp162
VButterfly
p163
VButterfly.png
p164
sVLevel_End
p165
VEnd.png
p166
sVShield
p167
VShield.png
p168
sVPlayer_Start
p169
VStart.png
p170
sVLever_Snow
p171
VLever1.png
p172
sVFallingRock
p173
VRock.png
p174
sVWalltorch
p175
VWalltorch.png
p176
sVFirepit
p177
VPit.png
p178
sVButterflyC
p179
VButterflyC.png
p180
sVButterflyB
p181
VButterflyB.png
p182
sVSword
p183
VSword.png
p184
sVTreasureBoxC
p185
VTreasureC_Closed.png
p186
sVTreasureBoxB
p187
VTreasureB_Closed.png
p188
sVTreasureBox
p189
VTreasure_Closed.png
p190
sVObelisk_Snow
p191
VObelisk_Snow.png
p192
ssS'obj'
p193
(lp194
(lp195
NaNaNaNaNaNaNaNaNaNaNaNaa(lp196
NaNaNaNaNaNaNaNaNaNaNaNaa(lp197
NaNaNaNaNaNaVPlayer_Start
p198
aNaNaNaNaNaa(lp199
NaNaNaNaNaNaNaNaNaNaNaNaa(lp200
NaNaVButterflyB
p201
aNaNaNaNaNaNaNaNaNaa(lp202
NaNaNaNaNaNaNaNaNaNaNaNaa(lp203
NaNaNaNaNaNaNaNaNaNaNaNaa(lp204
NaNaNaNaNaNaNaNaNaNaNaNaa(lp205
NaNaNaNaNaNaNaNaNaNaNaNaa(lp206
NaNaNaNaNaNaVButterfly
p207
aNaNaNaNaNaa(lp208
NaNaNaNaNaNaNaNaNaNaNaNaa(lp209
NaNaNaNaNaNaNaNaNaNaNaNaa(lp210
NaNaNaNaNaNaNaNaNaNaNaNaa(lp211
NaNaNaNaNaNaNaNaNaNaNaNaa(lp212
NaNaNaNaNaNaVButterflyB
p213
aNaNaNaNaNaa(lp214
NaNaNaNaNaNaNaVButterflyC
p215
aNaNaNaNaa(lp216
NaNaNaVButterfly
p217
aNaNaNaNaNaNaNaNaa(lp218
NaNaNaNaNaNaNaNaNaNaNaNaa(lp219
NaNaNaNaNaNaNaNaNaVTreasureBox
p220
aNaNaa(lp221
NaNaNaNaNaNaNaNaNaNaNaNaa(lp222
NaNaNaNaNaNaNaNaNaNaNaNaa(lp223
NaNaNaNaNaNaNaNaNaNaNaNaa(lp224
NaNaNaNaNaNaNaNaNaNaNaNaa(lp225
NaNaNaNaNaVButterflyC
p226
aNaNaNaNaNaNaa(lp227
NaNaNaNaNaNaNaNaNaNaNaNaa(lp228
NaNaNaNaNaNaNaNaNaNaNaNaa(lp229
NaNaNaVButterfly
p230
aNaNaNaNaNaNaNaNaa(lp231
NaNaNaNaNaNaNaNaNaNaNaNaa(lp232
NaNaNaNaNaNaNaNaNaNaNaNaa(lp233
NaNaNaNaNaNaNaNaNaNaNaNaa(lp234
NaNaNaNaNaNaNaNaNaNaNaNaa(lp235
NaNaNaNaNaNaNaNaNaNaNaNaa(lp236
NaNaNaNaNaNaNaNaNaNaNaNaa(lp237
NaNaNaNaNaNaNaNaNaNaNaNaa(lp238
NaNaNaNaNaNaNaNaNaNaNaNaa(lp239
NaNaNaNaVButterfly
p240
aNaNaNaNaNaNaNaa(lp241
NaNaVButterflyB
p242
aNaNaNaNaNaNaNaNaNaa(lp243
NaNaNaNaNaNaNaNaNaNaNaNaa(lp244
NaNaNaNaNaNaNaNaNaNaNaNaa(lp245
NaNaNaNaNaNaNaNaNaNaNaNaa(lp246
NaNaNaNaNaNaNaNaNaNaNaNaa(lp247
NaNaNaNaNaNaNaNaNaNaNaNaa(lp248
NaNaNaVTreasureBox
p249
aNaNaNaNaNaNaVTreasureBox
p250
aNaa(lp251
NaNaNaNaNaNaNaNaNaNaNaNaa(lp252
NaNaNaNaNaNaNaNaNaNaNaNaa(lp253
NaNaNaNaNaNaNaNaNaNaNaNaa(lp254
NaNaNaNaNaNaNaNaNaNaNaNaa(lp255
NaNaNaNaNaNaNaNaNaNaNaNaa(lp256
NaNaNaNaNaNaNaNaNaNaNaNaa(lp257
NaNaNaNaNaNaNaNaNaNaNaNaa(lp258
NaNaNaNaNaNaNaNaNaNaNaNaa(lp259
NaNaNaNaNaNaNaNaNaNaNaNaa(lp260
NaNaNaNaNaNaNaNaNaNaNaNaa(lp261
NaVButterflyC
p262
aNaNaNaNaNaNaNaNaNaNaa(lp263
NaNaNaNaNaNaNaNaNaNaNaNaa(lp264
NaNaNaNaNaNaNaNaNaNaNaNaa(lp265
NaNaNaNaNaNaNaNaNaNaNaNaa(lp266
NaNaNaNaNaNaNaNaNaNaNaNaa(lp267
NaNaNaNaNaNaNaNaNaNaNaNaa(lp268
NaNaNaNaNaNaNaNaNaNaNaNaa(lp269
NaNaNaNaNaNaNaNaNaNaNaNaa(lp270
NaNaNaNaNaNaNaNaNaNaNaNaa(lp271
NaNaNaNaNaNaNaNaNaNaNaNaa(lp272
NaNaNaNaNaNaNaNaNaNaNaNaa(lp273
NaNaNaNaNaNaNaNaNaNaNaNaa(lp274
NaNaNaNaNaNaNaNaNaNaNaNaa(lp275
NaNaNaNaNaNaNaNaNaNaNaNaa(lp276
NaNaNaNaNaVTreasureBox
p277
aNaNaNaNaNaNaa(lp278
NaNaNaNaNaVButterfly
p279
aNaNaNaNaNaNaa(lp280
NaNaNaNaNaNaNaNaNaNaNaNaa(lp281
NaNaNaNaNaNaNaNaNaNaNaNaa(lp282
NaNaNaNaNaNaNaNaNaNaVButterfly
p283
aNaa(lp284
NaNaNaNaNaNaNaNaNaNaNaNaa(lp285
NaNaNaNaNaVButterflyB
p286
aNaNaNaNaNaNaa(lp287
NaNaNaNaNaNaNaNaNaNaNaNaa(lp288
NaNaNaNaNaNaNaNaNaNaNaNaa(lp289
NaNaNaNaNaVButterfly
p290
aNaNaNaNaNaNaa(lp291
NaNaNaNaNaNaNaNaNaNaNaNaa(lp292
NaNaNaVButterflyC
p293
aNaNaNaVButterflyC
p294
aNaNaNaNaa(lp295
NaNaNaNaNaNaNaNaNaNaNaNaa(lp296
NaNaNaNaNaNaNaNaNaNaNaNaa(lp297
NaNaNaNaNaNaNaVButterfly
p298
aNaNaNaNaa(lp299
NaNaNaNaNaNaNaVButterflyB
p300
aNaNaVTreasureBox
p301
aNaa(lp302
NaNaNaNaNaVButterfly
p303
aNaNaNaNaNaNaa(lp304
NaNaNaNaNaNaNaNaNaNaNaNaa(lp305
NaNaNaNaNaNaNaNaNaNaNaNaa(lp306
NaNaNaNaNaNaNaNaNaNaNaNaa(lp307
NaNaNaNaNaNaVButterflyC
p308
aNaNaNaNaNaa(lp309
NaNaNaNaNaNaNaNaNaNaNaNaa(lp310
NaNaNaNaNaNaNaNaNaNaNaNaa(lp311
NaNaNaNaNaNaNaNaNaNaNaNaa(lp312
NaNaNaVButterflyC
p313
aNaNaNaNaNaNaNaNaa(lp314
NaNaNaNaNaVButterflyB
p315
aNaNaNaNaNaNaa(lp316
NaNaNaNaNaNaNaNaNaNaNaNaa(lp317
NaNaNaNaNaNaNaNaNaNaNaNaa(lp318
NaNaNaNaNaNaNaNaNaNaNaNaa(lp319
NaNaNaNaNaNaNaNaNaNaNaNaa(lp320
NaNaNaNaNaNaNaNaNaNaNaNaa(lp321
NaNaNaNaNaNaNaNaNaNaNaNaa(lp322
NaNaNaNaNaNaNaNaNaNaNaNaa(lp323
NaNaNaNaNaNaNaNaNaNaNaNaa(lp324
NaNaNaNaNaNaNaNaNaNaNaNaa(lp325
NaNaNaNaNaNaNaNaNaNaNaNaa(lp326
NaNaNaNaNaNaNaNaNaNaNaNaa(lp327
NaNaNaNaNaNaNaNaNaNaNaNaa(lp328
NaNaNaNaNaNaNaNaNaNaNaNaa(lp329
NaNaNaNaNaNaNaNaNaNaNaNaa(lp330
NaNaNaNaNaNaNaNaNaNaNaNaa(lp331
NaNaNaNaNaNaNaNaNaNaNaNaa(lp332
NaNaNaNaNaNaNaNaNaNaNaNaa(lp333
NaNaNaNaNaNaNaNaNaNaNaNaa(lp334
NaNaNaNaNaNaNaNaNaNaNaNaa(lp335
NaNaNaNaNaNaNaNaNaNaNaNaa(lp336
NaNaNaNaNaNaNaVLevel_End
p337
aNaNaNaNaa(lp338
NaNaNaNaNaNaNaNaNaNaNaNaa(lp339
NaNaNaNaNaNaNaNaNaNaNaNaa(lp340
NaNaNaNaNaNaNaNaNaNaNaNaa(lp341
NaNaNaNaNaNaNaNaNaNaNaNaa(lp342
NaNaNaNaNaNaNaNaNaNaNaNaa(lp343
NaNaNaNaNaNaNaNaNaNaNaNaa(lp344
NaNaNaNaNaNaNaNaNaNaNaNaa(lp345
NaNaNaNaNaNaNaNaNaNaNaNaa(lp346
NaNaNaNaNaNaNaNaNaNaNaNaa(lp347
NaNaNaNaNaNaNaNaNaNaNaNaa(lp348
NaNaNaNaNaNaNaNaNaNaNaNaa(lp349
NaNaNaNaNaNaNaNaNaNaNaNaa(lp350
NaNaNaNaNaNaNaNaNaNaNaNaa(lp351
NaNaNaNaNaNaNaNaNaNaNaNaasS'name'
p352
Vsempridge5
p353
sS'map'
p354
(lp355
(lp356
NaNaNa(imapping
Tile
p357
(dp358
S'collidetype'
p359
S'BOX'
p360
sS'type'
p361
VF_GrassRedge
p362
sS'friction'
p363
F1
sS'overhead'
p364
I00
sba(imapping
Tile
p365
(dp366
g359
g360
sg361
VF_Dirt_R1
p367
sg363
F1
sg364
I00
sba(imapping
Tile
p368
(dp369
g359
g360
sg361
VF_Dirt_R1
p370
sg363
F1
sg364
I00
sba(imapping
Tile
p371
(dp372
g359
g360
sg361
VF_Dirt_R1
p373
sg363
F1
sg364
I00
sba(imapping
Tile
p374
(dp375
g359
g360
sg361
VF_Grass->DirtR
p376
sg363
F1
sg364
I00
sba(imapping
Tile
p377
(dp378
g359
g360
sg361
VF_Dirt
p379
sg363
F1
sg364
I00
sba(imapping
Tile
p380
(dp381
g359
g360
sg361
VF_Dirt
p382
sg363
F1
sg364
I00
sba(imapping
Tile
p383
(dp384
g359
g360
sg361
VF_Dirt
p385
sg363
F1
sg364
I00
sba(imapping
Tile
p386
(dp387
g359
g360
sg361
VF_Dirt
p388
sg363
F1
sg364
I00
sbaa(lp389
NaNaNaNaNaNaNa(imapping
Tile
p390
(dp391
g359
g360
sg361
VF_Grass
p392
sg363
F1
sg364
I00
sba(imapping
Tile
p393
(dp394
g359
g360
sg361
VF_Dirt
p395
sg363
F1
sg364
I00
sba(imapping
Tile
p396
(dp397
g359
g360
sg361
VF_Dirt
p398
sg363
F1
sg364
I00
sba(imapping
Tile
p399
(dp400
g359
g360
sg361
VF_Dirt
p401
sg363
F1
sg364
I00
sba(imapping
Tile
p402
(dp403
g359
g360
sg361
VF_Dirt
p404
sg363
F1
sg364
I00
sbaa(lp405
NaNaNaNaNaNaNa(imapping
Tile
p406
(dp407
g359
g360
sg361
VF_Grass
p408
sg363
F1
sg364
I00
sba(imapping
Tile
p409
(dp410
g359
g360
sg361
VF_Dirt
p411
sg363
F1
sg364
I00
sba(imapping
Tile
p412
(dp413
g359
g360
sg361
VF_Dirt
p414
sg363
F1
sg364
I00
sba(imapping
Tile
p415
(dp416
g359
g360
sg361
VF_Dirt
p417
sg363
F1
sg364
I00
sba(imapping
Tile
p418
(dp419
g359
g360
sg361
VF_Dirt
p420
sg363
F1
sg364
I00
sbaa(lp421
NaNaNaNaNaNa(imapping
Tile
p422
(dp423
g359
S'NONE'
p424
sg361
VF_Shrooms2
p425
sg363
F1
sg364
I00
sba(imapping
Tile
p426
(dp427
g359
g360
sg361
VF_Grass_Alt_4
p428
sg363
F1
sg364
I00
sba(imapping
Tile
p429
(dp430
g359
g360
sg361
VF_Dirt
p431
sg363
F1
sg364
I00
sba(imapping
Tile
p432
(dp433
g359
g360
sg361
VF_Dirt
p434
sg363
F1
sg364
I00
sba(imapping
Tile
p435
(dp436
g359
g360
sg361
VF_Dirt
p437
sg363
F1
sg364
I00
sba(imapping
Tile
p438
(dp439
g359
g360
sg361
VF_Dirt
p440
sg363
F1
sg364
I00
sbaa(lp441
NaNaNaNaNaNaNa(imapping
Tile
p442
(dp443
g359
g360
sg361
VF_Grass_Alt_1
p444
sg363
F1
sg364
I00
sba(imapping
Tile
p445
(dp446
g359
g360
sg361
VF_Dirt
p447
sg363
F1
sg364
I00
sba(imapping
Tile
p448
(dp449
g359
g360
sg361
VF_Dirt
p450
sg363
F1
sg364
I00
sba(imapping
Tile
p451
(dp452
g359
g360
sg361
VF_Dirt
p453
sg363
F1
sg364
I00
sba(imapping
Tile
p454
(dp455
g359
g360
sg361
VF_Dirt
p456
sg363
F1
sg364
I00
sbaa(lp457
NaNaNaNaNaNaNa(imapping
Tile
p458
(dp459
g359
g360
sg361
VF_GrassRedge
p460
sg363
F1
sg364
I00
sba(imapping
Tile
p461
(dp462
g359
g360
sg361
VF_Dirt_R1
p463
sg363
F1
sg364
I00
sba(imapping
Tile
p464
(dp465
g359
g360
sg361
VF_Dirt_R2
p466
sg363
F1
sg364
I00
sba(imapping
Tile
p467
(dp468
g359
g360
sg361
VF_Dirt_R1
p469
sg363
F1
sg364
I00
sba(imapping
Tile
p470
(dp471
g359
g360
sg361
VF_Dirt_R2
p472
sg363
F1
sg364
I00
sbaa(lp473
NaNaNaNaNaNaNaNaNaNaNaNaa(lp474
NaNaNaNaNaNaNaNaNaNaNaNaa(lp475
NaNaNaNaNaNaNaNaNaNa(imapping
Tile
p476
(dp477
g359
g360
sg361
VF_GrassLedge
p478
sg363
F1
sg364
I00
sba(imapping
Tile
p479
(dp480
g359
g360
sg361
VF_Dirt_L1
p481
sg363
F1
sg364
I00
sbaa(lp482
NaNaNaNaNaNaNaNaNaNa(imapping
Tile
p483
(dp484
g359
g360
sg361
VF_Grass
p485
sg363
F1
sg364
I00
sba(imapping
Tile
p486
(dp487
g359
g360
sg361
VF_Dirt
p488
sg363
F1
sg364
I00
sbaa(lp489
NaNaNaNaNaNaNaNaNa(imapping
Tile
p490
(dp491
g359
S'NONE_R'
p492
sg361
VF_Shrooms1
p493
sg363
F1
sg364
I00
sba(imapping
Tile
p494
(dp495
g359
g360
sg361
VF_Grass_Alt_4
p496
sg363
F1
sg364
I00
sba(imapping
Tile
p497
(dp498
g359
g360
sg361
VF_Dirt
p499
sg363
F1
sg364
I00
sbaa(lp500
NaNaNaNaNaNaNaNaNaNa(imapping
Tile
p501
(dp502
g359
g360
sg361
VF_Grass_Alt_5
p503
sg363
F1
sg364
I00
sba(imapping
Tile
p504
(dp505
g359
g360
sg361
VF_Dirt
p506
sg363
F1
sg364
I00
sbaa(lp507
NaNaNaNaNaNaNaNaNaNa(imapping
Tile
p508
(dp509
g359
g360
sg361
VF_Grass
p510
sg363
F1
sg364
I00
sba(imapping
Tile
p511
(dp512
g359
g360
sg361
VF_Dirt_Alt_4
p513
sg363
F1
sg364
I00
sbaa(lp514
NaNaNaNaNaNaNaNaNaNa(imapping
Tile
p515
(dp516
g359
g360
sg361
VF_Grass->Dirttop
p517
sg363
F1
sg364
I00
sba(imapping
Tile
p518
(dp519
g359
g360
sg361
VF_Dirt
p520
sg363
F1
sg364
I00
sbaa(lp521
NaNaNaNaNaNaNaNaNaNa(imapping
Tile
p522
(dp523
g359
g360
sg361
VF_Dirttop
p524
sg363
F1
sg364
I00
sba(imapping
Tile
p525
(dp526
g359
g360
sg361
VF_Dirt
p527
sg363
F1
sg364
I00
sbaa(lp528
NaNaNaNaNaNaNaNaNaNa(imapping
Tile
p529
(dp530
g359
g360
sg361
VF_Dirttop
p531
sg363
F1
sg364
I00
sba(imapping
Tile
p532
(dp533
g359
g360
sg361
VF_Dirt
p534
sg363
F1
sg364
I00
sbaa(lp535
NaNaNaNaNaNaNaNaNaNa(imapping
Tile
p536
(dp537
g359
g360
sg361
VF_Dirttop
p538
sg363
F1
sg364
I00
sba(imapping
Tile
p539
(dp540
g359
g360
sg361
VF_Dirt
p541
sg363
F1
sg364
I00
sbaa(lp542
NaNaNaNaNaNaNaNaNaNa(imapping
Tile
p543
(dp544
g359
g360
sg361
VF_Dirttop
p545
sg363
F1
sg364
I00
sba(imapping
Tile
p546
(dp547
g359
g360
sg361
VF_Dirt_Alt_4
p548
sg363
F1
sg364
I00
sbaa(lp549
NaNaNaNaNaNaNaNaNaNa(imapping
Tile
p550
(dp551
g359
g360
sg361
VF_Dirttop->Grass
p552
sg363
F1
sg364
I00
sba(imapping
Tile
p553
(dp554
g359
g360
sg361
VF_Dirt
p555
sg363
F1
sg364
I00
sbaa(lp556
NaNaNaNaNaNaNaNaNaNa(imapping
Tile
p557
(dp558
g359
g360
sg361
VF_Grass
p559
sg363
F1
sg364
I00
sba(imapping
Tile
p560
(dp561
g359
g360
sg361
VF_Dirt
p562
sg363
F1
sg364
I00
sbaa(lp563
NaNaNaNaNaNaNaNaNaNa(imapping
Tile
p564
(dp565
g359
g360
sg361
VF_Grass_Alt_1
p566
sg363
F1
sg364
I00
sba(imapping
Tile
p567
(dp568
g359
g360
sg361
VF_Dirt
p569
sg363
F1
sg364
I00
sbaa(lp570
NaNaNaNaNaNaNaNaNaNa(imapping
Tile
p571
(dp572
g359
g360
sg361
VF_GrassRedge
p573
sg363
F1
sg364
I00
sba(imapping
Tile
p574
(dp575
g359
g360
sg361
VF_Dirt_R2
p576
sg363
F1
sg364
I00
sbaa(lp577
NaNaNaNaNaNaNaNaNaNaNaNaa(lp578
NaNaNaNaNaNaNaNaNa(imapping
Tile
p579
(dp580
g359
g360
sg361
VF_GrassLedge
p581
sg363
F1
sg364
I00
sba(imapping
Tile
p582
(dp583
g359
g360
sg361
VF_Dirt_L1
p584
sg363
F1
sg364
I00
sba(imapping
Tile
p585
(dp586
g359
g360
sg361
VF_Dirt_L1
p587
sg363
F1
sg364
I00
sbaa(lp588
NaNaNaNaNaNaNaNaNa(imapping
Tile
p589
(dp590
g359
S'LEFT_INCLINATION'
p591
sg361
VF_Left_Ramp
p592
sg363
F1
sg364
I00
sba(imapping
Tile
p593
(dp594
g359
g360
sg361
VF_RampJoinL
p595
sg363
F1
sg364
I00
sba(imapping
Tile
p596
(dp597
g359
g360
sg361
VF_Dirt
p598
sg363
F1
sg364
I00
sbaa(lp599
NaNaNaNaNaNaNaNaNa(imapping
Tile
p600
(dp601
g359
S'RIGHT_HINCLINATION1'
p602
sg361
VF_Right_Halframp1
p603
sg363
F1
sg364
I00
sba(imapping
Tile
p604
(dp605
g359
g360
sg361
VF_HalframpJoinR
p606
sg363
F1
sg364
I00
sba(imapping
Tile
p607
(dp608
g359
g360
sg361
VF_Dirt
p609
sg363
F1
sg364
I00
sbaa(lp610
NaNaNaNaNaNaNaNaNa(imapping
Tile
p611
(dp612
g359
S'RIGHT_HINCLINATION2'
p613
sg361
VF_Right_Halframp2
p614
sg363
F1
sg364
I00
sba(imapping
Tile
p615
(dp616
g359
g360
sg361
VF_Dirt
p617
sg363
F1
sg364
I00
sba(imapping
Tile
p618
(dp619
g359
g360
sg361
VF_Dirt
p620
sg363
F1
sg364
I00
sbaa(lp621
NaNaNaNaNaNaNaNaNa(imapping
Tile
p622
(dp623
g359
g591
sg361
VF_Left_Ramp
p624
sg363
F1
sg364
I00
sba(imapping
Tile
p625
(dp626
g359
g360
sg361
VF_RampJoinL
p627
sg363
F1
sg364
I00
sba(imapping
Tile
p628
(dp629
g359
g360
sg361
VF_Dirt
p630
sg363
F1
sg364
I00
sbaa(lp631
NaNaNaNaNaNaNaNaNa(imapping
Tile
p632
(dp633
g359
g602
sg361
VF_Right_Halframp1
p634
sg363
F1
sg364
I00
sba(imapping
Tile
p635
(dp636
g359
g360
sg361
VF_HalframpJoinR
p637
sg363
F1
sg364
I00
sba(imapping
Tile
p638
(dp639
g359
g360
sg361
VF_Dirt_Alt_2
p640
sg363
F1
sg364
I00
sbaa(lp641
NaNaNaNaNaNaNaNaNa(imapping
Tile
p642
(dp643
g359
g613
sg361
VF_Right_Halframp2
p644
sg363
F1
sg364
I00
sba(imapping
Tile
p645
(dp646
g359
g360
sg361
VF_Dirt
p647
sg363
F1
sg364
I00
sba(imapping
Tile
p648
(dp649
g359
g360
sg361
VF_Dirt
p650
sg363
F1
sg364
I00
sbaa(lp651
NaNaNaNaNaNaNaNaNa(imapping
Tile
p652
(dp653
g359
S'LEFT_HINCLINATION2'
p654
sg361
VF_Left_Halframp2
p655
sg363
F1
sg364
I00
sba(imapping
Tile
p656
(dp657
g359
g360
sg361
VF_Dirt
p658
sg363
F1
sg364
I00
sba(imapping
Tile
p659
(dp660
g359
g360
sg361
VF_Dirt
p661
sg363
F1
sg364
I00
sbaa(lp662
NaNaNaNaNaNaNaNaNa(imapping
Tile
p663
(dp664
g359
S'LEFT_HINCLINATION1'
p665
sg361
VF_Left_Halframp1
p666
sg363
F1
sg364
I00
sba(imapping
Tile
p667
(dp668
g359
g360
sg361
VF_HalframpJoinL
p669
sg363
F1
sg364
I00
sba(imapping
Tile
p670
(dp671
g359
g360
sg361
VF_Dirt
p672
sg363
F1
sg364
I00
sbaa(lp673
NaNaNaNaNaNaNaNaNa(imapping
Tile
p674
(dp675
g359
S'RIGHT_INCLINATION'
p676
sg361
VF_Right_Ramp
p677
sg363
F1
sg364
I00
sba(imapping
Tile
p678
(dp679
g359
g360
sg361
VF_RampJoinR
p680
sg363
F1
sg364
I00
sba(imapping
Tile
p681
(dp682
g359
g360
sg361
VF_Dirt
p683
sg363
F1
sg364
I00
sbaa(lp684
NaNaNaNaNaNaNaNaNa(imapping
Tile
p685
(dp686
g359
g654
sg361
VF_Left_Halframp2
p687
sg363
F1
sg364
I00
sba(imapping
Tile
p688
(dp689
g359
g360
sg361
VF_Dirt
p690
sg363
F1
sg364
I00
sba(imapping
Tile
p691
(dp692
g359
g360
sg361
VF_Dirt_Alt_2
p693
sg363
F1
sg364
I00
sbaa(lp694
NaNaNaNaNaNaNaNaNa(imapping
Tile
p695
(dp696
g359
g665
sg361
VF_Left_Halframp1
p697
sg363
F1
sg364
I00
sba(imapping
Tile
p698
(dp699
g359
g360
sg361
VF_HalframpJoinL
p700
sg363
F1
sg364
I00
sba(imapping
Tile
p701
(dp702
g359
g360
sg361
VF_Dirt
p703
sg363
F1
sg364
I00
sbaa(lp704
NaNaNaNaNaNaNaNaNa(imapping
Tile
p705
(dp706
g359
g676
sg361
VF_Right_Ramp
p707
sg363
F1
sg364
I00
sba(imapping
Tile
p708
(dp709
g359
g360
sg361
VF_RampJoinR
p710
sg363
F1
sg364
I00
sba(imapping
Tile
p711
(dp712
g359
g360
sg361
VF_Dirt
p713
sg363
F1
sg364
I00
sbaa(lp714
NaNaNaNaNaNaNaNaNa(imapping
Tile
p715
(dp716
g359
g360
sg361
VF_GrassRedge
p717
sg363
F1
sg364
I00
sba(imapping
Tile
p718
(dp719
g359
g360
sg361
VF_Dirt_R1
p720
sg363
F1
sg364
I00
sba(imapping
Tile
p721
(dp722
g359
g360
sg361
VF_Dirt_R1
p723
sg363
F1
sg364
I00
sbaa(lp724
NaNaNaNaNaNaNaNaNaNaNaNaa(lp725
NaNaNaNaNaNaNaNaNaNaNaNaa(lp726
NaNaNa(imapping
Tile
p727
(dp728
g359
g492
sg361
VF_Shrooms1
p729
sg363
F1
sg364
I00
sba(imapping
Tile
p730
(dp731
g359
g360
sg361
VF_GrassLedge
p732
sg363
F1
sg364
I00
sba(imapping
Tile
p733
(dp734
g359
g360
sg361
VF_Dirt_BL
p735
sg363
F1
sg364
I00
sbaNaNaNaNaNa(imapping
Tile
p736
(dp737
g359
g360
sg361
VF_GrassLedge
p738
sg363
F1
sg364
I00
sbaa(lp739
NaNaNaNa(imapping
Tile
p740
(dp741
g359
g360
sg361
VF_Grass->Dirttop
p742
sg363
F1
sg364
I00
sba(imapping
Tile
p743
(dp744
g359
g360
sg361
VF_Dirtb
p745
sg363
F1
sg364
I00
sbaNaNaNaNaNa(imapping
Tile
p746
(dp747
g359
g360
sg361
VF_Grass
p748
sg363
F1
sg364
I00
sbaa(lp749
NaNaNaNa(imapping
Tile
p750
(dp751
g359
g360
sg361
VF_Dirttop
p752
sg363
F1
sg364
I00
sba(imapping
Tile
p753
(dp754
g359
g360
sg361
VF_Dirtb2
p755
sg363
F1
sg364
I00
sbaNaNaNaNa(imapping
Tile
p756
(dp757
g359
g492
sg361
VF_Stump
p758
sg363
F1
sg364
I00
sba(imapping
Tile
p759
(dp760
g359
g360
sg361
VF_Grass_Alt_5
p761
sg363
F1
sg364
I00
sbaa(lp762
NaNaNaNa(imapping
Tile
p763
(dp764
g359
g360
sg361
VF_Dirttop
p765
sg363
F1
sg364
I00
sba(imapping
Tile
p766
(dp767
g359
g360
sg361
VF_Dirtb2
p768
sg363
F1
sg364
I00
sbaNaNaNaNaNa(imapping
Tile
p769
(dp770
g359
g360
sg361
VF_Grass_Alt_3
p771
sg363
F1
sg364
I00
sbaa(lp772
NaNaNaNa(imapping
Tile
p773
(dp774
g359
g360
sg361
VF_Dirttop->Grass
p775
sg363
F1
sg364
I00
sba(imapping
Tile
p776
(dp777
g359
g360
sg361
VF_Dirtb
p778
sg363
F1
sg364
I00
sbaNaNaNaNaNa(imapping
Tile
p779
(dp780
g359
g360
sg361
VF_Grass_Alt_3
p781
sg363
F1
sg364
I00
sbaa(lp782
NaNaNaNa(imapping
Tile
p783
(dp784
g359
g360
sg361
VF_GrassRedge
p785
sg363
F1
sg364
I00
sba(imapping
Tile
p786
(dp787
g359
g360
sg361
VF_Dirt_BR
p788
sg363
F1
sg364
I00
sbaNaNaNaNa(imapping
Tile
p789
(dp790
g359
g424
sg361
VF_Shrooms2
p791
sg363
F1
sg364
I00
sba(imapping
Tile
p792
(dp793
g359
g360
sg361
VF_Grass
p794
sg363
F1
sg364
I00
sbaa(lp795
NaNaNaNaNaNaNaNaNaNaNa(imapping
Tile
p796
(dp797
g359
g360
sg361
VF_GrassRedge
p798
sg363
F1
sg364
I00
sbaa(lp799
NaNaNaNaNaNaNaNaNaNaNaNaa(lp800
NaNaNaNa(imapping
Tile
p801
(dp802
g359
g360
sg361
VF_GrassLedge
p803
sg363
F1
sg364
I00
sba(imapping
Tile
p804
(dp805
g359
g360
sg361
VF_Dirt_BL
p806
sg363
F1
sg364
I00
sbaNaNaNaNaNaNaa(lp807
NaNaNaNa(imapping
Tile
p808
(dp809
g359
g360
sg361
VF_Grass
p810
sg363
F1
sg364
I00
sba(imapping
Tile
p811
(dp812
g359
g360
sg361
VF_Dirtb2
p813
sg363
F1
sg364
I00
sbaNaNaNaNaNa(imapping
Tile
p814
(dp815
g359
g360
sg361
VF_GrassLedge
p816
sg363
F1
sg364
I00
sbaa(lp817
NaNaNa(imapping
Tile
p818
(dp819
g359
g492
sg361
VF_Shrooms3
p820
sg363
F1
sg364
I00
sba(imapping
Tile
p821
(dp822
g359
g360
sg361
VF_Grass_Alt_1
p823
sg363
F1
sg364
I00
sba(imapping
Tile
p824
(dp825
g359
g360
sg361
VF_Dirt
p826
sg363
F1
sg364
I00
sba(imapping
Tile
p827
(dp828
g359
g360
sg361
VF_Dirt_BL
p829
sg363
F1
sg364
I00
sbaNaNaNa(imapping
Tile
p830
(dp831
g359
g602
sg361
VF_Right_Halframp1
p832
sg363
F1
sg364
I00
sba(imapping
Tile
p833
(dp834
g359
g360
sg361
VF_RampJoinR
p835
sg363
F1
sg364
I00
sbaa(lp836
NaNaNaNa(imapping
Tile
p837
(dp838
g359
g360
sg361
VF_Grass
p839
sg363
F1
sg364
I00
sba(imapping
Tile
p840
(dp841
g359
g360
sg361
VF_Dirt
p842
sg363
F1
sg364
I00
sba(imapping
Tile
p843
(dp844
g359
g360
sg361
VF_Dirtb
p845
sg363
F1
sg364
I00
sbaNaNaNa(imapping
Tile
p846
(dp847
g359
g613
sg361
VF_Right_Halframp2
p848
sg363
F1
sg364
I00
sba(imapping
Tile
p849
(dp850
g359
g360
sg361
VF_Dirt
p851
sg363
F1
sg364
I00
sbaa(lp852
NaNaNaNa(imapping
Tile
p853
(dp854
g359
g360
sg361
VF_Grass_Alt_4
p855
sg363
F1
sg364
I00
sba(imapping
Tile
p856
(dp857
g359
g360
sg361
VF_Dirt
p858
sg363
F1
sg364
I00
sba(imapping
Tile
p859
(dp860
g359
g360
sg361
VF_Dirtb2
p861
sg363
F1
sg364
I00
sbaNaNaNa(imapping
Tile
p862
(dp863
g359
g360
sg361
VF_Grass
p864
sg363
F1
sg364
I00
sba(imapping
Tile
p865
(dp866
g359
g360
sg361
VF_Dirt
p867
sg363
F1
sg364
I00
sbaa(lp868
NaNaNa(imapping
Tile
p869
(dp870
g359
g424
sg361
VF_Tuft1
p871
sg363
F1
sg364
I00
sba(imapping
Tile
p872
(dp873
g359
g360
sg361
VF_Grass_Alt_5
p874
sg363
F1
sg364
I00
sba(imapping
Tile
p875
(dp876
g359
g360
sg361
VF_Dirt_Alt_2
p877
sg363
F1
sg364
I00
sba(imapping
Tile
p878
(dp879
g359
g360
sg361
VF_Dirtb
p880
sg363
F1
sg364
I00
sbaNaNaNa(imapping
Tile
p881
(dp882
g359
g360
sg361
VF_Grass_Alt_3
p883
sg363
F1
sg364
I00
sba(imapping
Tile
p884
(dp885
g359
g360
sg361
VF_Dirt_Alt_2
p886
sg363
F1
sg364
I00
sbaa(lp887
NaNaNa(imapping
Tile
p888
(dp889
g359
g424
sg361
VF_Tuft2
p890
sg363
F1
sg364
I00
sba(imapping
Tile
p891
(dp892
g359
g360
sg361
VF_Grass_Alt_2
p893
sg363
F1
sg364
I00
sba(imapping
Tile
p894
(dp895
g359
g360
sg361
VF_Dirt
p896
sg363
F1
sg364
I00
sba(imapping
Tile
p897
(dp898
g359
g360
sg361
VF_Dirtb2
p899
sg363
F1
sg364
I00
sbaNaNa(imapping
Tile
p900
(dp901
g359
g492
sg361
VF_Stump
p902
sg363
F1
sg364
I00
sba(imapping
Tile
p903
(dp904
g359
g360
sg361
VF_Grass
p905
sg363
F1
sg364
I00
sba(imapping
Tile
p906
(dp907
g359
g360
sg361
VF_Dirt
p908
sg363
F1
sg364
I00
sbaa(lp909
NaNaNa(imapping
Tile
p910
(dp911
g359
g424
sg361
VF_Shrooms2
p912
sg363
F1
sg364
I00
sba(imapping
Tile
p913
(dp914
g359
g360
sg361
VF_Grass
p915
sg363
F1
sg364
I00
sba(imapping
Tile
p916
(dp917
g359
g360
sg361
VF_Dirt
p918
sg363
F1
sg364
I00
sba(imapping
Tile
p919
(dp920
g359
g360
sg361
VF_Dirt_BR
p921
sg363
F1
sg364
I00
sbaNaNa(imapping
Tile
p922
(dp923
g359
g424
sg361
VF_Tuft1
p924
sg363
F1
sg364
I00
sba(imapping
Tile
p925
(dp926
g359
g360
sg361
VF_Grass
p927
sg363
F1
sg364
I00
sba(imapping
Tile
p928
(dp929
g359
g360
sg361
VF_Dirt
p930
sg363
F1
sg364
I00
sbaa(lp931
NaNaNaNa(imapping
Tile
p932
(dp933
g359
g360
sg361
VF_Grass
p934
sg363
F1
sg364
I00
sba(imapping
Tile
p935
(dp936
g359
g360
sg361
VF_Dirtb
p937
sg363
F1
sg364
I00
sbaNaNaNa(imapping
Tile
p938
(dp939
g359
g676
sg361
VF_Right_Ramp
p940
sg363
F1
sg364
I00
sba(imapping
Tile
p941
(dp942
g359
g360
sg361
VF_RampJoinR
p943
sg363
F1
sg364
I00
sba(imapping
Tile
p944
(dp945
g359
g360
sg361
VF_Dirt
p946
sg363
F1
sg364
I00
sbaa(lp947
NaNaNaNa(imapping
Tile
p948
(dp949
g359
g360
sg361
VF_GrassRedge
p950
sg363
F1
sg364
I00
sba(imapping
Tile
p951
(dp952
g359
g360
sg361
VF_Dirt_BR
p953
sg363
F1
sg364
I00
sbaNaNa(imapping
Tile
p954
(dp955
g359
g676
sg361
VF_Right_Ramp
p956
sg363
F1
sg364
I00
sba(imapping
Tile
p957
(dp958
g359
g360
sg361
VF_RampJoinR
p959
sg363
F1
sg364
I00
sba(imapping
Tile
p960
(dp961
g359
g360
sg361
VF_Dirt
p962
sg363
F1
sg364
I00
sba(imapping
Tile
p963
(dp964
g359
g360
sg361
VF_Dirt
p965
sg363
F1
sg364
I00
sbaa(lp966
NaNaNaNaNaNaNa(imapping
Tile
p967
(dp968
g359
g676
sg361
VF_Right_Ramp
p969
sg363
F1
sg364
I00
sba(imapping
Tile
p970
(dp971
g359
g360
sg361
VF_RampJoinR
p972
sg363
F1
sg364
I00
sba(imapping
Tile
p973
(dp974
g359
g360
sg361
VF_Dirt
p975
sg363
F1
sg364
I00
sba(imapping
Tile
p976
(dp977
g359
g360
sg361
VF_Dirt
p978
sg363
F1
sg364
I00
sba(imapping
Tile
p979
(dp980
g359
g360
sg361
VF_Dirt
p981
sg363
F1
sg364
I00
sbaa(lp982
NaNaNaNaNaNa(imapping
Tile
p983
(dp984
g359
g676
sg361
VF_Right_Ramp
p985
sg363
F1
sg364
I00
sba(imapping
Tile
p986
(dp987
g359
g360
sg361
VF_RampJoinR
p988
sg363
F1
sg364
I00
sba(imapping
Tile
p989
(dp990
g359
g360
sg361
VF_Dirt
p991
sg363
F1
sg364
I00
sba(imapping
Tile
p992
(dp993
g359
g360
sg361
VF_Dirt
p994
sg363
F1
sg364
I00
sba(imapping
Tile
p995
(dp996
g359
g360
sg361
VF_Dirt
p997
sg363
F1
sg364
I00
sba(imapping
Tile
p998
(dp999
g359
g360
sg361
VF_Dirt
p1000
sg363
F1
sg364
I00
sbaa(lp1001
NaNaNaNaNa(imapping
Tile
p1002
(dp1003
g359
g676
sg361
VF_Right_Ramp
p1004
sg363
F1
sg364
I00
sba(imapping
Tile
p1005
(dp1006
g359
g360
sg361
VF_RampJoinR
p1007
sg363
F1
sg364
I00
sba(imapping
Tile
p1008
(dp1009
g359
g360
sg361
VF_Dirt
p1010
sg363
F1
sg364
I00
sba(imapping
Tile
p1011
(dp1012
g359
g360
sg361
VF_Dirt
p1013
sg363
F1
sg364
I00
sba(imapping
Tile
p1014
(dp1015
g359
g360
sg361
VF_Dirt_Alt_2
p1016
sg363
F1
sg364
I00
sba(imapping
Tile
p1017
(dp1018
g359
g360
sg361
VF_Dirt
p1019
sg363
F1
sg364
I00
sba(imapping
Tile
p1020
(dp1021
g359
g360
sg361
VF_Dirt_Alt_1
p1022
sg363
F1
sg364
I00
sbaa(lp1023
NaNaNaNa(imapping
Tile
p1024
(dp1025
g359
g424
sg361
VF_Tuft1
p1026
sg363
F1
sg364
I00
sba(imapping
Tile
p1027
(dp1028
g359
g360
sg361
VF_Grass
p1029
sg363
F1
sg364
I00
sba(imapping
Tile
p1030
(dp1031
g359
g360
sg361
VF_Dirt
p1032
sg363
F1
sg364
I00
sba(imapping
Tile
p1033
(dp1034
g359
g360
sg361
VF_Dirt
p1035
sg363
F1
sg364
I00
sba(imapping
Tile
p1036
(dp1037
g359
g360
sg361
VF_Dirt
p1038
sg363
F1
sg364
I00
sba(imapping
Tile
p1039
(dp1040
g359
g360
sg361
VF_Dirt
p1041
sg363
F1
sg364
I00
sba(imapping
Tile
p1042
(dp1043
g359
g360
sg361
VF_Dirt
p1044
sg363
F1
sg364
I00
sba(imapping
Tile
p1045
(dp1046
g359
g360
sg361
VF_Dirt
p1047
sg363
F1
sg364
I00
sbaa(lp1048
NaNaNaNa(imapping
Tile
p1049
(dp1050
g359
g424
sg361
VF_Tuft1
p1051
sg363
F1
sg364
I00
sba(imapping
Tile
p1052
(dp1053
g359
g360
sg361
VF_Grass
p1054
sg363
F1
sg364
I00
sba(imapping
Tile
p1055
(dp1056
g359
g360
sg361
VF_Dirt
p1057
sg363
F1
sg364
I00
sba(imapping
Tile
p1058
(dp1059
g359
g360
sg361
VF_Dirt_Alt_2
p1060
sg363
F1
sg364
I00
sba(imapping
Tile
p1061
(dp1062
g359
g360
sg361
VF_Dirt
p1063
sg363
F1
sg364
I00
sba(imapping
Tile
p1064
(dp1065
g359
g360
sg361
VF_Dirt
p1066
sg363
F1
sg364
I00
sba(imapping
Tile
p1067
(dp1068
g359
g360
sg361
VF_Dirt_Alt_2
p1069
sg363
F1
sg364
I00
sba(imapping
Tile
p1070
(dp1071
g359
g360
sg361
VF_Dirt
p1072
sg363
F1
sg364
I00
sbaa(lp1073
NaNaNaNaNa(imapping
Tile
p1074
(dp1075
g359
g360
sg361
VF_Grass_Alt_2
p1076
sg363
F1
sg364
I00
sba(imapping
Tile
p1077
(dp1078
g359
g360
sg361
VF_Dirt
p1079
sg363
F1
sg364
I00
sba(imapping
Tile
p1080
(dp1081
g359
g360
sg361
VF_Dirt
p1082
sg363
F1
sg364
I00
sba(imapping
Tile
p1083
(dp1084
g359
g360
sg361
VF_Dirt
p1085
sg363
F1
sg364
I00
sba(imapping
Tile
p1086
(dp1087
g359
g360
sg361
VF_Dirt_Alt_1
p1088
sg363
F1
sg364
I00
sba(imapping
Tile
p1089
(dp1090
g359
g360
sg361
VF_Dirt
p1091
sg363
F1
sg364
I00
sba(imapping
Tile
p1092
(dp1093
g359
g360
sg361
VF_Dirt
p1094
sg363
F1
sg364
I00
sbaa(lp1095
NaNaNaNa(imapping
Tile
p1096
(dp1097
g359
g424
sg361
VF_Tuft2
p1098
sg363
F1
sg364
I00
sba(imapping
Tile
p1099
(dp1100
g359
g360
sg361
VF_Grass
p1101
sg363
F1
sg364
I00
sba(imapping
Tile
p1102
(dp1103
g359
g360
sg361
VF_Dirt
p1104
sg363
F1
sg364
I00
sba(imapping
Tile
p1105
(dp1106
g359
g360
sg361
VF_Dirt
p1107
sg363
F1
sg364
I00
sba(imapping
Tile
p1108
(dp1109
g359
g360
sg361
VF_Dirt
p1110
sg363
F1
sg364
I00
sba(imapping
Tile
p1111
(dp1112
g359
g360
sg361
VF_Dirt
p1113
sg363
F1
sg364
I00
sba(imapping
Tile
p1114
(dp1115
g359
g360
sg361
VF_Dirt
p1116
sg363
F1
sg364
I00
sba(imapping
Tile
p1117
(dp1118
g359
g360
sg361
VF_Dirt
p1119
sg363
F1
sg364
I00
sbaa(lp1120
NaNaNaNa(imapping
Tile
p1121
(dp1122
g359
g492
sg361
VF_Shrooms1
p1123
sg363
F1
sg364
I00
sba(imapping
Tile
p1124
(dp1125
g359
g360
sg361
VF_Grass_Alt_5
p1126
sg363
F1
sg364
I00
sba(imapping
Tile
p1127
(dp1128
g359
g360
sg361
VF_Dirt
p1129
sg363
F1
sg364
I00
sba(imapping
Tile
p1130
(dp1131
g359
g360
sg361
VF_Dirt
p1132
sg363
F1
sg364
I00
sba(imapping
Tile
p1133
(dp1134
g359
g360
sg361
VF_Dirt
p1135
sg363
F1
sg364
I00
sba(imapping
Tile
p1136
(dp1137
g359
g360
sg361
VF_Dirt
p1138
sg363
F1
sg364
I00
sba(imapping
Tile
p1139
(dp1140
g359
g360
sg361
VF_Dirt
p1141
sg363
F1
sg364
I00
sba(imapping
Tile
p1142
(dp1143
g359
g360
sg361
VF_Dirt
p1144
sg363
F1
sg364
I00
sbaa(lp1145
NaNaNaNaNa(imapping
Tile
p1146
(dp1147
g359
g360
sg361
VF_GrassRedge
p1148
sg363
F1
sg364
I00
sba(imapping
Tile
p1149
(dp1150
g359
g360
sg361
VF_Dirt_R1
p1151
sg363
F1
sg364
I00
sba(imapping
Tile
p1152
(dp1153
g359
g360
sg361
VF_Dirt_R2
p1154
sg363
F1
sg364
I00
sba(imapping
Tile
p1155
(dp1156
g359
g360
sg361
VF_Dirt_R1
p1157
sg363
F1
sg364
I00
sba(imapping
Tile
p1158
(dp1159
g359
g360
sg361
VF_Dirt_R2
p1160
sg363
F1
sg364
I00
sba(imapping
Tile
p1161
(dp1162
g359
g360
sg361
VF_Dirt_R1
p1163
sg363
F1
sg364
I00
sba(imapping
Tile
p1164
(dp1165
g359
g360
sg361
VF_Dirt_R1
p1166
sg363
F1
sg364
I00
sbaa(lp1167
NaNaNaNaNaNaNaNaNaNaNaNaa(lp1168
NaNaNaNaNaNa(imapping
Tile
p1169
(dp1170
g359
g360
sg361
VF_GrassLedge
p1171
sg363
F1
sg364
I00
sba(imapping
Tile
p1172
(dp1173
g359
g360
sg361
VF_Dirt_BL
p1174
sg363
F1
sg364
I00
sbaNaNaNaNaa(lp1175
NaNaNaNaNaNa(imapping
Tile
p1176
(dp1177
g359
g360
sg361
VF_GrassRedge
p1178
sg363
F1
sg364
I00
sba(imapping
Tile
p1179
(dp1180
g359
g360
sg361
VF_Dirt_BR
p1181
sg363
F1
sg364
I00
sbaNaNaNaNaa(lp1182
NaNaNaNaNaNaNaNaNaNaNaNaa(lp1183
NaNaNaNaNaNaNa(imapping
Tile
p1184
(dp1185
g359
g360
sg361
VF_GrassLedge
p1186
sg363
F1
sg364
I00
sba(imapping
Tile
p1187
(dp1188
g359
g360
sg361
VF_Dirt_BL
p1189
sg363
F1
sg364
I00
sbaNaNaNaa(lp1190
NaNaNaNaNaNa(imapping
Tile
p1191
(dp1192
g359
g424
sg361
VF_Tuft2
p1193
sg363
F1
sg364
I00
sba(imapping
Tile
p1194
(dp1195
g359
g360
sg361
VF_GrassRedge
p1196
sg363
F1
sg364
I00
sba(imapping
Tile
p1197
(dp1198
g359
g360
sg361
VF_Dirt_BR
p1199
sg363
F1
sg364
I00
sbaNaNaNaa(lp1200
NaNaNaNaNaNaNaNaNaNaNaNaa(lp1201
NaNaNaNaNaNaNaNa(imapping
Tile
p1202
(dp1203
g359
g360
sg361
VF_GrassLedge
p1204
sg363
F1
sg364
I00
sba(imapping
Tile
p1205
(dp1206
g359
g360
sg361
VF_Dirt_BL
p1207
sg363
F1
sg364
I00
sbaNaNaa(lp1208
NaNaNaNaNaNaNaNa(imapping
Tile
p1209
(dp1210
g359
g360
sg361
VF_GrassRedge
p1211
sg363
F1
sg364
I00
sba(imapping
Tile
p1212
(dp1213
g359
g360
sg361
VF_Dirt_BR
p1214
sg363
F1
sg364
I00
sbaNaNaa(lp1215
NaNaNaNaNaNaNaNaNaNaNaNaa(lp1216
NaNaNaNaNaNaNaNaNaNa(imapping
Tile
p1217
(dp1218
g359
g360
sg361
VF_GrassLedge
p1219
sg363
F1
sg364
I00
sba(imapping
Tile
p1220
(dp1221
g359
g360
sg361
VF_Dirt_L1
p1222
sg363
F1
sg364
I00
sbaa(lp1223
NaNaNaNaNaNaNaNaNaNa(imapping
Tile
p1224
(dp1225
g359
g654
sg361
VF_Left_Halframp2
p1226
sg363
F1
sg364
I00
sba(imapping
Tile
p1227
(dp1228
g359
g360
sg361
VF_Dirt_Alt_4
p1229
sg363
F1
sg364
I00
sbaa(lp1230
NaNaNaNaNaNaNaNaNaNa(imapping
Tile
p1231
(dp1232
g359
g665
sg361
VF_Left_Halframp1
p1233
sg363
F1
sg364
I00
sba(imapping
Tile
p1234
(dp1235
g359
g360
sg361
VF_HalframpJoinL
p1236
sg363
F1
sg364
I00
sbaa(lp1237
NaNaNaNaNaNaNaNaNaNaNa(imapping
Tile
p1238
(dp1239
g359
g360
sg361
VF_Grass_Alt_4
p1240
sg363
F1
sg364
I00
sbaa(lp1241
NaNaNaNaNaNaNaNaNaNaNa(imapping
Tile
p1242
(dp1243
g359
g360
sg361
VF_Grass_Alt_2
p1244
sg363
F1
sg364
I00
sbaa(lp1245
NaNaNaNaNaNaNaNaNaNaNa(imapping
Tile
p1246
(dp1247
g359
g360
sg361
VF_Grass
p1248
sg363
F1
sg364
I00
sbaa(lp1249
NaNaNaNaNaNaNaNaNaNaNa(imapping
Tile
p1250
(dp1251
g359
g360
sg361
VF_Grass_Alt_1
p1252
sg363
F1
sg364
I00
sbaa(lp1253
NaNaNaNaNaNaNaNaNaNa(imapping
Tile
p1254
(dp1255
g359
g424
sg361
VF_Shrooms2
p1256
sg363
F1
sg364
I00
sba(imapping
Tile
p1257
(dp1258
g359
g360
sg361
VF_Grass_Alt_3
p1259
sg363
F1
sg364
I00
sbaa(lp1260
NaNaNaNaNaNaNaNaNaNa(imapping
Tile
p1261
(dp1262
g359
g492
sg361
VF_Shrooms3
p1263
sg363
F1
sg364
I00
sba(imapping
Tile
p1264
(dp1265
g359
g360
sg361
VF_Grass
p1266
sg363
F1
sg364
I00
sbaa(lp1267
NaNaNaNaNaNaNaNaNaNaNa(imapping
Tile
p1268
(dp1269
g359
g360
sg361
VF_Grass
p1270
sg363
F1
sg364
I00
sbaa(lp1271
NaNaNaNaNaNaNaNaNaNa(imapping
Tile
p1272
(dp1273
g359
g676
sg361
VF_Right_Ramp
p1274
sg363
F1
sg364
I00
sba(imapping
Tile
p1275
(dp1276
g359
g360
sg361
VF_RampJoinR
p1277
sg363
F1
sg364
I00
sbaa(lp1278
NaNaNaNaNaNaNaNaNa(imapping
Tile
p1279
(dp1280
g359
g676
sg361
VF_Right_Ramp
p1281
sg363
F1
sg364
I00
sba(imapping
Tile
p1282
(dp1283
g359
g360
sg361
VF_RampJoinR
p1284
sg363
F1
sg364
I00
sba(imapping
Tile
p1285
(dp1286
g359
g360
sg361
VF_Dirt
p1287
sg363
F1
sg364
I00
sbaa(lp1288
NaNaNaNaNaNaNaNa(imapping
Tile
p1289
(dp1290
g359
g676
sg361
VF_Right_Ramp
p1291
sg363
F1
sg364
I00
sba(imapping
Tile
p1292
(dp1293
g359
g360
sg361
VF_RampJoinR
p1294
sg363
F1
sg364
I00
sba(imapping
Tile
p1295
(dp1296
g359
g360
sg361
VF_Dirt
p1297
sg363
F1
sg364
I00
sba(imapping
Tile
p1298
(dp1299
g359
g360
sg361
VF_Dirt
p1300
sg363
F1
sg364
I00
sbaa(lp1301
NaNaNaNaNaNaNa(imapping
Tile
p1302
(dp1303
g359
g676
sg361
VF_Right_Ramp
p1304
sg363
F1
sg364
I00
sba(imapping
Tile
p1305
(dp1306
g359
g360
sg361
VF_RampJoinR
p1307
sg363
F1
sg364
I00
sba(imapping
Tile
p1308
(dp1309
g359
g360
sg361
VF_Dirt
p1310
sg363
F1
sg364
I00
sba(imapping
Tile
p1311
(dp1312
g359
g360
sg361
VF_Dirt
p1313
sg363
F1
sg364
I00
sba(imapping
Tile
p1314
(dp1315
g359
g360
sg361
VF_Dirt
p1316
sg363
F1
sg364
I00
sbaa(lp1317
NaNaNaNaNaNa(imapping
Tile
p1318
(dp1319
g359
g676
sg361
VF_Right_Ramp
p1320
sg363
F1
sg364
I00
sba(imapping
Tile
p1321
(dp1322
g359
g360
sg361
VF_RampJoinR
p1323
sg363
F1
sg364
I00
sba(imapping
Tile
p1324
(dp1325
g359
g360
sg361
VF_Dirt
p1326
sg363
F1
sg364
I00
sba(imapping
Tile
p1327
(dp1328
g359
g360
sg361
VF_Dirt
p1329
sg363
F1
sg364
I00
sba(imapping
Tile
p1330
(dp1331
g359
g360
sg361
VF_Dirt_Alt_1
p1332
sg363
F1
sg364
I00
sba(imapping
Tile
p1333
(dp1334
g359
g360
sg361
VF_Dirt
p1335
sg363
F1
sg364
I00
sbaa(lp1336
NaNaNaNaNaNa(imapping
Tile
p1337
(dp1338
g359
g654
sg361
VF_Left_Halframp2
p1339
sg363
F1
sg364
I00
sba(imapping
Tile
p1340
(dp1341
g359
g360
sg361
VF_Dirt
p1342
sg363
F1
sg364
I00
sba(imapping
Tile
p1343
(dp1344
g359
g360
sg361
VF_Dirt
p1345
sg363
F1
sg364
I00
sba(imapping
Tile
p1346
(dp1347
g359
g360
sg361
VF_Dirt
p1348
sg363
F1
sg364
I00
sba(imapping
Tile
p1349
(dp1350
g359
g360
sg361
VF_Dirt
p1351
sg363
F1
sg364
I00
sba(imapping
Tile
p1352
(dp1353
g359
g360
sg361
VF_Dirt
p1354
sg363
F1
sg364
I00
sbaa(lp1355
NaNaNaNaNaNa(imapping
Tile
p1356
(dp1357
g359
g665
sg361
VF_Left_Halframp1
p1358
sg363
F1
sg364
I00
sba(imapping
Tile
p1359
(dp1360
g359
g360
sg361
VF_HalframpJoinL
p1361
sg363
F1
sg364
I00
sba(imapping
Tile
p1362
(dp1363
g359
g360
sg361
VF_Dirt
p1364
sg363
F1
sg364
I00
sba(imapping
Tile
p1365
(dp1366
g359
g360
sg361
VF_Dirt
p1367
sg363
F1
sg364
I00
sba(imapping
Tile
p1368
(dp1369
g359
g360
sg361
VF_Dirt
p1370
sg363
F1
sg364
I00
sba(imapping
Tile
p1371
(dp1372
g359
g360
sg361
VF_Dirt
p1373
sg363
F1
sg364
I00
sbaa(lp1374
NaNaNaNaNaNa(imapping
Tile
p1375
(dp1376
g359
g676
sg361
VF_Right_Ramp
p1377
sg363
F1
sg364
I00
sba(imapping
Tile
p1378
(dp1379
g359
g360
sg361
VF_RampJoinR
p1380
sg363
F1
sg364
I00
sba(imapping
Tile
p1381
(dp1382
g359
g360
sg361
VF_Dirt
p1383
sg363
F1
sg364
I00
sba(imapping
Tile
p1384
(dp1385
g359
g360
sg361
VF_Dirt
p1386
sg363
F1
sg364
I00
sba(imapping
Tile
p1387
(dp1388
g359
g360
sg361
VF_Dirt
p1389
sg363
F1
sg364
I00
sba(imapping
Tile
p1390
(dp1391
g359
g360
sg361
VF_Dirt
p1392
sg363
F1
sg364
I00
sbaa(lp1393
NaNaNaNaNa(imapping
Tile
p1394
(dp1395
g359
g424
sg361
VF_ExitSign
p1396
sg363
F1
sg364
I00
sba(imapping
Tile
p1397
(dp1398
g359
g360
sg361
VF_Grass_Alt_1
p1399
sg363
F1
sg364
I00
sba(imapping
Tile
p1400
(dp1401
g359
g360
sg361
VF_Dirt
p1402
sg363
F1
sg364
I00
sba(imapping
Tile
p1403
(dp1404
g359
g360
sg361
VF_Dirt
p1405
sg363
F1
sg364
I00
sba(imapping
Tile
p1406
(dp1407
g359
g360
sg361
VF_Dirt
p1408
sg363
F1
sg364
I00
sba(imapping
Tile
p1409
(dp1410
g359
g360
sg361
VF_Dirt_Alt_1
p1411
sg363
F1
sg364
I00
sba(imapping
Tile
p1412
(dp1413
g359
g360
sg361
VF_Dirt
p1414
sg363
F1
sg364
I00
sbaa(lp1415
NaNaNaNaNaNa(imapping
Tile
p1416
(dp1417
g359
g654
sg361
VF_Left_Halframp2
p1418
sg363
F1
sg364
I00
sba(imapping
Tile
p1419
(dp1420
g359
g360
sg361
VF_Dirt
p1421
sg363
F1
sg364
I00
sba(imapping
Tile
p1422
(dp1423
g359
g360
sg361
VF_Dirt_Alt_1
p1424
sg363
F1
sg364
I00
sba(imapping
Tile
p1425
(dp1426
g359
g360
sg361
VF_Dirt
p1427
sg363
F1
sg364
I00
sba(imapping
Tile
p1428
(dp1429
g359
g360
sg361
VF_Dirt
p1430
sg363
F1
sg364
I00
sba(imapping
Tile
p1431
(dp1432
g359
g360
sg361
VF_Dirt
p1433
sg363
F1
sg364
I00
sbaa(lp1434
NaNaNaNaNaNa(imapping
Tile
p1435
(dp1436
g359
g665
sg361
VF_Left_Halframp1
p1437
sg363
F1
sg364
I00
sba(imapping
Tile
p1438
(dp1439
g359
g360
sg361
VF_RampJoinL
p1440
sg363
F1
sg364
I00
sba(imapping
Tile
p1441
(dp1442
g359
g360
sg361
VF_Dirt
p1443
sg363
F1
sg364
I00
sba(imapping
Tile
p1444
(dp1445
g359
g360
sg361
VF_Dirt
p1446
sg363
F1
sg364
I00
sba(imapping
Tile
p1447
(dp1448
g359
g360
sg361
VF_Dirt
p1449
sg363
F1
sg364
I00
sba(imapping
Tile
p1450
(dp1451
g359
g360
sg361
VF_Dirt
p1452
sg363
F1
sg364
I00
sbaa(lp1453
NaNaNaNaNaNaNa(imapping
Tile
p1454
(dp1455
g359
g591
sg361
VF_Left_Ramp
p1456
sg363
F1
sg364
I00
sba(imapping
Tile
p1457
(dp1458
g359
g360
sg361
VF_HalframpJoinL
p1459
sg363
F1
sg364
I00
sba(imapping
Tile
p1460
(dp1461
g359
g360
sg361
VF_Dirt
p1462
sg363
F1
sg364
I00
sba(imapping
Tile
p1463
(dp1464
g359
g360
sg361
VF_Dirt
p1465
sg363
F1
sg364
I00
sba(imapping
Tile
p1466
(dp1467
g359
g360
sg361
VF_Dirt
p1468
sg363
F1
sg364
I00
sbaa(lp1469
NaNaNaNaNaNaNaNa(imapping
Tile
p1470
(dp1471
g359
g591
sg361
VF_Left_Ramp
p1472
sg363
F1
sg364
I00
sba(imapping
Tile
p1473
(dp1474
g359
g360
sg361
VF_HalframpJoinL
p1475
sg363
F1
sg364
I00
sba(imapping
Tile
p1476
(dp1477
g359
g360
sg361
VF_Dirt_Alt_1
p1478
sg363
F1
sg364
I00
sba(imapping
Tile
p1479
(dp1480
g359
g360
sg361
VF_Dirt
p1481
sg363
F1
sg364
I00
sbaa(lp1482
NaNaNaNaNaNaNaNaNa(imapping
Tile
p1483
(dp1484
g359
g654
sg361
VF_Left_Halframp2
p1485
sg363
F1
sg364
I00
sba(imapping
Tile
p1486
(dp1487
g359
g360
sg361
VF_Dirt
p1488
sg363
F1
sg364
I00
sba(imapping
Tile
p1489
(dp1490
g359
g360
sg361
VF_Dirt
p1491
sg363
F1
sg364
I00
sbaa(lp1492
NaNaNaNaNaNaNaNaNa(imapping
Tile
p1493
(dp1494
g359
g665
sg361
VF_Left_Halframp1
p1495
sg363
F1
sg364
I00
sba(imapping
Tile
p1496
(dp1497
g359
g360
sg361
VF_HalframpJoinL
p1498
sg363
F1
sg364
I00
sba(imapping
Tile
p1499
(dp1500
g359
g360
sg361
VF_Dirt
p1501
sg363
F1
sg364
I00
sbaa(lp1502
NaNaNaNaNaNaNaNaNa(imapping
Tile
p1503
(dp1504
g359
g602
sg361
VF_Right_Halframp1
p1505
sg363
F1
sg364
I00
sba(imapping
Tile
p1506
(dp1507
g359
g360
sg361
VF_HalframpJoinR
p1508
sg363
F1
sg364
I00
sba(imapping
Tile
p1509
(dp1510
g359
g360
sg361
VF_Dirt
p1511
sg363
F1
sg364
I00
sbaa(lp1512
NaNaNaNaNaNaNaNaNa(imapping
Tile
p1513
(dp1514
g359
g613
sg361
VF_Right_Halframp2
p1515
sg363
F1
sg364
I00
sba(imapping
Tile
p1516
(dp1517
g359
g360
sg361
VF_Dirt
p1518
sg363
F1
sg364
I00
sba(imapping
Tile
p1519
(dp1520
g359
g360
sg361
VF_Dirt
p1521
sg363
F1
sg364
I00
sbaa(lp1522
NaNaNaNaNaNaNaNa(imapping
Tile
p1523
(dp1524
g359
g676
sg361
VF_Right_Ramp
p1525
sg363
F1
sg364
I00
sba(imapping
Tile
p1526
(dp1527
g359
g360
sg361
VF_RampJoinR
p1528
sg363
F1
sg364
I00
sba(imapping
Tile
p1529
(dp1530
g359
g360
sg361
VF_Dirt
p1531
sg363
F1
sg364
I00
sba(imapping
Tile
p1532
(dp1533
g359
g360
sg361
VF_Dirt
p1534
sg363
F1
sg364
I00
sbaa(lp1535
NaNaNaNaNaNaNa(imapping
Tile
p1536
(dp1537
g359
g602
sg361
VF_Right_Halframp1
p1538
sg363
F1
sg364
I00
sba(imapping
Tile
p1539
(dp1540
g359
g360
sg361
VF_HalframpJoinR
p1541
sg363
F1
sg364
I00
sba(imapping
Tile
p1542
(dp1543
g359
g360
sg361
VF_Dirt
p1544
sg363
F1
sg364
I00
sba(imapping
Tile
p1545
(dp1546
g359
g360
sg361
VF_Dirt
p1547
sg363
F1
sg364
I00
sba(imapping
Tile
p1548
(dp1549
g359
g360
sg361
VF_Dirt
p1550
sg363
F1
sg364
I00
sbaa(lp1551
NaNaNaNaNaNaNa(imapping
Tile
p1552
(dp1553
g359
g613
sg361
VF_Right_Halframp2
p1554
sg363
F1
sg364
I00
sba(imapping
Tile
p1555
(dp1556
g359
g360
sg361
VF_Dirt
p1557
sg363
F1
sg364
I00
sba(imapping
Tile
p1558
(dp1559
g359
g360
sg361
VF_Dirt
p1560
sg363
F1
sg364
I00
sba(imapping
Tile
p1561
(dp1562
g359
g360
sg361
VF_Dirt_Alt_2
p1563
sg363
F1
sg364
I00
sba(imapping
Tile
p1564
(dp1565
g359
g360
sg361
VF_Dirt
p1566
sg363
F1
sg364
I00
sbaa(lp1567
NaNaNaNaNaNa(imapping
Tile
p1568
(dp1569
g359
g676
sg361
VF_Right_Ramp
p1570
sg363
F1
sg364
I00
sba(imapping
Tile
p1571
(dp1572
g359
g360
sg361
VF_RampJoinR
p1573
sg363
F1
sg364
I00
sba(imapping
Tile
p1574
(dp1575
g359
g360
sg361
VF_Dirt
p1576
sg363
F1
sg364
I00
sba(imapping
Tile
p1577
(dp1578
g359
g360
sg361
VF_Dirt
p1579
sg363
F1
sg364
I00
sba(imapping
Tile
p1580
(dp1581
g359
g360
sg361
VF_Dirt
p1582
sg363
F1
sg364
I00
sba(imapping
Tile
p1583
(dp1584
g359
g360
sg361
VF_Dirt
p1585
sg363
F1
sg364
I00
sbaa(lp1586
NaNaNaNaNaNa(imapping
Tile
p1587
(dp1588
g359
g654
sg361
VF_Left_Halframp2
p1589
sg363
F1
sg364
I00
sba(imapping
Tile
p1590
(dp1591
g359
g360
sg361
VF_Dirt
p1592
sg363
F1
sg364
I00
sba(imapping
Tile
p1593
(dp1594
g359
g360
sg361
VF_Dirt
p1595
sg363
F1
sg364
I00
sba(imapping
Tile
p1596
(dp1597
g359
g360
sg361
VF_Dirt
p1598
sg363
F1
sg364
I00
sba(imapping
Tile
p1599
(dp1600
g359
g360
sg361
VF_Dirt
p1601
sg363
F1
sg364
I00
sba(imapping
Tile
p1602
(dp1603
g359
g360
sg361
VF_Dirt_Alt_4
p1604
sg363
F1
sg364
I00
sbaa(lp1605
NaNaNaNaNaNa(imapping
Tile
p1606
(dp1607
g359
g665
sg361
VF_Left_Halframp1
p1608
sg363
F1
sg364
I00
sba(imapping
Tile
p1609
(dp1610
g359
g360
sg361
VF_HalframpJoinL
p1611
sg363
F1
sg364
I00
sba(imapping
Tile
p1612
(dp1613
g359
g360
sg361
VF_Dirt
p1614
sg363
F1
sg364
I00
sba(imapping
Tile
p1615
(dp1616
g359
g360
sg361
VF_Dirt_Alt_4
p1617
sg363
F1
sg364
I00
sba(imapping
Tile
p1618
(dp1619
g359
g360
sg361
VF_Dirt_Alt_1
p1620
sg363
F1
sg364
I00
sba(imapping
Tile
p1621
(dp1622
g359
g360
sg361
VF_Dirt_Alt_2
p1623
sg363
F1
sg364
I00
sbaa(lp1624
NaNaNaNaNaNaNa(imapping
Tile
p1625
(dp1626
g359
g360
sg361
VF_Grass_Alt_2
p1627
sg363
F1
sg364
I00
sba(imapping
Tile
p1628
(dp1629
g359
g360
sg361
VF_Dirt
p1630
sg363
F1
sg364
I00
sba(imapping
Tile
p1631
(dp1632
g359
g360
sg361
VF_Dirt
p1633
sg363
F1
sg364
I00
sba(imapping
Tile
p1634
(dp1635
g359
g360
sg361
VF_Dirt_Alt_4
p1636
sg363
F1
sg364
I00
sba(imapping
Tile
p1637
(dp1638
g359
g360
sg361
VF_Dirt
p1639
sg363
F1
sg364
I00
sbaa(lp1640
NaNaNaNaNaNa(imapping
Tile
p1641
(dp1642
g359
g676
sg361
VF_Right_Ramp
p1643
sg363
F1
sg364
I00
sba(imapping
Tile
p1644
(dp1645
g359
g360
sg361
VF_RampJoinR
p1646
sg363
F1
sg364
I00
sba(imapping
Tile
p1647
(dp1648
g359
g360
sg361
VF_Dirt
p1649
sg363
F1
sg364
I00
sba(imapping
Tile
p1650
(dp1651
g359
g360
sg361
VF_Dirt_Alt_2
p1652
sg363
F1
sg364
I00
sba(imapping
Tile
p1653
(dp1654
g359
g360
sg361
VF_Dirt
p1655
sg363
F1
sg364
I00
sba(imapping
Tile
p1656
(dp1657
g359
g360
sg361
VF_Dirt
p1658
sg363
F1
sg364
I00
sbaa(lp1659
NaNaNaNaNaNa(imapping
Tile
p1660
(dp1661
g359
g360
sg361
VF_Grass_Alt_5
p1662
sg363
F1
sg364
I00
sba(imapping
Tile
p1663
(dp1664
g359
g360
sg361
VF_Dirt
p1665
sg363
F1
sg364
I00
sba(imapping
Tile
p1666
(dp1667
g359
g360
sg361
VF_Dirt
p1668
sg363
F1
sg364
I00
sba(imapping
Tile
p1669
(dp1670
g359
g360
sg361
VF_Dirt
p1671
sg363
F1
sg364
I00
sba(imapping
Tile
p1672
(dp1673
g359
g360
sg361
VF_Dirt
p1674
sg363
F1
sg364
I00
sba(imapping
Tile
p1675
(dp1676
g359
g360
sg361
VF_Dirt
p1677
sg363
F1
sg364
I00
sbaa(lp1678
NaNaNaNaNaNa(imapping
Tile
p1679
(dp1680
g359
g360
sg361
VF_GrassRedge
p1681
sg363
F1
sg364
I00
sba(imapping
Tile
p1682
(dp1683
g359
g360
sg361
VF_Dirt_R1
p1684
sg363
F1
sg364
I00
sba(imapping
Tile
p1685
(dp1686
g359
g360
sg361
VF_Grass->DirtR
p1687
sg363
F1
sg364
I00
sba(imapping
Tile
p1688
(dp1689
g359
g360
sg361
VF_Dirt
p1690
sg363
F1
sg364
I00
sba(imapping
Tile
p1691
(dp1692
g359
g360
sg361
VF_Dirt
p1693
sg363
F1
sg364
I00
sba(imapping
Tile
p1694
(dp1695
g359
g360
sg361
VF_Dirt
p1696
sg363
F1
sg364
I00
sbaa(lp1697
NaNaNaNaNaNaNaNa(imapping
Tile
p1698
(dp1699
g359
g360
sg361
VF_Grass
p1700
sg363
F1
sg364
I00
sba(imapping
Tile
p1701
(dp1702
g359
g360
sg361
VF_Dirt
p1703
sg363
F1
sg364
I00
sba(imapping
Tile
p1704
(dp1705
g359
g360
sg361
VF_Dirt
p1706
sg363
F1
sg364
I00
sba(imapping
Tile
p1707
(dp1708
g359
g360
sg361
VF_Dirt
p1709
sg363
F1
sg364
I00
sbaa(lp1710
NaNaNaNaNaNaNaNa(imapping
Tile
p1711
(dp1712
g359
g360
sg361
VF_Grass_Alt_1
p1713
sg363
F1
sg364
I00
sba(imapping
Tile
p1714
(dp1715
g359
g360
sg361
VF_Dirt
p1716
sg363
F1
sg364
I00
sba(imapping
Tile
p1717
(dp1718
g359
g360
sg361
VF_Dirt
p1719
sg363
F1
sg364
I00
sba(imapping
Tile
p1720
(dp1721
g359
g360
sg361
VF_Dirt
p1722
sg363
F1
sg364
I00
sbaa(lp1723
NaNaNaNaNaNaNaNa(imapping
Tile
p1724
(dp1725
g359
g360
sg361
VF_Grass
p1726
sg363
F1
sg364
I00
sba(imapping
Tile
p1727
(dp1728
g359
g360
sg361
VF_Dirt
p1729
sg363
F1
sg364
I00
sba(imapping
Tile
p1730
(dp1731
g359
g360
sg361
VF_Dirt
p1732
sg363
F1
sg364
I00
sba(imapping
Tile
p1733
(dp1734
g359
g360
sg361
VF_Dirt
p1735
sg363
F1
sg364
I00
sbaa(lp1736
NaNaNaNaNaNaNa(imapping
Tile
p1737
(dp1738
g359
g602
sg361
VF_Right_Halframp1
p1739
sg363
F1
sg364
I00
sba(imapping
Tile
p1740
(dp1741
g359
g360
sg361
VF_HalframpJoinR
p1742
sg363
F1
sg364
I00
sba(imapping
Tile
p1743
(dp1744
g359
g360
sg361
VF_Dirt
p1745
sg363
F1
sg364
I00
sba(imapping
Tile
p1746
(dp1747
g359
g360
sg361
VF_Dirt
p1748
sg363
F1
sg364
I00
sba(imapping
Tile
p1749
(dp1750
g359
g360
sg361
VF_Dirt
p1751
sg363
F1
sg364
I00
sbaa(lp1752
NaNaNaNaNaNaNa(imapping
Tile
p1753
(dp1754
g359
g613
sg361
VF_Right_Halframp2
p1755
sg363
F1
sg364
I00
sba(imapping
Tile
p1756
(dp1757
g359
g360
sg361
VF_Dirt
p1758
sg363
F1
sg364
I00
sba(imapping
Tile
p1759
(dp1760
g359
g360
sg361
VF_Dirt
p1761
sg363
F1
sg364
I00
sba(imapping
Tile
p1762
(dp1763
g359
g360
sg361
VF_Dirt
p1764
sg363
F1
sg364
I00
sba(imapping
Tile
p1765
(dp1766
g359
g360
sg361
VF_Dirt
p1767
sg363
F1
sg364
I00
sbaa(lp1768
NaNaNaNaNaNaNa(imapping
Tile
p1769
(dp1770
g359
g591
sg361
VF_Left_Ramp
p1771
sg363
F1
sg364
I00
sba(imapping
Tile
p1772
(dp1773
g359
g360
sg361
VF_RampJoinL
p1774
sg363
F1
sg364
I00
sba(imapping
Tile
p1775
(dp1776
g359
g360
sg361
VF_Dirt
p1777
sg363
F1
sg364
I00
sba(imapping
Tile
p1778
(dp1779
g359
g360
sg361
VF_Dirt
p1780
sg363
F1
sg364
I00
sba(imapping
Tile
p1781
(dp1782
g359
g360
sg361
VF_Dirt
p1783
sg363
F1
sg364
I00
sbaa(lp1784
NaNaNaNaNaNaNaNa(imapping
Tile
p1785
(dp1786
g359
g591
sg361
VF_Left_Ramp
p1787
sg363
F1
sg364
I00
sba(imapping
Tile
p1788
(dp1789
g359
g360
sg361
VF_RampJoinL
p1790
sg363
F1
sg364
I00
sba(imapping
Tile
p1791
(dp1792
g359
g360
sg361
VF_Dirt
p1793
sg363
F1
sg364
I00
sba(imapping
Tile
p1794
(dp1795
g359
g360
sg361
VF_Dirt
p1796
sg363
F1
sg364
I00
sbaa(lp1797
NaNaNaNaNaNaNaNaNa(imapping
Tile
p1798
(dp1799
g359
g360
sg361
VF_Grass
p1800
sg363
F1
sg364
I00
sba(imapping
Tile
p1801
(dp1802
g359
g360
sg361
VF_Dirt
p1803
sg363
F1
sg364
I00
sba(imapping
Tile
p1804
(dp1805
g359
g360
sg361
VF_Dirt
p1806
sg363
F1
sg364
I00
sbaa(lp1807
NaNaNaNaNaNaNaNa(imapping
Tile
p1808
(dp1809
g359
g602
sg361
VF_Right_Halframp1
p1810
sg363
F1
sg364
I00
sba(imapping
Tile
p1811
(dp1812
g359
g360
sg361
VF_HalframpJoinR
p1813
sg363
F1
sg364
I00
sba(imapping
Tile
p1814
(dp1815
g359
g360
sg361
VF_Dirt
p1816
sg363
F1
sg364
I00
sba(imapping
Tile
p1817
(dp1818
g359
g360
sg361
VF_Dirt
p1819
sg363
F1
sg364
I00
sbaa(lp1820
NaNaNaNaNaNaNaNa(imapping
Tile
p1821
(dp1822
g359
g613
sg361
VF_Right_Halframp2
p1823
sg363
F1
sg364
I00
sba(imapping
Tile
p1824
(dp1825
g359
g360
sg361
VF_Dirt
p1826
sg363
F1
sg364
I00
sba(imapping
Tile
p1827
(dp1828
g359
g360
sg361
VF_Dirt
p1829
sg363
F1
sg364
I00
sba(imapping
Tile
p1830
(dp1831
g359
g360
sg361
VF_Dirt
p1832
sg363
F1
sg364
I00
sbaa(lp1833
NaNaNaNaNaNaNaNa(imapping
Tile
p1834
(dp1835
g359
g360
sg361
VF_Grass
p1836
sg363
F1
sg364
I00
sba(imapping
Tile
p1837
(dp1838
g359
g360
sg361
VF_Dirt
p1839
sg363
F1
sg364
I00
sba(imapping
Tile
p1840
(dp1841
g359
g360
sg361
VF_Dirt
p1842
sg363
F1
sg364
I00
sba(imapping
Tile
p1843
(dp1844
g359
g360
sg361
VF_Dirt
p1845
sg363
F1
sg364
I00
sbaa(lp1846
NaNaNaNaNaNaNaNa(imapping
Tile
p1847
(dp1848
g359
g360
sg361
VF_Grass
p1849
sg363
F1
sg364
I00
sba(imapping
Tile
p1850
(dp1851
g359
g360
sg361
VF_Dirt
p1852
sg363
F1
sg364
I00
sba(imapping
Tile
p1853
(dp1854
g359
g360
sg361
VF_Dirt
p1855
sg363
F1
sg364
I00
sba(imapping
Tile
p1856
(dp1857
g359
g360
sg361
VF_Dirt
p1858
sg363
F1
sg364
I00
sbaa(lp1859
NaNaNaNaNaNaNaNa(imapping
Tile
p1860
(dp1861
g359
g360
sg361
VF_Grass
p1862
sg363
F1
sg364
I00
sba(imapping
Tile
p1863
(dp1864
g359
g360
sg361
VF_Dirt
p1865
sg363
F1
sg364
I00
sba(imapping
Tile
p1866
(dp1867
g359
g360
sg361
VF_Dirt
p1868
sg363
F1
sg364
I00
sba(imapping
Tile
p1869
(dp1870
g359
g360
sg361
VF_Dirt
p1871
sg363
F1
sg364
I00
sbaa(lp1872
NaNaNaNaNaNaNaNa(imapping
Tile
p1873
(dp1874
g359
g360
sg361
VF_Grass
p1875
sg363
F1
sg364
I00
sba(imapping
Tile
p1876
(dp1877
g359
g360
sg361
VF_Dirt
p1878
sg363
F1
sg364
I00
sba(imapping
Tile
p1879
(dp1880
g359
g360
sg361
VF_Dirt
p1881
sg363
F1
sg364
I00
sba(imapping
Tile
p1882
(dp1883
g359
g360
sg361
VF_Dirt
p1884
sg363
F1
sg364
I00
sbaa(lp1885
NaNaNaNaNaNaNaNa(imapping
Tile
p1886
(dp1887
g359
g360
sg361
VF_Grass
p1888
sg363
F1
sg364
I00
sba(imapping
Tile
p1889
(dp1890
g359
g360
sg361
VF_Dirt
p1891
sg363
F1
sg364
I00
sba(imapping
Tile
p1892
(dp1893
g359
g360
sg361
VF_Dirt
p1894
sg363
F1
sg364
I00
sba(imapping
Tile
p1895
(dp1896
g359
g360
sg361
VF_Dirt
p1897
sg363
F1
sg364
I00
sbaasS'bgmusic'
p1898
VSempridge.ogg
p1899
sS'theme'
p1900
VForest
p1901
sS'endef'
p1902
(dp1903
VCSpider
p1904
Vcspider
p1905
sVSnowOgre
p1906
Vsnowogre
p1907
sVWasp
p1908
Vwasp
p1909
sVSpider
p1910
Vspider
p1911
sVWorm
p1912
Vworm
p1913
sVGiantJelly
p1914
Vgiantjelly
p1915
sVPod
p1916
Vpod
p1917
sVGiantWorm
p1918
Vgiantworm
p1919
ssS'tiledef'
p1920
(dp1921
VS_bLRamp
p1922
Vsnow_blramp.png
p1923
sVF_Dirt_R2
p1924
Vdirtr_edge2.png
p1925
sVF_Dirt_R1
p1926
Vdirtr_edge1.png
p1927
sVS_Railing_1
p1928
Vsnow_railing1.png
p1929
sVS_Railing_2
p1930
Vsnow_railing2.png
p1931
sVC_Suit of Armour
p1932
Vsuit_armour.png
p1933
sVS_UCleft
p1934
Vsnow_undercorner_left.png
p1935
sVF_Right_Halframp1
p1936
VR_HR1.png
p1937
sVF_Right_Halframp2
p1938
VR_HR2.png
p1939
sVF_GrassRedge
p1940
Vgrassr_edge.png
p1941
sVS_ECleft
p1942
Vsnow_edgecorner_left.png
p1943
sVF_Tuft1
p1944
Vtuft1.png
p1945
sVF_Tuft2
p1946
Vtuft2.png
p1947
sVS_Tree
p1948
Vsnow_tree.png
p1949
sVF_Grass
p1950
Vgrass.png
p1951
sVC_Castle Wall->Floor R
p1952
Vcstl_wfright.png
p1953
sVS_Railing_L
p1954
Vsnow_railing_left.png
p1955
sVC_Castle HRR
p1956
Vcstl_hr_r.png
p1957
sVS_RRamp
p1958
Vsnow_rramp.png
p1959
sVC_Castle HRL
p1960
Vcstl_hr_l.png
p1961
sVS_Pillar
p1962
Vsnow_pillar.png
p1963
sVS_Railing_R
p1964
Vsnow_railing_right.png
p1965
sVS_Ground1
p1966
Vsnow_ground1.png
p1967
sVF_Stump
p1968
Vtreestump.png
p1969
sVC_Castle Ground 2
p1970
Vcstl_ground2.png
p1971
sVC_Castle Ground 3
p1972
Vcstl_ground3.png
p1973
sVC_Castle Ground 1
p1974
Vcstl_ground1.png
p1975
sVS_Snow2
p1976
Vsnow_snow2.png
p1977
sVF_Grass_Alt_5
p1978
Vgrassc5.png
p1979
sVS_bRRamp
p1980
Vsnow_brramp.png
p1981
sVC_Castle Floor 2
p1982
Vcstl_floor2.png
p1983
sVS_Snow
p1984
Vsnow_snow.png
p1985
sVF_Grass_Alt_2
p1986
Vgrassc2.png
p1987
sVF_ExitSign
p1988
Vexitsign.png
p1989
sVF_Grass->Dirttop
p1990
Vgrassmdirt.png
p1991
sVS_UCright
p1992
Vsnow_undercorner_right.png
p1993
sVS_Pillartop
p1994
Vsnow_pillartop.png
p1995
sVF_Dirttop->Grass
p1996
Vdirtmgrass.png
p1997
sVS_ECright
p1998
Vsnow_edgecorner_right.png
p1999
sVC_Castle HRmL
p2000
Vcstl_hr_m_l.png
p2001
sVC_Castle Wall L
p2002
Vcstl_wleft.png
p2003
sVC_Castle Wall R
p2004
Vcstl_wright.png
p2005
sVC_Castle HRmR
p2006
Vcstl_hr_m_r.png
p2007
sVF_Ice
p2008
Vtile5.png
p2009
sVC_Castle Floor 4
p2010
Vcstl_floor4.png
p2011
sVF_Grass_Alt_4
p2012
Vgrassc4.png
p2013
sVF_Grass_Alt_1
p2014
Vgrassc1.png
p2015
sVC_Castle Floor 1
p2016
Vcstl_floor1.png
p2017
sVF_Grass_Alt_3
p2018
Vgrassc3.png
p2019
sVC_Castle Floor 3
p2020
Vcstl_floor3.png
p2021
sVS_edgewleft1
p2022
Vsnow_edgewall_left1.png
p2023
sVS_edgewleft2
p2024
Vsnow_edgewall_left2.png
p2025
sVS_UCJright
p2026
Vsnow_undercorner_join_right.png
p2027
sVS_LRamp
p2028
Vsnow_lramp.png
p2029
sVC_Castle Floor Edge R
p2030
Vcstl_floor_edge_right.png
p2031
sVF_Dirt_L1
p2032
Vdirtl_edge1.png
p2033
sVF_Dirt_L2
p2034
Vdirtl_edge2.png
p2035
sVC_Castle Floor Edge L
p2036
Vcstl_floor_edge_left.png
p2037
sVF_Left_Halframp2
p2038
VL_HR2.png
p2039
sVF_Left_Halframp1
p2040
VL_HR1.png
p2041
sVF_Shrooms2
p2042
Vshrooms2.png
p2043
sVF_Shrooms3
p2044
Vshrooms3.png
p2045
sVF_Shrooms1
p2046
Vshrooms1.png
p2047
sVF_RampJoinL
p2048
Vramp_mid_dirt_l.png
p2049
sVS_Tree2
p2050
Vsnow_tree2.png
p2051
sVF_RampJoinR
p2052
Vramp_mid_dirt_r.png
p2053
sVF_GrassLedge
p2054
Vgrassl_edge.png
p2055
sVS_Stones
p2056
Vsnow_stones.png
p2057
sVS_edgeright
p2058
Vsnow_edge_right.png
p2059
sVS_edgewright2
p2060
Vsnow_edgewall_right2.png
p2061
sVS_edgewright1
p2062
Vsnow_edgewall_right1.png
p2063
sVF_Dirtb
p2064
Vdirtb.png
p2065
sVF_Right_Ramp
p2066
VR_R.png
p2067
sVF_HalframpJoinL
p2068
Vhalframp_mid_dirt_l.png
p2069
sVF_Dirt_BL
p2070
Vdirtl_bedge.png
p2071
sVF_HalframpJoinR
p2072
Vhalframp_mid_dirt_r.png
p2073
sVF_Dirt_BR
p2074
Vdirtr_bedge.png
p2075
sVF_Dirtb2
p2076
Vdirtb2.png
p2077
sVF_Left_Ramp
p2078
VL_R.png
p2079
sVC_Castle Wall->Floor L
p2080
Vcstl_wfleft.png
p2081
sVF_Dirt
p2082
Vdirt.png
p2083
sVF_Grass->DirtL
p2084
Vgrass_dirt_l.png
p2085
sVS_edgeleft
p2086
Vsnow_edge_left.png
p2087
sVF_Dirttop
p2088
Vdirttop.png
p2089
sVF_Dirt_Alt_4
p2090
Vdirtc4.png
p2091
sVF_Dirt_Alt_3
p2092
Vdirtc3.png
p2093
sVF_Dirt_Alt_2
p2094
Vdirtc2.png
p2095
sVF_Dirt_Alt_1
p2096
Vdirtc1.png
p2097
sVF_Grass->DirtR
p2098
Vgrass_dirt_r.png
p2099
sVS_UCJleft
p2100
Vsnow_undercorner_join_left.png
p2101
ssb.