(imapping
Map
p1
(dp2
S'enemy'
p3
(lp4
(lp5
NaNaNaNaNaNaNaNaNaNaNaNaa(lp6
NaNaNaNaNaNaNaNaNaNaNaNaa(lp7
NaNaNaNaNaNaNaNaNaNaNaNaa(lp8
NaNaNaNaNaNaNaNaNaNaNaNaa(lp9
NaNaNaNaNaNaNaNaNaNaNaNaa(lp10
NaNaNaNaNaNaNaNaNaNaNaNaa(lp11
NaNaNaNaNaNaNaNaNaNaNaNaa(lp12
NaNaNaNaNaNaNaNaNaNaNaNaa(lp13
NaNaNaNaNaNaNaNaNaNaNaNaa(lp14
NaNaNaNaNaNaNaNaNaNaNaNaa(lp15
NaNaNaNaNaNaNaNaNaNaNaNaa(lp16
NaNaNaNaNaNaNaNaNaNaNaNaa(lp17
NaNaNaNaNaNaNaNaNaNaNaNaa(lp18
NaNaNaNaNaNaNaNaNaNaNaNaa(lp19
NaNaNaNaNaNaNaNaNaNaNaNaa(lp20
NaNaNaNaNaNaNaNaNaNaNaNaa(lp21
NaNaNaNaNaNaNaNaNaNaNaNaa(lp22
NaNaNaNaNaNaNaNaNaNaNaNaa(lp23
NaNaNaNaNaNaNaNaNaNaNaNaa(lp24
NaNaNaNaNaNaNaNaNaNaNaNaa(lp25
NaNaNaNaNaNaNaNaNaNaNaNaa(lp26
NaNaNaNaNaNaNaNaNaNaNaNaa(lp27
NaNaNaNaNaNaNaNaNaNaNaNaa(lp28
NaNaNaNaNaNaNaNaNaNaNaNaa(lp29
NaNaNaNaNaNaNaNaNaNaNaNaa(lp30
NaNaNaNaNaNaNaNaNaNaNaNaa(lp31
NaNaNaNaNaNaNaNaNaNaNaNaa(lp32
NaNaNaNaNaNaNaNaNaNaNaNaa(lp33
NaNaNaNaNaNaNaNaNaNaNaNaa(lp34
NaNaNaNaNaNaNaNaNaNaNaNaa(lp35
NaNaNaNaNaNaNaNaNaNaNaNaa(lp36
NaNaNaNaNaNaNaNaNaNaNaNaa(lp37
NaNaNaNaNaNaNaNaNaNaNaNaa(lp38
NaNaNaNaNaNaNaNaNaNaNaNaa(lp39
NaNaNaNaNaNaNaNaNaNaNaNaa(lp40
NaNaNaNaNaNaNaNaNaNaNaNaa(lp41
NaNaNaNaNaNaNaNaNaNaNaNaa(lp42
NaNaNaNaVPod
p43
aNaNaNaNaNaNaNaa(lp44
NaNaNaNaNaNaNaNaNaNaNaNaa(lp45
NaNaNaNaNaNaNaNaNaNaNaNaa(lp46
NaNaNaNaNaNaNaNaNaNaNaNaa(lp47
NaNaNaNaNaNaNaNaNaNaNaNaa(lp48
NaNaNaNaNaNaNaNaNaNaNaNaa(lp49
NaNaNaNaNaNaNaNaNaNaNaNaa(lp50
NaNaNaNaNaNaNaNaNaNaNaNaa(lp51
NaNaNaNaNaNaNaNaNaNaNaNaa(lp52
NaNaNaNaNaNaNaNaNaNaNaNaa(lp53
NaNaNaNaNaNaNaNaNaNaNaNaa(lp54
NaNaNaNaNaNaNaNaNaNaNaNaa(lp55
NaNaNaNaNaNaNaNaNaNaNaNaa(lp56
NaNaNaNaNaNaNaNaNaNaNaNaa(lp57
NaNaNaNaNaNaNaNaNaNaNaNaa(lp58
NaNaNaNaNaNaNaNaNaNaNaNaa(lp59
NaNaNaNaNaNaNaNaNaNaNaNaa(lp60
NaNaNaNaNaNaNaNaNaNaNaNaa(lp61
NaNaNaNaNaNaNaNaNaNaNaNaa(lp62
NaNaNaNaNaNaNaNaNaNaNaNaa(lp63
NaNaNaNaNaNaNaNaNaNaNaNaa(lp64
NaNaNaNaNaNaNaNaNaNaNaNaa(lp65
NaNaNaNaNaNaNaNaNaVSpider
p66
aNaNaa(lp67
NaNaNaNaNaNaNaNaNaNaNaNaa(lp68
NaNaNaNaNaNaNaVSpider
p69
aNaNaNaNaa(lp70
NaNaNaNaNaNaNaNaNaNaNaNaa(lp71
NaNaNaNaNaVSpider
p72
aNaNaNaNaNaNaa(lp73
NaNaNaNaNaNaNaNaNaNaNaNaa(lp74
NaNaNaVSpider
p75
aNaNaNaNaNaNaNaNaa(lp76
NaNaNaNaNaNaNaNaNaNaNaNaa(lp77
NaNaNaNaNaNaNaNaNaNaNaNaa(lp78
NaNaNaNaNaNaNaNaNaNaNaNaa(lp79
NaNaNaNaNaNaNaNaNaNaNaNaa(lp80
NaNaNaNaNaNaNaNaNaNaNaNaa(lp81
NaNaNaNaNaNaNaNaNaNaNaNaa(lp82
NaNaNaNaNaNaNaNaNaNaNaNaa(lp83
NaNaNaNaNaNaNaNaNaNaNaNaa(lp84
NaNaNaNaNaNaNaNaNaNaNaNaa(lp85
NaNaNaNaNaNaNaNaNaNaNaNaa(lp86
NaNaNaNaNaNaNaNaNaNaNaNaa(lp87
NaNaNaNaNaNaNaNaNaNaNaNaa(lp88
NaNaNaNaNaNaNaNaNaNaNaNaa(lp89
NaNaNaNaNaNaNaNaNaNaNaNaa(lp90
NaNaNaNaNaNaNaNaNaNaNaNaa(lp91
NaNaNaNaNaNaNaNaNaNaNaNaa(lp92
NaNaNaNaNaNaNaNaNaNaNaNaa(lp93
NaNaNaNaNaNaNaNaNaNaNaNaa(lp94
NaNaNaNaNaNaNaNaNaNaNaNaa(lp95
NaNaNaNaNaNaNaNaNaNaNaNaa(lp96
NaNaNaNaNaNaNaNaNaNaNaNaa(lp97
NaNaNaNaNaNaNaNaNaNaNaNaa(lp98
NaNaNaNaNaNaNaNaNaNaNaNaa(lp99
NaNaNaNaNaNaNaNaNaNaNaNaa(lp100
NaNaNaNaNaVPod
p101
aNaNaNaNaNaNaa(lp102
NaNaNaNaNaNaNaNaNaNaNaNaa(lp103
NaNaNaNaNaNaNaNaNaNaNaNaa(lp104
NaNaNaNaNaVPod
p105
aNaNaNaNaNaNaa(lp106
NaNaNaNaNaNaNaNaNaNaNaNaa(lp107
NaNaNaNaNaNaNaNaNaNaNaNaa(lp108
NaNaNaNaNaNaNaNaNaNaNaNaa(lp109
NaNaNaNaNaNaNaNaNaNaNaNaa(lp110
NaNaNaNaNaNaNaNaNaNaNaNaa(lp111
NaNaNaNaNaNaNaNaNaNaNaNaa(lp112
NaNaNaNaNaNaNaNaNaNaNaNaa(lp113
NaNaNaNaNaNaVSpider
p114
aNaNaNaNaNaa(lp115
NaNaNaNaNaNaNaNaNaNaNaNaa(lp116
NaNaNaNaNaNaNaNaNaNaNaNaa(lp117
NaNaNaNaNaNaNaNaNaNaNaNaa(lp118
NaNaNaNaNaNaNaNaNaNaNaNaa(lp119
NaNaNaNaNaVSpider
p120
aNaNaNaNaNaNaa(lp121
NaNaNaNaNaNaNaNaNaNaNaNaa(lp122
NaNaNaNaNaNaNaNaNaNaNaNaa(lp123
NaNaNaNaNaNaNaNaNaNaNaNaa(lp124
NaNaNaNaNaNaNaNaNaNaNaNaa(lp125
NaNaNaNaNaNaNaNaNaNaNaNaa(lp126
NaNaNaNaNaNaNaNaNaNaVPod
p127
aNaa(lp128
NaNaNaNaNaNaNaNaNaNaNaNaa(lp129
NaNaNaNaNaNaNaNaNaNaNaNaa(lp130
NaNaNaNaNaNaNaNaNaNaNaNaa(lp131
NaNaNaNaNaNaNaNaNaNaNaNaa(lp132
NaNaNaNaNaNaNaNaNaNaNaNaa(lp133
NaNaNaNaNaNaNaNaNaNaNaNaa(lp134
NaNaNaNaNaNaNaNaNaNaNaNaa(lp135
NaNaNaNaNaNaNaNaNaNaNaNaa(lp136
NaNaNaNaNaNaNaNaNaNaNaNaa(lp137
NaNaNaNaNaNaNaNaNaNaNaNaa(lp138
NaNaNaNaNaNaNaNaNaNaNaNaa(lp139
NaNaNaNaNaNaNaNaNaNaNaNaa(lp140
NaNaNaNaNaNaNaNaNaNaNaNaa(lp141
NaNaNaNaNaNaNaNaNaNaNaNaa(lp142
NaNaNaNaNaNaNaNaNaNaNaNaasS'objdef'
p143
(dp144
VButterfly
p145
VButterfly.png
p146
sVLevel_End
p147
VEnd.png
p148
sVShield
p149
VShield.png
p150
sVPlayer_Start
p151
VStart.png
p152
sVLever_Snow
p153
VLever1.png
p154
sVFallingRock
p155
VRock.png
p156
sVWalltorch
p157
VWalltorch.png
p158
sVFirepit
p159
VPit.png
p160
sVButterflyC
p161
VButterflyC.png
p162
sVButterflyB
p163
VButterflyB.png
p164
sVSword
p165
VSword.png
p166
sVTreasureBoxC
p167
VTreasureC_Closed.png
p168
sVTreasureBoxB
p169
VTreasureB_Closed.png
p170
sVTreasureBox
p171
VTreasure_Closed.png
p172
sVObelisk_Snow
p173
VObelisk_Snow.png
p174
ssS'obj'
p175
(lp176
(lp177
NaNaNaNaNaNaNaNaNaNaNaNaa(lp178
NaNaNaNaNaNaNaNaNaNaNaNaa(lp179
NaNaNaNaNaNaNaNaNaNaNaNaa(lp180
NaNaNaNaNaNaNaNaNaNaNaNaa(lp181
NaNaNaNaNaNaNaNaNaNaNaNaa(lp182
NaNaNaNaNaNaNaNaNaNaNaNaa(lp183
NaNaNaNaNaNaNaNaNaNaNaNaa(lp184
NaNaNaNaNaNaNaNaNaNaNaNaa(lp185
NaNaNaNaNaNaNaNaNaNaNaNaa(lp186
NaNaNaNaNaNaNaNaNaNaNaNaa(lp187
NaNaNaNaNaNaNaNaVPlayer_Start
p188
aNaNaNaa(lp189
NaNaNaNaNaNaNaNaNaNaNaNaa(lp190
NaNaNaNaNaNaVButterfly
p191
aNaNaNaNaNaa(lp192
NaNaNaNaNaNaNaNaNaNaNaNaa(lp193
NaNaNaNaNaNaNaNaNaNaNaNaa(lp194
NaNaNaNaNaNaNaNaNaNaNaNaa(lp195
NaNaNaNaNaNaNaNaVButterflyB
p196
aNaNaNaa(lp197
NaNaNaNaNaNaNaNaNaNaNaNaa(lp198
NaNaNaNaNaNaNaNaNaNaNaNaa(lp199
NaNaNaNaNaNaNaNaNaNaNaNaa(lp200
NaNaNaNaNaNaNaNaNaNaNaNaa(lp201
NaNaNaNaNaNaNaNaNaNaNaNaa(lp202
NaNaNaNaNaNaNaNaNaNaNaNaa(lp203
NaNaNaNaNaNaNaNaNaNaNaNaa(lp204
NaNaNaNaNaVButterflyC
p205
aNaNaNaNaNaNaa(lp206
NaNaNaNaNaNaNaNaNaNaNaNaa(lp207
NaNaNaNaNaNaNaNaNaNaNaNaa(lp208
NaNaNaNaNaNaNaNaNaNaNaNaa(lp209
NaNaNaNaNaNaNaNaNaNaNaNaa(lp210
NaNaNaNaNaNaVButterfly
p211
aNaNaNaNaNaa(lp212
NaNaNaNaNaNaNaNaNaNaNaNaa(lp213
NaNaNaNaNaNaNaNaNaNaNaNaa(lp214
NaNaNaVButterflyC
p215
aNaNaNaNaNaNaNaNaa(lp216
NaNaNaNaNaNaNaNaNaNaNaNaa(lp217
NaNaNaNaNaNaNaNaNaNaNaNaa(lp218
NaNaNaNaNaNaNaNaNaNaNaNaa(lp219
NaNaNaNaNaNaNaNaNaNaNaNaa(lp220
NaNaNaNaNaNaNaNaNaNaNaNaa(lp221
NaNaNaNaNaNaNaNaNaNaNaNaa(lp222
NaNaNaNaNaNaNaNaNaNaNaNaa(lp223
NaNaNaNaNaNaNaNaNaNaNaNaa(lp224
NaNaNaNaNaNaNaNaNaNaNaNaa(lp225
NaNaNaNaNaNaNaNaNaNaNaNaa(lp226
NaNaNaNaNaNaNaNaNaNaNaNaa(lp227
NaNaNaNaNaNaNaNaNaNaNaNaa(lp228
NaNaNaNaVButterfly
p229
aNaNaNaNaNaNaNaa(lp230
NaNaNaNaNaNaNaNaNaNaNaNaa(lp231
NaNaNaNaNaNaNaNaVButterflyB
p232
aNaNaNaa(lp233
NaNaNaNaNaNaNaNaNaNaNaNaa(lp234
NaNaNaNaNaNaNaNaNaNaNaNaa(lp235
NaNaNaNaNaNaNaNaNaNaNaNaa(lp236
NaNaNaNaNaNaNaNaNaNaNaNaa(lp237
NaNaNaNaNaNaNaNaNaVButterflyC
p238
aNaNaa(lp239
NaNaNaNaNaNaNaVButterflyB
p240
aNaNaNaNaa(lp241
NaNaNaNaNaNaNaNaNaNaNaNaa(lp242
NaNaNaNaNaNaNaNaNaNaNaNaa(lp243
NaNaNaNaNaNaNaNaNaNaNaNaa(lp244
NaNaNaNaNaNaNaNaNaNaNaNaa(lp245
NaNaNaNaNaNaNaNaNaNaNaNaa(lp246
NaNaNaNaNaNaNaNaNaNaNaNaa(lp247
NaNaNaNaNaNaNaNaNaNaNaNaa(lp248
NaNaNaNaNaNaNaNaNaNaNaNaa(lp249
NaNaNaNaNaNaNaNaNaNaNaNaa(lp250
NaNaNaNaNaNaNaNaNaVButterfly
p251
aNaNaa(lp252
NaNaNaNaNaNaNaNaNaVButterflyB
p253
aNaNaa(lp254
NaNaNaNaNaNaNaNaNaNaNaNaa(lp255
NaNaNaNaNaNaNaNaNaNaNaNaa(lp256
NaNaNaNaNaNaNaNaNaNaNaNaa(lp257
NaNaNaNaNaNaNaNaNaNaNaNaa(lp258
NaNaNaNaNaNaNaNaNaNaNaNaa(lp259
NaNaNaNaNaNaNaNaNaNaNaNaa(lp260
NaNaNaNaNaNaNaNaNaNaNaNaa(lp261
NaNaNaNaNaNaNaNaNaNaVTreasureBox
p262
aNaa(lp263
NaNaNaNaNaNaNaNaNaNaNaNaa(lp264
NaNaNaNaNaNaNaNaNaNaNaNaa(lp265
NaNaNaNaNaNaNaNaVButterfly
p266
aNaNaNaa(lp267
NaNaNaNaNaNaNaNaNaNaNaNaa(lp268
NaNaNaNaNaNaNaNaNaNaNaNaa(lp269
NaNaNaNaNaVButterflyB
p270
aNaNaNaNaNaNaa(lp271
NaNaNaNaNaNaVButterflyB
p272
aNaNaNaNaNaa(lp273
NaNaNaNaNaNaNaNaNaNaNaNaa(lp274
NaNaNaNaNaNaNaNaNaNaNaNaa(lp275
NaNaNaNaNaVButterfly
p276
aNaNaNaNaNaNaa(lp277
NaNaNaNaNaNaNaNaNaNaNaNaa(lp278
NaNaNaNaNaNaNaNaNaNaNaNaa(lp279
NaNaNaNaNaNaNaNaNaNaNaNaa(lp280
NaNaNaNaNaNaNaNaNaNaNaNaa(lp281
NaNaNaNaNaNaNaNaNaNaNaNaa(lp282
NaNaNaNaNaNaNaNaNaNaNaNaa(lp283
NaNaNaNaNaNaNaNaNaNaNaNaa(lp284
NaNaNaNaNaNaNaNaNaNaNaNaa(lp285
NaNaNaNaNaNaNaNaNaNaNaNaa(lp286
NaNaVButterflyC
p287
aNaNaNaNaNaNaNaNaNaa(lp288
NaNaNaNaNaNaNaNaNaNaNaNaa(lp289
NaNaNaNaNaNaNaNaNaNaNaNaa(lp290
NaNaNaNaNaNaNaNaNaNaNaNaa(lp291
NaNaNaNaNaNaNaNaNaNaNaNaa(lp292
NaNaNaNaNaNaNaNaNaNaNaNaa(lp293
NaNaNaNaNaNaNaNaNaNaNaNaa(lp294
NaNaNaNaNaNaNaNaNaVTreasureBox
p295
aNaNaa(lp296
NaNaNaNaNaNaNaNaNaNaNaNaa(lp297
NaNaNaNaNaNaNaNaNaNaNaNaa(lp298
NaNaNaNaNaNaVButterfly
p299
aNaNaNaNaNaa(lp300
NaNaNaNaNaNaNaNaNaVButterflyC
p301
aNaNaa(lp302
NaNaNaNaNaNaNaNaNaNaNaNaa(lp303
NaNaNaNaNaNaNaNaNaNaNaNaa(lp304
NaNaNaNaNaNaNaNaNaNaNaNaa(lp305
NaNaNaNaNaNaNaNaNaNaNaNaa(lp306
NaNaNaNaNaNaNaNaNaNaNaNaa(lp307
NaNaNaNaNaNaNaNaNaNaNaNaa(lp308
NaNaNaNaNaNaNaNaNaNaNaNaa(lp309
NaNaNaNaNaNaNaNaNaVButterfly
p310
aNaNaa(lp311
NaNaNaNaNaNaNaNaNaNaNaNaa(lp312
NaNaNaNaNaNaNaNaNaNaNaNaa(lp313
NaNaNaNaNaNaNaNaVButterfly
p314
aNaNaNaa(lp315
NaNaNaNaNaNaNaNaVLevel_End
p316
aNaNaNaa(lp317
NaNaNaNaNaNaNaNaNaNaNaNaa(lp318
NaNaNaNaNaNaNaNaNaNaNaNaa(lp319
NaNaNaNaNaNaVButterflyC
p320
aNaNaNaNaNaa(lp321
NaNaNaNaNaNaNaNaNaNaNaNaa(lp322
NaNaNaNaVButterfly
p323
aNaNaNaNaNaNaNaa(lp324
NaNaNaNaNaNaNaNaNaNaNaNaa(lp325
NaNaNaNaNaNaNaNaNaNaNaNaa(lp326
NaNaNaNaNaNaNaNaNaNaNaNaa(lp327
NaNaNaVButterflyB
p328
aNaNaNaNaNaNaNaNaa(lp329
NaNaNaNaNaNaNaNaNaNaNaNaa(lp330
NaNaNaNaNaNaNaNaNaNaNaNaa(lp331
NaNaNaNaNaNaNaNaNaNaNaNaasS'name'
p332
VAn Untitled Level
p333
sS'map'
p334
(lp335
(lp336
NaNaNa(imapping
Tile
p337
(dp338
S'collidetype'
p339
S'NONE_R'
p340
sS'type'
p341
VF_Shrooms1
p342
sS'friction'
p343
F1
sS'overhead'
p344
I00
sba(imapping
Tile
p345
(dp346
g339
S'BOX'
p347
sg341
VF_Grass
p348
sg343
F1
sg344
I00
sba(imapping
Tile
p349
(dp350
g339
g347
sg341
VF_Dirt
p351
sg343
F1
sg344
I00
sba(imapping
Tile
p352
(dp353
g339
g347
sg341
VF_Dirt_Alt_4
p354
sg343
F1
sg344
I00
sba(imapping
Tile
p355
(dp356
g339
g347
sg341
VF_Dirt
p357
sg343
F1
sg344
I00
sba(imapping
Tile
p358
(dp359
g339
g347
sg341
VF_Dirt_Alt_4
p360
sg343
F1
sg344
I00
sba(imapping
Tile
p361
(dp362
g339
g347
sg341
VF_Dirt
p363
sg343
F1
sg344
I00
sba(imapping
Tile
p364
(dp365
g339
g347
sg341
VF_Dirt
p366
sg343
F1
sg344
I00
sba(imapping
Tile
p367
(dp368
g339
g347
sg341
VF_Dirt
p369
sg343
F1
sg344
I00
sbaa(lp370
NaNaNa(imapping
Tile
p371
(dp372
g339
g340
sg341
VF_Shrooms3
p373
sg343
F1
sg344
I00
sba(imapping
Tile
p374
(dp375
g339
g347
sg341
VF_Grass
p376
sg343
F1
sg344
I00
sba(imapping
Tile
p377
(dp378
g339
g347
sg341
VF_Dirt
p379
sg343
F1
sg344
I00
sba(imapping
Tile
p380
(dp381
g339
g347
sg341
VF_Dirt
p382
sg343
F1
sg344
I00
sba(imapping
Tile
p383
(dp384
g339
g347
sg341
VF_Dirt
p385
sg343
F1
sg344
I00
sba(imapping
Tile
p386
(dp387
g339
g347
sg341
VF_Dirt
p388
sg343
F1
sg344
I00
sba(imapping
Tile
p389
(dp390
g339
g347
sg341
VF_Dirt
p391
sg343
F1
sg344
I00
sba(imapping
Tile
p392
(dp393
g339
g347
sg341
VF_Dirt
p394
sg343
F1
sg344
I00
sba(imapping
Tile
p395
(dp396
g339
g347
sg341
VF_Dirt
p397
sg343
F1
sg344
I00
sbaa(lp398
NaNaNaNa(imapping
Tile
p399
(dp400
g339
g347
sg341
VF_Grass_Alt_4
p401
sg343
F1
sg344
I00
sba(imapping
Tile
p402
(dp403
g339
g347
sg341
VF_Dirt_Alt_4
p404
sg343
F1
sg344
I00
sba(imapping
Tile
p405
(dp406
g339
g347
sg341
VF_Dirt
p407
sg343
F1
sg344
I00
sba(imapping
Tile
p408
(dp409
g339
g347
sg341
VF_Dirt
p410
sg343
F1
sg344
I00
sba(imapping
Tile
p411
(dp412
g339
g347
sg341
VF_Dirt
p413
sg343
F1
sg344
I00
sba(imapping
Tile
p414
(dp415
g339
g347
sg341
VF_Dirt
p416
sg343
F1
sg344
I00
sba(imapping
Tile
p417
(dp418
g339
g347
sg341
VF_Dirt_Alt_2
p419
sg343
F1
sg344
I00
sba(imapping
Tile
p420
(dp421
g339
g347
sg341
VF_Dirt
p422
sg343
F1
sg344
I00
sbaa(lp423
NaNaNaNa(imapping
Tile
p424
(dp425
g339
g347
sg341
VF_Grass_Alt_5
p426
sg343
F1
sg344
I00
sba(imapping
Tile
p427
(dp428
g339
g347
sg341
VF_Dirt
p429
sg343
F1
sg344
I00
sba(imapping
Tile
p430
(dp431
g339
g347
sg341
VF_Dirt
p432
sg343
F1
sg344
I00
sba(imapping
Tile
p433
(dp434
g339
g347
sg341
VF_Dirt_Alt_1
p435
sg343
F1
sg344
I00
sba(imapping
Tile
p436
(dp437
g339
g347
sg341
VF_Dirt_Alt_2
p438
sg343
F1
sg344
I00
sba(imapping
Tile
p439
(dp440
g339
g347
sg341
VF_Dirt
p441
sg343
F1
sg344
I00
sba(imapping
Tile
p442
(dp443
g339
g347
sg341
VF_Dirt
p444
sg343
F1
sg344
I00
sba(imapping
Tile
p445
(dp446
g339
g347
sg341
VF_Dirt
p447
sg343
F1
sg344
I00
sbaa(lp448
NaNaNa(imapping
Tile
p449
(dp450
g339
S'NONE'
p451
sg341
VF_Tuft2
p452
sg343
F1
sg344
I00
sba(imapping
Tile
p453
(dp454
g339
g347
sg341
VF_Grass_Alt_3
p455
sg343
F1
sg344
I00
sba(imapping
Tile
p456
(dp457
g339
g347
sg341
VF_Dirt
p458
sg343
F1
sg344
I00
sba(imapping
Tile
p459
(dp460
g339
g347
sg341
VF_Dirt
p461
sg343
F1
sg344
I00
sba(imapping
Tile
p462
(dp463
g339
g347
sg341
VF_Dirt
p464
sg343
F1
sg344
I00
sba(imapping
Tile
p465
(dp466
g339
g347
sg341
VF_Dirt
p467
sg343
F1
sg344
I00
sba(imapping
Tile
p468
(dp469
g339
g347
sg341
VF_Dirt
p470
sg343
F1
sg344
I00
sba(imapping
Tile
p471
(dp472
g339
g347
sg341
VF_Dirt
p473
sg343
F1
sg344
I00
sba(imapping
Tile
p474
(dp475
g339
g347
sg341
VF_Dirt
p476
sg343
F1
sg344
I00
sbaa(lp477
NaNaNaNa(imapping
Tile
p478
(dp479
g339
g347
sg341
VF_GrassRedge
p480
sg343
F1
sg344
I00
sba(imapping
Tile
p481
(dp482
g339
g347
sg341
VF_Dirt_R1
p483
sg343
F1
sg344
I00
sba(imapping
Tile
p484
(dp485
g339
g347
sg341
VF_Dirt_R1
p486
sg343
F1
sg344
I00
sba(imapping
Tile
p487
(dp488
g339
g347
sg341
VF_Dirt_R2
p489
sg343
F1
sg344
I00
sba(imapping
Tile
p490
(dp491
g339
g347
sg341
VF_Dirt_R1
p492
sg343
F1
sg344
I00
sba(imapping
Tile
p493
(dp494
g339
g347
sg341
VF_Grass->DirtR
p495
sg343
F1
sg344
I00
sba(imapping
Tile
p496
(dp497
g339
g347
sg341
VF_Dirt
p498
sg343
F1
sg344
I00
sba(imapping
Tile
p499
(dp500
g339
g347
sg341
VF_Dirt
p501
sg343
F1
sg344
I00
sbaa(lp502
NaNaNaNaNaNaNaNaNa(imapping
Tile
p503
(dp504
g339
g347
sg341
VF_Grass_Alt_5
p505
sg343
F1
sg344
I00
sba(imapping
Tile
p506
(dp507
g339
g347
sg341
VF_Dirt
p508
sg343
F1
sg344
I00
sba(imapping
Tile
p509
(dp510
g339
g347
sg341
VF_Dirt_Alt_3
p511
sg343
F1
sg344
I00
sbaa(lp512
NaNaNaNaNaNaNaNaNa(imapping
Tile
p513
(dp514
g339
g347
sg341
VF_Grass_Alt_5
p515
sg343
F1
sg344
I00
sba(imapping
Tile
p516
(dp517
g339
g347
sg341
VF_Dirt
p518
sg343
F1
sg344
I00
sba(imapping
Tile
p519
(dp520
g339
g347
sg341
VF_Dirt
p521
sg343
F1
sg344
I00
sbaa(lp522
NaNaNaNaNaNaNaNaNa(imapping
Tile
p523
(dp524
g339
g347
sg341
VF_Grass_Alt_3
p525
sg343
F1
sg344
I00
sba(imapping
Tile
p526
(dp527
g339
g347
sg341
VF_Dirt_Alt_1
p528
sg343
F1
sg344
I00
sba(imapping
Tile
p529
(dp530
g339
g347
sg341
VF_Dirt
p531
sg343
F1
sg344
I00
sbaa(lp532
NaNaNaNaNaNaNaNaNa(imapping
Tile
p533
(dp534
g339
g347
sg341
VF_Grass_Alt_4
p535
sg343
F1
sg344
I00
sba(imapping
Tile
p536
(dp537
g339
g347
sg341
VF_Dirt
p538
sg343
F1
sg344
I00
sba(imapping
Tile
p539
(dp540
g339
g347
sg341
VF_Dirt
p541
sg343
F1
sg344
I00
sbaa(lp542
NaNaNaNaNaNaNaNaNa(imapping
Tile
p543
(dp544
g339
g347
sg341
VF_Grass_Alt_4
p545
sg343
F1
sg344
I00
sba(imapping
Tile
p546
(dp547
g339
g347
sg341
VF_Dirt
p548
sg343
F1
sg344
I00
sba(imapping
Tile
p549
(dp550
g339
g347
sg341
VF_Dirt
p551
sg343
F1
sg344
I00
sbaa(lp552
NaNaNaNaNaNaNaNaNa(imapping
Tile
p553
(dp554
g339
g347
sg341
VF_Grass
p555
sg343
F1
sg344
I00
sba(imapping
Tile
p556
(dp557
g339
g347
sg341
VF_Dirt
p558
sg343
F1
sg344
I00
sba(imapping
Tile
p559
(dp560
g339
g347
sg341
VF_Dirt_Alt_4
p561
sg343
F1
sg344
I00
sbaa(lp562
NaNaNaNaNaNaNaNaNa(imapping
Tile
p563
(dp564
g339
g347
sg341
VF_Grass_Alt_5
p565
sg343
F1
sg344
I00
sba(imapping
Tile
p566
(dp567
g339
g347
sg341
VF_Dirt
p568
sg343
F1
sg344
I00
sba(imapping
Tile
p569
(dp570
g339
g347
sg341
VF_Dirt
p571
sg343
F1
sg344
I00
sbaa(lp572
NaNaNaNaNaNaNaNaNa(imapping
Tile
p573
(dp574
g339
g347
sg341
VF_Grass
p575
sg343
F1
sg344
I00
sba(imapping
Tile
p576
(dp577
g339
g347
sg341
VF_Dirt
p578
sg343
F1
sg344
I00
sba(imapping
Tile
p579
(dp580
g339
g347
sg341
VF_Dirt
p581
sg343
F1
sg344
I00
sbaa(lp582
NaNaNaNaNaNaNaNaNa(imapping
Tile
p583
(dp584
g339
g347
sg341
VF_Grass
p585
sg343
F1
sg344
I00
sba(imapping
Tile
p586
(dp587
g339
g347
sg341
VF_Dirt
p588
sg343
F1
sg344
I00
sba(imapping
Tile
p589
(dp590
g339
g347
sg341
VF_Dirt
p591
sg343
F1
sg344
I00
sbaa(lp592
NaNaNaNaNaNaNaNaNa(imapping
Tile
p593
(dp594
g339
g347
sg341
VF_Grass
p595
sg343
F1
sg344
I00
sba(imapping
Tile
p596
(dp597
g339
g347
sg341
VF_Dirt
p598
sg343
F1
sg344
I00
sba(imapping
Tile
p599
(dp600
g339
g347
sg341
VF_Dirt_Alt_1
p601
sg343
F1
sg344
I00
sbaa(lp602
NaNaNaNaNaNaNaNa(imapping
Tile
p603
(dp604
g339
g340
sg341
VF_Shrooms1
p605
sg343
F1
sg344
I00
sba(imapping
Tile
p606
(dp607
g339
g347
sg341
VF_Grass_Alt_3
p608
sg343
F1
sg344
I00
sba(imapping
Tile
p609
(dp610
g339
g347
sg341
VF_Dirt
p611
sg343
F1
sg344
I00
sba(imapping
Tile
p612
(dp613
g339
g347
sg341
VF_Dirt
p614
sg343
F1
sg344
I00
sbaa(lp615
NaNaNaNaNaNaNaNaNa(imapping
Tile
p616
(dp617
g339
g347
sg341
VF_Grass_Alt_4
p618
sg343
F1
sg344
I00
sba(imapping
Tile
p619
(dp620
g339
g347
sg341
VF_Dirt
p621
sg343
F1
sg344
I00
sba(imapping
Tile
p622
(dp623
g339
g347
sg341
VF_Dirt
p624
sg343
F1
sg344
I00
sbaa(lp625
NaNaNaNaNaNaNaNaNa(imapping
Tile
p626
(dp627
g339
g347
sg341
VF_Grass_Alt_1
p628
sg343
F1
sg344
I00
sba(imapping
Tile
p629
(dp630
g339
g347
sg341
VF_Dirt
p631
sg343
F1
sg344
I00
sba(imapping
Tile
p632
(dp633
g339
g347
sg341
VF_Dirt
p634
sg343
F1
sg344
I00
sbaa(lp635
NaNaNaNaNaNaNaNa(imapping
Tile
p636
(dp637
g339
S'RIGHT_HINCLINATION1'
p638
sg341
VF_Right_Halframp1
p639
sg343
F1
sg344
I00
sba(imapping
Tile
p640
(dp641
g339
g347
sg341
VF_RampJoinR
p642
sg343
F1
sg344
I00
sba(imapping
Tile
p643
(dp644
g339
g347
sg341
VF_Dirt
p645
sg343
F1
sg344
I00
sba(imapping
Tile
p646
(dp647
g339
g347
sg341
VF_Dirt
p648
sg343
F1
sg344
I00
sbaa(lp649
NaNaNaNaNaNaNaNa(imapping
Tile
p650
(dp651
g339
S'RIGHT_HINCLINATION2'
p652
sg341
VF_Right_Halframp2
p653
sg343
F1
sg344
I00
sba(imapping
Tile
p654
(dp655
g339
g347
sg341
VF_Dirt
p656
sg343
F1
sg344
I00
sba(imapping
Tile
p657
(dp658
g339
g347
sg341
VF_Dirt
p659
sg343
F1
sg344
I00
sba(imapping
Tile
p660
(dp661
g339
g347
sg341
VF_Dirt
p662
sg343
F1
sg344
I00
sbaa(lp663
NaNaNaNaNaNaNa(imapping
Tile
p664
(dp665
g339
S'RIGHT_INCLINATION'
p666
sg341
VF_Right_Ramp
p667
sg343
F1
sg344
I00
sba(imapping
Tile
p668
(dp669
g339
g347
sg341
VF_RampJoinR
p670
sg343
F1
sg344
I00
sba(imapping
Tile
p671
(dp672
g339
g347
sg341
VF_Dirt
p673
sg343
F1
sg344
I00
sba(imapping
Tile
p674
(dp675
g339
g347
sg341
VF_Dirt
p676
sg343
F1
sg344
I00
sba(imapping
Tile
p677
(dp678
g339
g347
sg341
VF_Dirt_Alt_3
p679
sg343
F1
sg344
I00
sbaa(lp680
NaNaNaNaNaNa(imapping
Tile
p681
(dp682
g339
g340
sg341
VF_Shrooms3
p683
sg343
F1
sg344
I00
sba(imapping
Tile
p684
(dp685
g339
g347
sg341
VF_Grass_Alt_2
p686
sg343
F1
sg344
I00
sba(imapping
Tile
p687
(dp688
g339
g347
sg341
VF_Dirt
p689
sg343
F1
sg344
I00
sba(imapping
Tile
p690
(dp691
g339
g347
sg341
VF_Dirt
p692
sg343
F1
sg344
I00
sba(imapping
Tile
p693
(dp694
g339
g347
sg341
VF_Dirt
p695
sg343
F1
sg344
I00
sba(imapping
Tile
p696
(dp697
g339
g347
sg341
VF_Dirt
p698
sg343
F1
sg344
I00
sbaa(lp699
NaNaNaNaNaNa(imapping
Tile
p700
(dp701
g339
g451
sg341
VF_Tuft1
p702
sg343
F1
sg344
I00
sba(imapping
Tile
p703
(dp704
g339
g347
sg341
VF_Grass
p705
sg343
F1
sg344
I00
sba(imapping
Tile
p706
(dp707
g339
g347
sg341
VF_Dirt
p708
sg343
F1
sg344
I00
sba(imapping
Tile
p709
(dp710
g339
g347
sg341
VF_Dirt
p711
sg343
F1
sg344
I00
sba(imapping
Tile
p712
(dp713
g339
g347
sg341
VF_Dirt
p714
sg343
F1
sg344
I00
sba(imapping
Tile
p715
(dp716
g339
g347
sg341
VF_Dirt
p717
sg343
F1
sg344
I00
sbaa(lp718
NaNaNaNaNaNa(imapping
Tile
p719
(dp720
g339
g451
sg341
VF_Shrooms2
p721
sg343
F1
sg344
I00
sba(imapping
Tile
p722
(dp723
g339
g347
sg341
VF_Grass_Alt_3
p724
sg343
F1
sg344
I00
sba(imapping
Tile
p725
(dp726
g339
g347
sg341
VF_Dirt
p727
sg343
F1
sg344
I00
sba(imapping
Tile
p728
(dp729
g339
g347
sg341
VF_Dirt_Alt_3
p730
sg343
F1
sg344
I00
sba(imapping
Tile
p731
(dp732
g339
g347
sg341
VF_Dirt
p733
sg343
F1
sg344
I00
sba(imapping
Tile
p734
(dp735
g339
g347
sg341
VF_Dirt
p736
sg343
F1
sg344
I00
sbaa(lp737
NaNaNaNaNaNa(imapping
Tile
p738
(dp739
g339
g451
sg341
VF_Tuft2
p740
sg343
F1
sg344
I00
sba(imapping
Tile
p741
(dp742
g339
g347
sg341
VF_Grass
p743
sg343
F1
sg344
I00
sba(imapping
Tile
p744
(dp745
g339
g347
sg341
VF_Dirt
p746
sg343
F1
sg344
I00
sba(imapping
Tile
p747
(dp748
g339
g347
sg341
VF_Dirt
p749
sg343
F1
sg344
I00
sba(imapping
Tile
p750
(dp751
g339
g347
sg341
VF_Dirt_Alt_1
p752
sg343
F1
sg344
I00
sba(imapping
Tile
p753
(dp754
g339
g347
sg341
VF_Dirt
p755
sg343
F1
sg344
I00
sbaa(lp756
NaNaNaNaNaNaNa(imapping
Tile
p757
(dp758
g339
g347
sg341
VF_GrassRedge
p759
sg343
F1
sg344
I00
sba(imapping
Tile
p760
(dp761
g339
g347
sg341
VF_Dirt_R1
p762
sg343
F1
sg344
I00
sba(imapping
Tile
p763
(dp764
g339
g347
sg341
VF_Dirt_R1
p765
sg343
F1
sg344
I00
sba(imapping
Tile
p766
(dp767
g339
g347
sg341
VF_Dirt_R2
p768
sg343
F1
sg344
I00
sba(imapping
Tile
p769
(dp770
g339
g347
sg341
VF_Dirt_R1
p771
sg343
F1
sg344
I00
sbaa(lp772
NaNaNaNaNaNaNaNaNaNaNaNaa(lp773
NaNaNaNaNaNaNaNa(imapping
Tile
p774
(dp775
g339
g347
sg341
VF_GrassLedge
p776
sg343
F1
sg344
I00
sba(imapping
Tile
p777
(dp778
g339
g347
sg341
VF_Dirt_L2
p779
sg343
F1
sg344
I00
sba(imapping
Tile
p780
(dp781
g339
g347
sg341
VF_Dirt_L1
p782
sg343
F1
sg344
I00
sba(imapping
Tile
p783
(dp784
g339
g347
sg341
VF_Dirt_L2
p785
sg343
F1
sg344
I00
sbaa(lp786
NaNaNaNaNaNaNa(imapping
Tile
p787
(dp788
g339
g340
sg341
VF_Shrooms1
p789
sg343
F1
sg344
I00
sba(imapping
Tile
p790
(dp791
g339
g347
sg341
VF_Grass_Alt_5
p792
sg343
F1
sg344
I00
sba(imapping
Tile
p793
(dp794
g339
g347
sg341
VF_Dirt
p795
sg343
F1
sg344
I00
sba(imapping
Tile
p796
(dp797
g339
g347
sg341
VF_Dirt
p798
sg343
F1
sg344
I00
sba(imapping
Tile
p799
(dp800
g339
g347
sg341
VF_Dirt
p801
sg343
F1
sg344
I00
sbaa(lp802
NaNaNaNaNaNaNaNa(imapping
Tile
p803
(dp804
g339
g347
sg341
VF_Grass_Alt_3
p805
sg343
F1
sg344
I00
sba(imapping
Tile
p806
(dp807
g339
g347
sg341
VF_Dirt_Alt_2
p808
sg343
F1
sg344
I00
sba(imapping
Tile
p809
(dp810
g339
g347
sg341
VF_Dirt
p811
sg343
F1
sg344
I00
sba(imapping
Tile
p812
(dp813
g339
g347
sg341
VF_Dirt_Alt_2
p814
sg343
F1
sg344
I00
sbaa(lp815
NaNaNaNaNaNaNa(imapping
Tile
p816
(dp817
g339
g666
sg341
VF_Right_Ramp
p818
sg343
F1
sg344
I00
sba(imapping
Tile
p819
(dp820
g339
g347
sg341
VF_RampJoinR
p821
sg343
F1
sg344
I00
sba(imapping
Tile
p822
(dp823
g339
g347
sg341
VF_Dirt
p824
sg343
F1
sg344
I00
sba(imapping
Tile
p825
(dp826
g339
g347
sg341
VF_Dirt
p827
sg343
F1
sg344
I00
sba(imapping
Tile
p828
(dp829
g339
g347
sg341
VF_Dirt
p830
sg343
F1
sg344
I00
sbaa(lp831
NaNaNaNaNaNa(imapping
Tile
p832
(dp833
g339
g638
sg341
VF_Right_Halframp1
p834
sg343
F1
sg344
I00
sba(imapping
Tile
p835
(dp836
g339
g347
sg341
VF_RampJoinR
p837
sg343
F1
sg344
I00
sba(imapping
Tile
p838
(dp839
g339
g347
sg341
VF_Dirt
p840
sg343
F1
sg344
I00
sba(imapping
Tile
p841
(dp842
g339
g347
sg341
VF_Dirt
p843
sg343
F1
sg344
I00
sba(imapping
Tile
p844
(dp845
g339
g347
sg341
VF_Dirt
p846
sg343
F1
sg344
I00
sba(imapping
Tile
p847
(dp848
g339
g347
sg341
VF_Dirt
p849
sg343
F1
sg344
I00
sbaa(lp850
NaNaNaNaNaNa(imapping
Tile
p851
(dp852
g339
g652
sg341
VF_Right_Halframp2
p853
sg343
F1
sg344
I00
sba(imapping
Tile
p854
(dp855
g339
g347
sg341
VF_Dirt
p856
sg343
F1
sg344
I00
sba(imapping
Tile
p857
(dp858
g339
g347
sg341
VF_Dirt
p859
sg343
F1
sg344
I00
sba(imapping
Tile
p860
(dp861
g339
g347
sg341
VF_Dirt
p862
sg343
F1
sg344
I00
sba(imapping
Tile
p863
(dp864
g339
g347
sg341
VF_Dirt
p865
sg343
F1
sg344
I00
sba(imapping
Tile
p866
(dp867
g339
g347
sg341
VF_Dirt
p868
sg343
F1
sg344
I00
sbaa(lp869
NaNaNaNaNa(imapping
Tile
p870
(dp871
g339
g638
sg341
VF_Right_Halframp1
p872
sg343
F1
sg344
I00
sba(imapping
Tile
p873
(dp874
g339
g347
sg341
VF_RampJoinR
p875
sg343
F1
sg344
I00
sba(imapping
Tile
p876
(dp877
g339
g347
sg341
VF_Dirt
p878
sg343
F1
sg344
I00
sba(imapping
Tile
p879
(dp880
g339
g347
sg341
VF_Dirt
p881
sg343
F1
sg344
I00
sba(imapping
Tile
p882
(dp883
g339
g347
sg341
VF_Dirt
p884
sg343
F1
sg344
I00
sba(imapping
Tile
p885
(dp886
g339
g347
sg341
VF_Dirt
p887
sg343
F1
sg344
I00
sba(imapping
Tile
p888
(dp889
g339
g347
sg341
VF_Dirt
p890
sg343
F1
sg344
I00
sbaa(lp891
NaNaNaNaNa(imapping
Tile
p892
(dp893
g339
g652
sg341
VF_Right_Halframp2
p894
sg343
F1
sg344
I00
sba(imapping
Tile
p895
(dp896
g339
g347
sg341
VF_Dirt
p897
sg343
F1
sg344
I00
sba(imapping
Tile
p898
(dp899
g339
g347
sg341
VF_Dirt
p900
sg343
F1
sg344
I00
sba(imapping
Tile
p901
(dp902
g339
g347
sg341
VF_Dirt
p903
sg343
F1
sg344
I00
sba(imapping
Tile
p904
(dp905
g339
g347
sg341
VF_Dirt_Alt_2
p906
sg343
F1
sg344
I00
sba(imapping
Tile
p907
(dp908
g339
g347
sg341
VF_Dirt
p909
sg343
F1
sg344
I00
sba(imapping
Tile
p910
(dp911
g339
g347
sg341
VF_Dirt
p912
sg343
F1
sg344
I00
sbaa(lp913
NaNaNaNaNa(imapping
Tile
p914
(dp915
g339
g347
sg341
VF_Grass_Alt_4
p916
sg343
F1
sg344
I00
sba(imapping
Tile
p917
(dp918
g339
g347
sg341
VF_Dirt
p919
sg343
F1
sg344
I00
sba(imapping
Tile
p920
(dp921
g339
g347
sg341
VF_Dirt
p922
sg343
F1
sg344
I00
sba(imapping
Tile
p923
(dp924
g339
g347
sg341
VF_Dirt
p925
sg343
F1
sg344
I00
sba(imapping
Tile
p926
(dp927
g339
g347
sg341
VF_Dirt
p928
sg343
F1
sg344
I00
sba(imapping
Tile
p929
(dp930
g339
g347
sg341
VF_Dirt
p931
sg343
F1
sg344
I00
sba(imapping
Tile
p932
(dp933
g339
g347
sg341
VF_Dirt
p934
sg343
F1
sg344
I00
sbaa(lp935
NaNaNaNaNa(imapping
Tile
p936
(dp937
g339
g347
sg341
VF_Grass_Alt_3
p938
sg343
F1
sg344
I00
sba(imapping
Tile
p939
(dp940
g339
g347
sg341
VF_Dirt
p941
sg343
F1
sg344
I00
sba(imapping
Tile
p942
(dp943
g339
g347
sg341
VF_Dirt_Alt_3
p944
sg343
F1
sg344
I00
sba(imapping
Tile
p945
(dp946
g339
g347
sg341
VF_Dirt
p947
sg343
F1
sg344
I00
sba(imapping
Tile
p948
(dp949
g339
g347
sg341
VF_Dirt_Alt_1
p950
sg343
F1
sg344
I00
sba(imapping
Tile
p951
(dp952
g339
g347
sg341
VF_Dirt
p953
sg343
F1
sg344
I00
sba(imapping
Tile
p954
(dp955
g339
g347
sg341
VF_Dirt
p956
sg343
F1
sg344
I00
sbaa(lp957
NaNaNaNaNa(imapping
Tile
p958
(dp959
g339
g347
sg341
VF_Grass_Alt_5
p960
sg343
F1
sg344
I00
sba(imapping
Tile
p961
(dp962
g339
g347
sg341
VF_Dirt
p963
sg343
F1
sg344
I00
sba(imapping
Tile
p964
(dp965
g339
g347
sg341
VF_Dirt
p966
sg343
F1
sg344
I00
sba(imapping
Tile
p967
(dp968
g339
g347
sg341
VF_Dirt
p969
sg343
F1
sg344
I00
sba(imapping
Tile
p970
(dp971
g339
g347
sg341
VF_Dirt
p972
sg343
F1
sg344
I00
sba(imapping
Tile
p973
(dp974
g339
g347
sg341
VF_Dirt
p975
sg343
F1
sg344
I00
sba(imapping
Tile
p976
(dp977
g339
g347
sg341
VF_Dirt
p978
sg343
F1
sg344
I00
sbaa(lp979
NaNaNaNaNa(imapping
Tile
p980
(dp981
g339
g347
sg341
VF_Grass_Alt_3
p982
sg343
F1
sg344
I00
sba(imapping
Tile
p983
(dp984
g339
g347
sg341
VF_Dirt
p985
sg343
F1
sg344
I00
sba(imapping
Tile
p986
(dp987
g339
g347
sg341
VF_Dirt
p988
sg343
F1
sg344
I00
sba(imapping
Tile
p989
(dp990
g339
g347
sg341
VF_Dirt_Alt_1
p991
sg343
F1
sg344
I00
sba(imapping
Tile
p992
(dp993
g339
g347
sg341
VF_Dirt
p994
sg343
F1
sg344
I00
sba(imapping
Tile
p995
(dp996
g339
g347
sg341
VF_Dirt
p997
sg343
F1
sg344
I00
sba(imapping
Tile
p998
(dp999
g339
g347
sg341
VF_Dirt
p1000
sg343
F1
sg344
I00
sbaa(lp1001
NaNaNaNa(imapping
Tile
p1002
(dp1003
g339
g451
sg341
VF_Shrooms2
p1004
sg343
F1
sg344
I00
sba(imapping
Tile
p1005
(dp1006
g339
g347
sg341
VF_Grass
p1007
sg343
F1
sg344
I00
sba(imapping
Tile
p1008
(dp1009
g339
g347
sg341
VF_Dirt
p1010
sg343
F1
sg344
I00
sba(imapping
Tile
p1011
(dp1012
g339
g347
sg341
VF_Dirt
p1013
sg343
F1
sg344
I00
sba(imapping
Tile
p1014
(dp1015
g339
g347
sg341
VF_Dirt
p1016
sg343
F1
sg344
I00
sba(imapping
Tile
p1017
(dp1018
g339
g347
sg341
VF_Dirt
p1019
sg343
F1
sg344
I00
sba(imapping
Tile
p1020
(dp1021
g339
g347
sg341
VF_Dirt
p1022
sg343
F1
sg344
I00
sba(imapping
Tile
p1023
(dp1024
g339
g347
sg341
VF_Dirt_Alt_4
p1025
sg343
F1
sg344
I00
sbaa(lp1026
NaNaNaNaNa(imapping
Tile
p1027
(dp1028
g339
S'LEFT_INCLINATION'
p1029
sg341
VF_Left_Ramp
p1030
sg343
F1
sg344
I00
sba(imapping
Tile
p1031
(dp1032
g339
g347
sg341
VF_RampJoinL
p1033
sg343
F1
sg344
I00
sba(imapping
Tile
p1034
(dp1035
g339
g347
sg341
VF_Dirt
p1036
sg343
F1
sg344
I00
sba(imapping
Tile
p1037
(dp1038
g339
g347
sg341
VF_Dirt
p1039
sg343
F1
sg344
I00
sba(imapping
Tile
p1040
(dp1041
g339
g347
sg341
VF_Dirt
p1042
sg343
F1
sg344
I00
sba(imapping
Tile
p1043
(dp1044
g339
g347
sg341
VF_Dirt
p1045
sg343
F1
sg344
I00
sba(imapping
Tile
p1046
(dp1047
g339
g347
sg341
VF_Dirt
p1048
sg343
F1
sg344
I00
sbaa(lp1049
NaNaNaNaNaNa(imapping
Tile
p1050
(dp1051
g339
g1029
sg341
VF_Left_Ramp
p1052
sg343
F1
sg344
I00
sba(imapping
Tile
p1053
(dp1054
g339
g347
sg341
VF_RampJoinL
p1055
sg343
F1
sg344
I00
sba(imapping
Tile
p1056
(dp1057
g339
g347
sg341
VF_Dirt
p1058
sg343
F1
sg344
I00
sba(imapping
Tile
p1059
(dp1060
g339
g347
sg341
VF_Dirt
p1061
sg343
F1
sg344
I00
sba(imapping
Tile
p1062
(dp1063
g339
g347
sg341
VF_Dirt
p1064
sg343
F1
sg344
I00
sba(imapping
Tile
p1065
(dp1066
g339
g347
sg341
VF_Dirt
p1067
sg343
F1
sg344
I00
sbaa(lp1068
NaNaNaNaNaNaNa(imapping
Tile
p1069
(dp1070
g339
g1029
sg341
VF_Left_Ramp
p1071
sg343
F1
sg344
I00
sba(imapping
Tile
p1072
(dp1073
g339
g347
sg341
VF_RampJoinL
p1074
sg343
F1
sg344
I00
sba(imapping
Tile
p1075
(dp1076
g339
g347
sg341
VF_Dirt
p1077
sg343
F1
sg344
I00
sba(imapping
Tile
p1078
(dp1079
g339
g347
sg341
VF_Dirt
p1080
sg343
F1
sg344
I00
sba(imapping
Tile
p1081
(dp1082
g339
g347
sg341
VF_Dirt
p1083
sg343
F1
sg344
I00
sbaa(lp1084
NaNaNaNaNaNaNaNa(imapping
Tile
p1085
(dp1086
g339
g1029
sg341
VF_Left_Ramp
p1087
sg343
F1
sg344
I00
sba(imapping
Tile
p1088
(dp1089
g339
g347
sg341
VF_RampJoinL
p1090
sg343
F1
sg344
I00
sba(imapping
Tile
p1091
(dp1092
g339
g347
sg341
VF_Dirt
p1093
sg343
F1
sg344
I00
sba(imapping
Tile
p1094
(dp1095
g339
g347
sg341
VF_Dirt
p1096
sg343
F1
sg344
I00
sbaa(lp1097
NaNaNaNaNaNaNaNaNa(imapping
Tile
p1098
(dp1099
g339
g1029
sg341
VF_Left_Ramp
p1100
sg343
F1
sg344
I00
sba(imapping
Tile
p1101
(dp1102
g339
g347
sg341
VF_RampJoinL
p1103
sg343
F1
sg344
I00
sba(imapping
Tile
p1104
(dp1105
g339
g347
sg341
VF_Dirt
p1106
sg343
F1
sg344
I00
sbaa(lp1107
NaNaNaNaNaNaNaNaNaNa(imapping
Tile
p1108
(dp1109
g339
S'LEFT_HINCLINATION2'
p1110
sg341
VF_Left_Halframp2
p1111
sg343
F1
sg344
I00
sba(imapping
Tile
p1112
(dp1113
g339
g347
sg341
VF_Dirt
p1114
sg343
F1
sg344
I00
sbaa(lp1115
NaNaNaNaNaNaNaNaNaNa(imapping
Tile
p1116
(dp1117
g339
S'LEFT_HINCLINATION1'
p1118
sg341
VF_Left_Halframp1
p1119
sg343
F1
sg344
I00
sba(imapping
Tile
p1120
(dp1121
g339
g347
sg341
VF_RampJoinL
p1122
sg343
F1
sg344
I00
sbaa(lp1123
NaNaNaNaNaNaNaNaNaNa(imapping
Tile
p1124
(dp1125
g339
g451
sg341
VF_Tuft1
p1126
sg343
F1
sg344
I00
sba(imapping
Tile
p1127
(dp1128
g339
g347
sg341
VF_Grass
p1129
sg343
F1
sg344
I00
sbaa(lp1130
NaNaNaNaNaNaNaNaNaNa(imapping
Tile
p1131
(dp1132
g339
g451
sg341
VF_Tuft2
p1133
sg343
F1
sg344
I00
sba(imapping
Tile
p1134
(dp1135
g339
g347
sg341
VF_Grass_Alt_3
p1136
sg343
F1
sg344
I00
sbaa(lp1137
NaNaNaNaNaNaNaNaNaNa(imapping
Tile
p1138
(dp1139
g339
g340
sg341
VF_Shrooms1
p1140
sg343
F1
sg344
I00
sba(imapping
Tile
p1141
(dp1142
g339
g347
sg341
VF_Grass
p1143
sg343
F1
sg344
I00
sbaa(lp1144
NaNaNaNaNaNaNaNaNaNa(imapping
Tile
p1145
(dp1146
g339
g340
sg341
VF_Shrooms3
p1147
sg343
F1
sg344
I00
sba(imapping
Tile
p1148
(dp1149
g339
g347
sg341
VF_Grass_Alt_4
p1150
sg343
F1
sg344
I00
sbaa(lp1151
NaNaNaNaNaNaNaNaNaNa(imapping
Tile
p1152
(dp1153
g339
g340
sg341
VF_Stump
p1154
sg343
F1
sg344
I00
sba(imapping
Tile
p1155
(dp1156
g339
g347
sg341
VF_Grass_Alt_3
p1157
sg343
F1
sg344
I00
sbaa(lp1158
NaNaNaNaNaNaNaNaNaNaNa(imapping
Tile
p1159
(dp1160
g339
g347
sg341
VF_Grass_Alt_5
p1161
sg343
F1
sg344
I00
sbaa(lp1162
NaNaNaNaNaNaNaNaNaNaNa(imapping
Tile
p1163
(dp1164
g339
g347
sg341
VF_Grass
p1165
sg343
F1
sg344
I00
sbaa(lp1166
NaNaNaNaNaNaNaNaNaNaNa(imapping
Tile
p1167
(dp1168
g339
g347
sg341
VF_Grass->Dirttop
p1169
sg343
F1
sg344
I00
sbaa(lp1170
NaNaNaNaNaNaNaNaNaNaNa(imapping
Tile
p1171
(dp1172
g339
g347
sg341
VF_Dirttop
p1173
sg343
F1
sg344
I00
sbaa(lp1174
NaNaNaNaNaNaNaNaNaNaNa(imapping
Tile
p1175
(dp1176
g339
g347
sg341
VF_Dirttop
p1177
sg343
F1
sg344
I00
sbaa(lp1178
NaNaNaNaNaNaNaNaNaNaNa(imapping
Tile
p1179
(dp1180
g339
g347
sg341
VF_Dirttop
p1181
sg343
F1
sg344
I00
sbaa(lp1182
NaNaNaNaNaNaNaNaNaNaNa(imapping
Tile
p1183
(dp1184
g339
g347
sg341
VF_Dirttop
p1185
sg343
F1
sg344
I00
sbaa(lp1186
NaNaNaNaNaNaNaNaNaNaNa(imapping
Tile
p1187
(dp1188
g339
g347
sg341
VF_Dirttop
p1189
sg343
F1
sg344
I00
sbaa(lp1190
NaNaNaNaNaNaNaNaNaNaNa(imapping
Tile
p1191
(dp1192
g339
g347
sg341
VF_Dirttop
p1193
sg343
F1
sg344
I00
sbaa(lp1194
NaNaNaNaNaNaNaNaNaNaNa(imapping
Tile
p1195
(dp1196
g339
g347
sg341
VF_Dirttop
p1197
sg343
F1
sg344
I00
sbaa(lp1198
NaNaNaNaNaNaNaNaNaNaNa(imapping
Tile
p1199
(dp1200
g339
g347
sg341
VF_Dirttop
p1201
sg343
F1
sg344
I00
sbaa(lp1202
NaNaNaNaNaNaNaNaNaNaNa(imapping
Tile
p1203
(dp1204
g339
g347
sg341
VF_Dirttop
p1205
sg343
F1
sg344
I00
sbaa(lp1206
NaNaNaNaNaNaNaNaNaNaNa(imapping
Tile
p1207
(dp1208
g339
g347
sg341
VF_Dirttop
p1209
sg343
F1
sg344
I00
sbaa(lp1210
NaNaNaNaNaNaNaNaNaNaNa(imapping
Tile
p1211
(dp1212
g339
g347
sg341
VF_Dirttop
p1213
sg343
F1
sg344
I00
sbaa(lp1214
NaNaNaNaNaNaNaNaNaNa(imapping
Tile
p1215
(dp1216
g339
g340
sg341
VF_Shrooms3
p1217
sg343
F1
sg344
I00
sba(imapping
Tile
p1218
(dp1219
g339
g347
sg341
VF_Dirttop
p1220
sg343
F1
sg344
I00
sbaa(lp1221
NaNaNaNaNaNaNaNaNaNaNa(imapping
Tile
p1222
(dp1223
g339
g347
sg341
VF_Dirttop
p1224
sg343
F1
sg344
I00
sbaa(lp1225
NaNaNaNaNaNaNaNaNaNaNa(imapping
Tile
p1226
(dp1227
g339
g347
sg341
VF_Dirttop
p1228
sg343
F1
sg344
I00
sbaa(lp1229
NaNaNaNaNaNaNaNaNaNaNa(imapping
Tile
p1230
(dp1231
g339
g347
sg341
VF_Dirttop
p1232
sg343
F1
sg344
I00
sbaa(lp1233
NaNaNaNaNaNaNaNaNaNaNa(imapping
Tile
p1234
(dp1235
g339
g347
sg341
VF_Dirttop
p1236
sg343
F1
sg344
I00
sbaa(lp1237
NaNaNaNaNaNaNaNaNaNaNa(imapping
Tile
p1238
(dp1239
g339
g347
sg341
VF_Dirttop
p1240
sg343
F1
sg344
I00
sbaa(lp1241
NaNaNaNaNaNaNaNaNaNaNa(imapping
Tile
p1242
(dp1243
g339
g347
sg341
VF_Dirttop
p1244
sg343
F1
sg344
I00
sbaa(lp1245
NaNaNaNaNaNaNaNaNaNaNa(imapping
Tile
p1246
(dp1247
g339
g347
sg341
VF_Dirttop->Grass
p1248
sg343
F1
sg344
I00
sbaa(lp1249
NaNaNaNaNaNaNaNaNaNaNa(imapping
Tile
p1250
(dp1251
g339
g347
sg341
VF_Grass
p1252
sg343
F1
sg344
I00
sbaa(lp1253
NaNaNaNaNaNaNaNaNaNaNa(imapping
Tile
p1254
(dp1255
g339
g347
sg341
VF_Grass_Alt_4
p1256
sg343
F1
sg344
I00
sbaa(lp1257
NaNaNaNaNaNaNaNaNaNa(imapping
Tile
p1258
(dp1259
g339
g340
sg341
VF_Stump
p1260
sg343
F1
sg344
I00
sba(imapping
Tile
p1261
(dp1262
g339
g347
sg341
VF_Grass_Alt_3
p1263
sg343
F1
sg344
I00
sbaa(lp1264
NaNaNaNaNaNaNaNaNaNa(imapping
Tile
p1265
(dp1266
g339
g340
sg341
VF_Shrooms3
p1267
sg343
F1
sg344
I00
sba(imapping
Tile
p1268
(dp1269
g339
g347
sg341
VF_Grass_Alt_5
p1270
sg343
F1
sg344
I00
sbaa(lp1271
NaNaNaNaNaNaNaNaNaNa(imapping
Tile
p1272
(dp1273
g339
g451
sg341
VF_Shrooms2
p1274
sg343
F1
sg344
I00
sba(imapping
Tile
p1275
(dp1276
g339
g347
sg341
VF_Grass_Alt_3
p1277
sg343
F1
sg344
I00
sbaa(lp1278
NaNaNaNaNaNaNaNaNaNa(imapping
Tile
p1279
(dp1280
g339
g638
sg341
VF_Right_Halframp1
p1281
sg343
F1
sg344
I00
sba(imapping
Tile
p1282
(dp1283
g339
g347
sg341
VF_RampJoinR
p1284
sg343
F1
sg344
I00
sbaa(lp1285
NaNaNaNaNaNaNaNaNaNa(imapping
Tile
p1286
(dp1287
g339
g652
sg341
VF_Right_Halframp2
p1288
sg343
F1
sg344
I00
sba(imapping
Tile
p1289
(dp1290
g339
g347
sg341
VF_Dirt
p1291
sg343
F1
sg344
I00
sbaa(lp1292
NaNaNaNaNaNaNaNaNa(imapping
Tile
p1293
(dp1294
g339
g666
sg341
VF_Right_Ramp
p1295
sg343
F1
sg344
I00
sba(imapping
Tile
p1296
(dp1297
g339
g347
sg341
VF_RampJoinR
p1298
sg343
F1
sg344
I00
sba(imapping
Tile
p1299
(dp1300
g339
g347
sg341
VF_Dirt
p1301
sg343
F1
sg344
I00
sbaa(lp1302
NaNaNaNaNaNaNaNa(imapping
Tile
p1303
(dp1304
g339
g638
sg341
VF_Right_Halframp1
p1305
sg343
F1
sg344
I00
sba(imapping
Tile
p1306
(dp1307
g339
g347
sg341
VF_RampJoinR
p1308
sg343
F1
sg344
I00
sba(imapping
Tile
p1309
(dp1310
g339
g347
sg341
VF_Dirt
p1311
sg343
F1
sg344
I00
sba(imapping
Tile
p1312
(dp1313
g339
g347
sg341
VF_Dirt
p1314
sg343
F1
sg344
I00
sbaa(lp1315
NaNaNaNaNaNaNaNa(imapping
Tile
p1316
(dp1317
g339
g652
sg341
VF_Right_Halframp2
p1318
sg343
F1
sg344
I00
sba(imapping
Tile
p1319
(dp1320
g339
g347
sg341
VF_Dirt
p1321
sg343
F1
sg344
I00
sba(imapping
Tile
p1322
(dp1323
g339
g347
sg341
VF_Dirt
p1324
sg343
F1
sg344
I00
sba(imapping
Tile
p1325
(dp1326
g339
g347
sg341
VF_Dirt
p1327
sg343
F1
sg344
I00
sbaa(lp1328
NaNaNaNaNaNaNa(imapping
Tile
p1329
(dp1330
g339
g666
sg341
VF_Right_Ramp
p1331
sg343
F1
sg344
I00
sba(imapping
Tile
p1332
(dp1333
g339
g347
sg341
VF_RampJoinR
p1334
sg343
F1
sg344
I00
sba(imapping
Tile
p1335
(dp1336
g339
g347
sg341
VF_Dirt
p1337
sg343
F1
sg344
I00
sba(imapping
Tile
p1338
(dp1339
g339
g347
sg341
VF_Dirt
p1340
sg343
F1
sg344
I00
sba(imapping
Tile
p1341
(dp1342
g339
g347
sg341
VF_Dirt
p1343
sg343
F1
sg344
I00
sbaa(lp1344
NaNaNaNaNaNa(imapping
Tile
p1345
(dp1346
g339
g638
sg341
VF_Right_Halframp1
p1347
sg343
F1
sg344
I00
sba(imapping
Tile
p1348
(dp1349
g339
g347
sg341
VF_RampJoinR
p1350
sg343
F1
sg344
I00
sba(imapping
Tile
p1351
(dp1352
g339
g347
sg341
VF_Dirt
p1353
sg343
F1
sg344
I00
sba(imapping
Tile
p1354
(dp1355
g339
g347
sg341
VF_Dirt
p1356
sg343
F1
sg344
I00
sba(imapping
Tile
p1357
(dp1358
g339
g347
sg341
VF_Dirt
p1359
sg343
F1
sg344
I00
sba(imapping
Tile
p1360
(dp1361
g339
g347
sg341
VF_Dirt
p1362
sg343
F1
sg344
I00
sbaa(lp1363
NaNaNaNaNaNa(imapping
Tile
p1364
(dp1365
g339
g652
sg341
VF_Right_Halframp2
p1366
sg343
F1
sg344
I00
sba(imapping
Tile
p1367
(dp1368
g339
g347
sg341
VF_Dirt
p1369
sg343
F1
sg344
I00
sba(imapping
Tile
p1370
(dp1371
g339
g347
sg341
VF_Dirt
p1372
sg343
F1
sg344
I00
sba(imapping
Tile
p1373
(dp1374
g339
g347
sg341
VF_Dirt
p1375
sg343
F1
sg344
I00
sba(imapping
Tile
p1376
(dp1377
g339
g347
sg341
VF_Dirt
p1378
sg343
F1
sg344
I00
sba(imapping
Tile
p1379
(dp1380
g339
g347
sg341
VF_Dirt
p1381
sg343
F1
sg344
I00
sbaa(lp1382
NaNaNaNaNaNa(imapping
Tile
p1383
(dp1384
g339
g347
sg341
VF_Grass
p1385
sg343
F1
sg344
I00
sba(imapping
Tile
p1386
(dp1387
g339
g347
sg341
VF_Dirt
p1388
sg343
F1
sg344
I00
sba(imapping
Tile
p1389
(dp1390
g339
g347
sg341
VF_Dirt
p1391
sg343
F1
sg344
I00
sba(imapping
Tile
p1392
(dp1393
g339
g347
sg341
VF_Dirt
p1394
sg343
F1
sg344
I00
sba(imapping
Tile
p1395
(dp1396
g339
g347
sg341
VF_Dirt
p1397
sg343
F1
sg344
I00
sba(imapping
Tile
p1398
(dp1399
g339
g347
sg341
VF_Dirt_Alt_4
p1400
sg343
F1
sg344
I00
sbaa(lp1401
NaNaNaNaNa(imapping
Tile
p1402
(dp1403
g339
g451
sg341
VF_Tuft2
p1404
sg343
F1
sg344
I00
sba(imapping
Tile
p1405
(dp1406
g339
g347
sg341
VF_Grass_Alt_2
p1407
sg343
F1
sg344
I00
sba(imapping
Tile
p1408
(dp1409
g339
g347
sg341
VF_Dirt
p1410
sg343
F1
sg344
I00
sba(imapping
Tile
p1411
(dp1412
g339
g347
sg341
VF_Dirt
p1413
sg343
F1
sg344
I00
sba(imapping
Tile
p1414
(dp1415
g339
g347
sg341
VF_Dirt
p1416
sg343
F1
sg344
I00
sba(imapping
Tile
p1417
(dp1418
g339
g347
sg341
VF_Dirt
p1419
sg343
F1
sg344
I00
sba(imapping
Tile
p1420
(dp1421
g339
g347
sg341
VF_Dirt
p1422
sg343
F1
sg344
I00
sbaa(lp1423
NaNaNaNaNaNa(imapping
Tile
p1424
(dp1425
g339
g347
sg341
VF_Grass_Alt_4
p1426
sg343
F1
sg344
I00
sba(imapping
Tile
p1427
(dp1428
g339
g347
sg341
VF_Dirt
p1429
sg343
F1
sg344
I00
sba(imapping
Tile
p1430
(dp1431
g339
g347
sg341
VF_Dirt_Alt_3
p1432
sg343
F1
sg344
I00
sba(imapping
Tile
p1433
(dp1434
g339
g347
sg341
VF_Dirt
p1435
sg343
F1
sg344
I00
sba(imapping
Tile
p1436
(dp1437
g339
g347
sg341
VF_Dirt
p1438
sg343
F1
sg344
I00
sba(imapping
Tile
p1439
(dp1440
g339
g347
sg341
VF_Dirt
p1441
sg343
F1
sg344
I00
sbaa(lp1442
NaNaNaNaNa(imapping
Tile
p1443
(dp1444
g339
g451
sg341
VF_Tuft1
p1445
sg343
F1
sg344
I00
sba(imapping
Tile
p1446
(dp1447
g339
g347
sg341
VF_Grass_Alt_1
p1448
sg343
F1
sg344
I00
sba(imapping
Tile
p1449
(dp1450
g339
g347
sg341
VF_Dirt
p1451
sg343
F1
sg344
I00
sba(imapping
Tile
p1452
(dp1453
g339
g347
sg341
VF_Dirt
p1454
sg343
F1
sg344
I00
sba(imapping
Tile
p1455
(dp1456
g339
g347
sg341
VF_Dirt
p1457
sg343
F1
sg344
I00
sba(imapping
Tile
p1458
(dp1459
g339
g347
sg341
VF_Dirt
p1460
sg343
F1
sg344
I00
sba(imapping
Tile
p1461
(dp1462
g339
g347
sg341
VF_Dirt
p1463
sg343
F1
sg344
I00
sbaa(lp1464
NaNaNaNaNa(imapping
Tile
p1465
(dp1466
g339
g340
sg341
VF_Shrooms1
p1467
sg343
F1
sg344
I00
sba(imapping
Tile
p1468
(dp1469
g339
g347
sg341
VF_Grass_Alt_3
p1470
sg343
F1
sg344
I00
sba(imapping
Tile
p1471
(dp1472
g339
g347
sg341
VF_Dirt
p1473
sg343
F1
sg344
I00
sba(imapping
Tile
p1474
(dp1475
g339
g347
sg341
VF_Dirt
p1476
sg343
F1
sg344
I00
sba(imapping
Tile
p1477
(dp1478
g339
g347
sg341
VF_Dirt
p1479
sg343
F1
sg344
I00
sba(imapping
Tile
p1480
(dp1481
g339
g347
sg341
VF_Dirt
p1482
sg343
F1
sg344
I00
sba(imapping
Tile
p1483
(dp1484
g339
g347
sg341
VF_Dirt
p1485
sg343
F1
sg344
I00
sbaa(lp1486
NaNaNaNaNaNa(imapping
Tile
p1487
(dp1488
g339
g347
sg341
VF_Grass_Alt_1
p1489
sg343
F1
sg344
I00
sba(imapping
Tile
p1490
(dp1491
g339
g347
sg341
VF_Dirt
p1492
sg343
F1
sg344
I00
sba(imapping
Tile
p1493
(dp1494
g339
g347
sg341
VF_Dirt
p1495
sg343
F1
sg344
I00
sba(imapping
Tile
p1496
(dp1497
g339
g347
sg341
VF_Dirt
p1498
sg343
F1
sg344
I00
sba(imapping
Tile
p1499
(dp1500
g339
g347
sg341
VF_Dirt
p1501
sg343
F1
sg344
I00
sba(imapping
Tile
p1502
(dp1503
g339
g347
sg341
VF_Dirt
p1504
sg343
F1
sg344
I00
sbaa(lp1505
NaNaNaNaNaNa(imapping
Tile
p1506
(dp1507
g339
g1029
sg341
VF_Left_Ramp
p1508
sg343
F1
sg344
I00
sba(imapping
Tile
p1509
(dp1510
g339
g347
sg341
VF_RampJoinL
p1511
sg343
F1
sg344
I00
sba(imapping
Tile
p1512
(dp1513
g339
g347
sg341
VF_Dirt
p1514
sg343
F1
sg344
I00
sba(imapping
Tile
p1515
(dp1516
g339
g347
sg341
VF_Dirt
p1517
sg343
F1
sg344
I00
sba(imapping
Tile
p1518
(dp1519
g339
g347
sg341
VF_Dirt_Alt_2
p1520
sg343
F1
sg344
I00
sba(imapping
Tile
p1521
(dp1522
g339
g347
sg341
VF_Dirt
p1523
sg343
F1
sg344
I00
sbaa(lp1524
NaNaNaNaNaNaNa(imapping
Tile
p1525
(dp1526
g339
g1029
sg341
VF_Left_Ramp
p1527
sg343
F1
sg344
I00
sba(imapping
Tile
p1528
(dp1529
g339
g347
sg341
VF_RampJoinL
p1530
sg343
F1
sg344
I00
sba(imapping
Tile
p1531
(dp1532
g339
g347
sg341
VF_Dirt
p1533
sg343
F1
sg344
I00
sba(imapping
Tile
p1534
(dp1535
g339
g347
sg341
VF_Dirt
p1536
sg343
F1
sg344
I00
sba(imapping
Tile
p1537
(dp1538
g339
g347
sg341
VF_Dirt
p1539
sg343
F1
sg344
I00
sbaa(lp1540
NaNaNaNaNaNaNaNa(imapping
Tile
p1541
(dp1542
g339
g1029
sg341
VF_Left_Ramp
p1543
sg343
F1
sg344
I00
sba(imapping
Tile
p1544
(dp1545
g339
g347
sg341
VF_RampJoinL
p1546
sg343
F1
sg344
I00
sba(imapping
Tile
p1547
(dp1548
g339
g347
sg341
VF_Dirt
p1549
sg343
F1
sg344
I00
sba(imapping
Tile
p1550
(dp1551
g339
g347
sg341
VF_Dirt
p1552
sg343
F1
sg344
I00
sbaa(lp1553
NaNaNaNaNaNaNaNaNa(imapping
Tile
p1554
(dp1555
g339
g1029
sg341
VF_Left_Ramp
p1556
sg343
F1
sg344
I00
sba(imapping
Tile
p1557
(dp1558
g339
g347
sg341
VF_RampJoinL
p1559
sg343
F1
sg344
I00
sba(imapping
Tile
p1560
(dp1561
g339
g347
sg341
VF_Dirt
p1562
sg343
F1
sg344
I00
sbaa(lp1563
NaNaNaNaNaNaNaNaNaNa(imapping
Tile
p1564
(dp1565
g339
g347
sg341
VF_Grass
p1566
sg343
F1
sg344
I00
sba(imapping
Tile
p1567
(dp1568
g339
g347
sg341
VF_Dirt
p1569
sg343
F1
sg344
I00
sbaa(lp1570
NaNaNaNaNaNaNaNaNaNa(imapping
Tile
p1571
(dp1572
g339
g347
sg341
VF_Grass_Alt_5
p1573
sg343
F1
sg344
I00
sba(imapping
Tile
p1574
(dp1575
g339
g347
sg341
VF_Dirt
p1576
sg343
F1
sg344
I00
sbaa(lp1577
NaNaNaNaNaNaNaNaNa(imapping
Tile
p1578
(dp1579
g339
g451
sg341
VF_Tuft2
p1580
sg343
F1
sg344
I00
sba(imapping
Tile
p1581
(dp1582
g339
g347
sg341
VF_Grass
p1583
sg343
F1
sg344
I00
sba(imapping
Tile
p1584
(dp1585
g339
g347
sg341
VF_Dirt
p1586
sg343
F1
sg344
I00
sbaa(lp1587
NaNaNaNaNaNaNaNaNaNa(imapping
Tile
p1588
(dp1589
g339
g347
sg341
VF_Grass_Alt_4
p1590
sg343
F1
sg344
I00
sba(imapping
Tile
p1591
(dp1592
g339
g347
sg341
VF_Dirt
p1593
sg343
F1
sg344
I00
sbaa(lp1594
NaNaNaNaNaNaNaNaNaNa(imapping
Tile
p1595
(dp1596
g339
g347
sg341
VF_GrassRedge
p1597
sg343
F1
sg344
I00
sba(imapping
Tile
p1598
(dp1599
g339
g347
sg341
VF_Dirt
p1600
sg343
F1
sg344
I00
sbaa(lp1601
NaNaNaNaNaNaNaNaNaNaNaNaa(lp1602
NaNaNaNaNaNaNaNaNa(imapping
Tile
p1603
(dp1604
g339
g347
sg341
VF_GrassLedge
p1605
sg343
F1
sg344
I00
sba(imapping
Tile
p1606
(dp1607
g339
g347
sg341
VF_Dirt_L1
p1608
sg343
F1
sg344
I00
sba(imapping
Tile
p1609
(dp1610
g339
g347
sg341
VF_Dirt_L2
p1611
sg343
F1
sg344
I00
sbaa(lp1612
NaNaNaNaNaNaNaNa(imapping
Tile
p1613
(dp1614
g339
g451
sg341
VF_Tuft2
p1615
sg343
F1
sg344
I00
sba(imapping
Tile
p1616
(dp1617
g339
g347
sg341
VF_Grass_Alt_3
p1618
sg343
F1
sg344
I00
sba(imapping
Tile
p1619
(dp1620
g339
g347
sg341
VF_Dirt
p1621
sg343
F1
sg344
I00
sba(imapping
Tile
p1622
(dp1623
g339
g347
sg341
VF_Dirt
p1624
sg343
F1
sg344
I00
sbaa(lp1625
NaNaNaNaNaNaNaNa(imapping
Tile
p1626
(dp1627
g339
g340
sg341
VF_Stump
p1628
sg343
F1
sg344
I00
sba(imapping
Tile
p1629
(dp1630
g339
g347
sg341
VF_Grass_Alt_5
p1631
sg343
F1
sg344
I00
sba(imapping
Tile
p1632
(dp1633
g339
g347
sg341
VF_Dirt
p1634
sg343
F1
sg344
I00
sba(imapping
Tile
p1635
(dp1636
g339
g347
sg341
VF_Dirt
p1637
sg343
F1
sg344
I00
sbaa(lp1638
NaNaNaNaNaNaNaNaNa(imapping
Tile
p1639
(dp1640
g339
g347
sg341
VF_GrassRedge
p1641
sg343
F1
sg344
I00
sba(imapping
Tile
p1642
(dp1643
g339
g347
sg341
VF_Dirt_R1
p1644
sg343
F1
sg344
I00
sba(imapping
Tile
p1645
(dp1646
g339
g347
sg341
VF_Dirt_R2
p1647
sg343
F1
sg344
I00
sbaa(lp1648
NaNaNaNaNaNaNaNaNaNaNaNaa(lp1649
NaNaNaNaNaNaNaNaNaNaNa(imapping
Tile
p1650
(dp1651
g339
g347
sg341
VF_GrassLedge
p1652
sg343
F1
sg344
I00
sbaa(lp1653
NaNaNaNaNaNaNaNaNaNaNa(imapping
Tile
p1654
(dp1655
g339
g347
sg341
VF_Grass_Alt_4
p1656
sg343
F1
sg344
I00
sbaa(lp1657
NaNaNaNaNaNaNaNaNaNa(imapping
Tile
p1658
(dp1659
g339
g451
sg341
VF_Shrooms2
p1660
sg343
F1
sg344
I00
sba(imapping
Tile
p1661
(dp1662
g339
g347
sg341
VF_Grass
p1663
sg343
F1
sg344
I00
sbaa(lp1664
NaNaNaNaNaNaNaNaNaNaNa(imapping
Tile
p1665
(dp1666
g339
g347
sg341
VF_Grass_Alt_5
p1667
sg343
F1
sg344
I00
sbaa(lp1668
NaNaNaNaNaNaNaNaNaNaNa(imapping
Tile
p1669
(dp1670
g339
g347
sg341
VF_Grass_Alt_3
p1671
sg343
F1
sg344
I00
sbaa(lp1672
NaNaNaNaNaNaNaNaNaNa(imapping
Tile
p1673
(dp1674
g339
g451
sg341
VF_ExitSign
p1675
sg343
F1
sg344
I00
sba(imapping
Tile
p1676
(dp1677
g339
g347
sg341
VF_Grass
p1678
sg343
F1
sg344
I00
sbaa(lp1679
NaNaNaNaNaNaNaNaNaNa(imapping
Tile
p1680
(dp1681
g339
g638
sg341
VF_Right_Halframp1
p1682
sg343
F1
sg344
I00
sba(imapping
Tile
p1683
(dp1684
g339
g347
sg341
VF_HalframpJoinR
p1685
sg343
F1
sg344
I00
sbaa(lp1686
NaNaNaNaNaNaNaNaNaNa(imapping
Tile
p1687
(dp1688
g339
g652
sg341
VF_Right_Halframp2
p1689
sg343
F1
sg344
I00
sba(imapping
Tile
p1690
(dp1691
g339
g347
sg341
VF_Dirt
p1692
sg343
F1
sg344
I00
sbaa(lp1693
NaNaNaNaNaNaNaNaNa(imapping
Tile
p1694
(dp1695
g339
g638
sg341
VF_Right_Halframp1
p1696
sg343
F1
sg344
I00
sba(imapping
Tile
p1697
(dp1698
g339
g347
sg341
VF_HalframpJoinR
p1699
sg343
F1
sg344
I00
sba(imapping
Tile
p1700
(dp1701
g339
g347
sg341
VF_Dirt
p1702
sg343
F1
sg344
I00
sbaa(lp1703
NaNaNaNaNaNaNaNaNa(imapping
Tile
p1704
(dp1705
g339
g652
sg341
VF_Right_Halframp2
p1706
sg343
F1
sg344
I00
sba(imapping
Tile
p1707
(dp1708
g339
g347
sg341
VF_Dirt
p1709
sg343
F1
sg344
I00
sba(imapping
Tile
p1710
(dp1711
g339
g347
sg341
VF_Dirt
p1712
sg343
F1
sg344
I00
sbaa(lp1713
NaNaNaNaNaNaNaNa(imapping
Tile
p1714
(dp1715
g339
g638
sg341
VF_Right_Halframp1
p1716
sg343
F1
sg344
I00
sba(imapping
Tile
p1717
(dp1718
g339
g347
sg341
VF_HalframpJoinR
p1719
sg343
F1
sg344
I00
sba(imapping
Tile
p1720
(dp1721
g339
g347
sg341
VF_Dirt
p1722
sg343
F1
sg344
I00
sba(imapping
Tile
p1723
(dp1724
g339
g347
sg341
VF_Dirt
p1725
sg343
F1
sg344
I00
sbaa(lp1726
NaNaNaNaNaNaNaNa(imapping
Tile
p1727
(dp1728
g339
g652
sg341
VF_Right_Halframp2
p1729
sg343
F1
sg344
I00
sba(imapping
Tile
p1730
(dp1731
g339
g347
sg341
VF_Dirt
p1732
sg343
F1
sg344
I00
sba(imapping
Tile
p1733
(dp1734
g339
g347
sg341
VF_Dirt
p1735
sg343
F1
sg344
I00
sba(imapping
Tile
p1736
(dp1737
g339
g347
sg341
VF_Dirt
p1738
sg343
F1
sg344
I00
sbaa(lp1739
NaNaNaNaNaNaNa(imapping
Tile
p1740
(dp1741
g339
g666
sg341
VF_Right_Ramp
p1742
sg343
F1
sg344
I00
sba(imapping
Tile
p1743
(dp1744
g339
g347
sg341
VF_RampJoinR
p1745
sg343
F1
sg344
I00
sba(imapping
Tile
p1746
(dp1747
g339
g347
sg341
VF_Dirt
p1748
sg343
F1
sg344
I00
sba(imapping
Tile
p1749
(dp1750
g339
g347
sg341
VF_Dirt
p1751
sg343
F1
sg344
I00
sba(imapping
Tile
p1752
(dp1753
g339
g347
sg341
VF_Dirt
p1754
sg343
F1
sg344
I00
sbaa(lp1755
NaNaNaNaNaNa(imapping
Tile
p1756
(dp1757
g339
g666
sg341
VF_Right_Ramp
p1758
sg343
F1
sg344
I00
sba(imapping
Tile
p1759
(dp1760
g339
g347
sg341
VF_RampJoinR
p1761
sg343
F1
sg344
I00
sba(imapping
Tile
p1762
(dp1763
g339
g347
sg341
VF_Dirt
p1764
sg343
F1
sg344
I00
sba(imapping
Tile
p1765
(dp1766
g339
g347
sg341
VF_Dirt
p1767
sg343
F1
sg344
I00
sba(imapping
Tile
p1768
(dp1769
g339
g347
sg341
VF_Dirt
p1770
sg343
F1
sg344
I00
sba(imapping
Tile
p1771
(dp1772
g339
g347
sg341
VF_Dirt
p1773
sg343
F1
sg344
I00
sbaa(lp1774
NaNaNaNaNaNa(imapping
Tile
p1775
(dp1776
g339
g347
sg341
VF_Grass_Alt_1
p1777
sg343
F1
sg344
I00
sba(imapping
Tile
p1778
(dp1779
g339
g347
sg341
VF_Dirt
p1780
sg343
F1
sg344
I00
sba(imapping
Tile
p1781
(dp1782
g339
g347
sg341
VF_Dirt
p1783
sg343
F1
sg344
I00
sba(imapping
Tile
p1784
(dp1785
g339
g347
sg341
VF_Dirt
p1786
sg343
F1
sg344
I00
sba(imapping
Tile
p1787
(dp1788
g339
g347
sg341
VF_Dirt
p1789
sg343
F1
sg344
I00
sba(imapping
Tile
p1790
(dp1791
g339
g347
sg341
VF_Dirt
p1792
sg343
F1
sg344
I00
sbaa(lp1793
NaNaNaNaNa(imapping
Tile
p1794
(dp1795
g339
g451
sg341
VF_Tuft2
p1796
sg343
F1
sg344
I00
sba(imapping
Tile
p1797
(dp1798
g339
g347
sg341
VF_Grass
p1799
sg343
F1
sg344
I00
sba(imapping
Tile
p1800
(dp1801
g339
g347
sg341
VF_Dirt
p1802
sg343
F1
sg344
I00
sba(imapping
Tile
p1803
(dp1804
g339
g347
sg341
VF_Dirt
p1805
sg343
F1
sg344
I00
sba(imapping
Tile
p1806
(dp1807
g339
g347
sg341
VF_Dirt
p1808
sg343
F1
sg344
I00
sba(imapping
Tile
p1809
(dp1810
g339
g347
sg341
VF_Dirt
p1811
sg343
F1
sg344
I00
sba(imapping
Tile
p1812
(dp1813
g339
g347
sg341
VF_Dirt
p1814
sg343
F1
sg344
I00
sbaa(lp1815
NaNaNaNaNa(imapping
Tile
p1816
(dp1817
g339
g451
sg341
VF_Tuft1
p1818
sg343
F1
sg344
I00
sba(imapping
Tile
p1819
(dp1820
g339
g347
sg341
VF_Grass
p1821
sg343
F1
sg344
I00
sba(imapping
Tile
p1822
(dp1823
g339
g347
sg341
VF_Dirt
p1824
sg343
F1
sg344
I00
sba(imapping
Tile
p1825
(dp1826
g339
g347
sg341
VF_Dirt
p1827
sg343
F1
sg344
I00
sba(imapping
Tile
p1828
(dp1829
g339
g347
sg341
VF_Dirt
p1830
sg343
F1
sg344
I00
sba(imapping
Tile
p1831
(dp1832
g339
g347
sg341
VF_Dirt
p1833
sg343
F1
sg344
I00
sba(imapping
Tile
p1834
(dp1835
g339
g347
sg341
VF_Dirt
p1836
sg343
F1
sg344
I00
sbaa(lp1837
NaNaNaNaNaNa(imapping
Tile
p1838
(dp1839
g339
g347
sg341
VF_Grass_Alt_4
p1840
sg343
F1
sg344
I00
sba(imapping
Tile
p1841
(dp1842
g339
g347
sg341
VF_Dirt
p1843
sg343
F1
sg344
I00
sba(imapping
Tile
p1844
(dp1845
g339
g347
sg341
VF_Dirt
p1846
sg343
F1
sg344
I00
sba(imapping
Tile
p1847
(dp1848
g339
g347
sg341
VF_Dirt
p1849
sg343
F1
sg344
I00
sba(imapping
Tile
p1850
(dp1851
g339
g347
sg341
VF_Dirt
p1852
sg343
F1
sg344
I00
sba(imapping
Tile
p1853
(dp1854
g339
g347
sg341
VF_Dirt
p1855
sg343
F1
sg344
I00
sbaa(lp1856
NaNaNaNaNaNa(imapping
Tile
p1857
(dp1858
g339
g347
sg341
VF_Grass
p1859
sg343
F1
sg344
I00
sba(imapping
Tile
p1860
(dp1861
g339
g347
sg341
VF_Dirt
p1862
sg343
F1
sg344
I00
sba(imapping
Tile
p1863
(dp1864
g339
g347
sg341
VF_Dirt
p1865
sg343
F1
sg344
I00
sba(imapping
Tile
p1866
(dp1867
g339
g347
sg341
VF_Dirt
p1868
sg343
F1
sg344
I00
sba(imapping
Tile
p1869
(dp1870
g339
g347
sg341
VF_Dirt
p1871
sg343
F1
sg344
I00
sba(imapping
Tile
p1872
(dp1873
g339
g347
sg341
VF_Dirt
p1874
sg343
F1
sg344
I00
sbaasS'bgmusic'
p1875
VSempridge.ogg
p1876
sS'theme'
p1877
VForest
p1878
sS'endef'
p1879
(dp1880
VCSpider
p1881
Vcspider
p1882
sVSnowOgre
p1883
Vsnowogre
p1884
sVWasp
p1885
Vwasp
p1886
sVSpider
p1887
Vspider
p1888
sVWorm
p1889
Vworm
p1890
sVGiantJelly
p1891
Vgiantjelly
p1892
sVPod
p1893
Vpod
p1894
sVGiantWorm
p1895
Vgiantworm
p1896
ssS'tiledef'
p1897
(dp1898
VS_bLRamp
p1899
Vsnow_blramp.png
p1900
sVF_Dirt_R2
p1901
Vdirtr_edge2.png
p1902
sVF_Dirt_R1
p1903
Vdirtr_edge1.png
p1904
sVS_Railing_1
p1905
Vsnow_railing1.png
p1906
sVS_Railing_2
p1907
Vsnow_railing2.png
p1908
sVC_Suit of Armour
p1909
Vsuit_armour.png
p1910
sVS_UCleft
p1911
Vsnow_undercorner_left.png
p1912
sVF_Right_Halframp1
p1913
VR_HR1.png
p1914
sVF_Right_Halframp2
p1915
VR_HR2.png
p1916
sVF_GrassRedge
p1917
Vgrassr_edge.png
p1918
sVS_ECleft
p1919
Vsnow_edgecorner_left.png
p1920
sVF_Tuft1
p1921
Vtuft1.png
p1922
sVF_Tuft2
p1923
Vtuft2.png
p1924
sVS_Tree
p1925
Vsnow_tree.png
p1926
sVF_Grass
p1927
Vgrass.png
p1928
sVC_Castle Wall->Floor R
p1929
Vcstl_wfright.png
p1930
sVS_Railing_L
p1931
Vsnow_railing_left.png
p1932
sVC_Castle HRR
p1933
Vcstl_hr_r.png
p1934
sVS_RRamp
p1935
Vsnow_rramp.png
p1936
sVC_Castle HRL
p1937
Vcstl_hr_l.png
p1938
sVS_Pillar
p1939
Vsnow_pillar.png
p1940
sVS_Railing_R
p1941
Vsnow_railing_right.png
p1942
sVS_Ground1
p1943
Vsnow_ground1.png
p1944
sVF_Stump
p1945
Vtreestump.png
p1946
sVC_Castle Ground 2
p1947
Vcstl_ground2.png
p1948
sVC_Castle Ground 3
p1949
Vcstl_ground3.png
p1950
sVC_Castle Ground 1
p1951
Vcstl_ground1.png
p1952
sVS_Snow2
p1953
Vsnow_snow2.png
p1954
sVF_Grass_Alt_5
p1955
Vgrassc5.png
p1956
sVS_bRRamp
p1957
Vsnow_brramp.png
p1958
sVC_Castle Floor 2
p1959
Vcstl_floor2.png
p1960
sVS_Snow
p1961
Vsnow_snow.png
p1962
sVF_Grass_Alt_2
p1963
Vgrassc2.png
p1964
sVF_ExitSign
p1965
Vexitsign.png
p1966
sVF_Grass->Dirttop
p1967
Vgrassmdirt.png
p1968
sVS_UCright
p1969
Vsnow_undercorner_right.png
p1970
sVS_Pillartop
p1971
Vsnow_pillartop.png
p1972
sVF_Dirttop->Grass
p1973
Vdirtmgrass.png
p1974
sVS_ECright
p1975
Vsnow_edgecorner_right.png
p1976
sVC_Castle HRmL
p1977
Vcstl_hr_m_l.png
p1978
sVC_Castle Wall L
p1979
Vcstl_wleft.png
p1980
sVC_Castle Wall R
p1981
Vcstl_wright.png
p1982
sVC_Castle HRmR
p1983
Vcstl_hr_m_r.png
p1984
sVF_Ice
p1985
Vtile5.png
p1986
sVC_Castle Floor 4
p1987
Vcstl_floor4.png
p1988
sVF_Grass_Alt_4
p1989
Vgrassc4.png
p1990
sVF_Grass_Alt_1
p1991
Vgrassc1.png
p1992
sVC_Castle Floor 1
p1993
Vcstl_floor1.png
p1994
sVF_Grass_Alt_3
p1995
Vgrassc3.png
p1996
sVC_Castle Floor 3
p1997
Vcstl_floor3.png
p1998
sVS_edgewleft1
p1999
Vsnow_edgewall_left1.png
p2000
sVS_edgewleft2
p2001
Vsnow_edgewall_left2.png
p2002
sVS_UCJright
p2003
Vsnow_undercorner_join_right.png
p2004
sVS_LRamp
p2005
Vsnow_lramp.png
p2006
sVC_Castle Floor Edge R
p2007
Vcstl_floor_edge_right.png
p2008
sVF_Dirt_L1
p2009
Vdirtl_edge1.png
p2010
sVF_Dirt_L2
p2011
Vdirtl_edge2.png
p2012
sVC_Castle Floor Edge L
p2013
Vcstl_floor_edge_left.png
p2014
sVF_Left_Halframp2
p2015
VL_HR2.png
p2016
sVF_Left_Halframp1
p2017
VL_HR1.png
p2018
sVF_Shrooms2
p2019
Vshrooms2.png
p2020
sVF_Shrooms3
p2021
Vshrooms3.png
p2022
sVF_Shrooms1
p2023
Vshrooms1.png
p2024
sVF_RampJoinL
p2025
Vramp_mid_dirt_l.png
p2026
sVS_Tree2
p2027
Vsnow_tree2.png
p2028
sVF_RampJoinR
p2029
Vramp_mid_dirt_r.png
p2030
sVF_GrassLedge
p2031
Vgrassl_edge.png
p2032
sVS_Stones
p2033
Vsnow_stones.png
p2034
sVS_edgeright
p2035
Vsnow_edge_right.png
p2036
sVS_edgewright2
p2037
Vsnow_edgewall_right2.png
p2038
sVS_edgewright1
p2039
Vsnow_edgewall_right1.png
p2040
sVF_Dirtb
p2041
Vdirtb.png
p2042
sVF_Right_Ramp
p2043
VR_R.png
p2044
sVF_HalframpJoinL
p2045
Vhalframp_mid_dirt_l.png
p2046
sVF_Dirt_BL
p2047
Vdirtl_bedge.png
p2048
sVF_HalframpJoinR
p2049
Vhalframp_mid_dirt_r.png
p2050
sVF_Dirt_BR
p2051
Vdirtr_bedge.png
p2052
sVF_Dirtb2
p2053
Vdirtb2.png
p2054
sVF_Left_Ramp
p2055
VL_R.png
p2056
sVC_Castle Wall->Floor L
p2057
Vcstl_wfleft.png
p2058
sVF_Dirt
p2059
Vdirt.png
p2060
sVF_Grass->DirtL
p2061
Vgrass_dirt_l.png
p2062
sVS_edgeleft
p2063
Vsnow_edge_left.png
p2064
sVF_Dirttop
p2065
Vdirttop.png
p2066
sVF_Dirt_Alt_4
p2067
Vdirtc4.png
p2068
sVF_Dirt_Alt_3
p2069
Vdirtc3.png
p2070
sVF_Dirt_Alt_2
p2071
Vdirtc2.png
p2072
sVF_Dirt_Alt_1
p2073
Vdirtc1.png
p2074
sVF_Grass->DirtR
p2075
Vgrass_dirt_r.png
p2076
sVS_UCJleft
p2077
Vsnow_undercorner_join_left.png
p2078
ssb.