(imapping
Map
p1
(dp2
S'enemy'
p3
(lp4
(lp5
NaNaNaNaNaNaNaNaNaNaNaNaa(lp6
NaNaNaNaNaNaNaNaNaNaNaNaa(lp7
NaNaNaNaNaNaNaNaNaNaNaNaa(lp8
NaNaNaNaNaNaNaNaNaNaNaNaa(lp9
NaNaNaNaNaNaNaNaNaNaNaNaa(lp10
NaNaNaNaNaNaNaNaNaNaNaNaa(lp11
NaNaNaNaNaNaNaNaNaNaNaNaa(lp12
NaNaNaNaNaNaNaNaNaNaNaNaa(lp13
NaNaNaNaNaNaNaNaNaNaNaNaa(lp14
NaNaNaNaNaNaNaNaVPod
p15
aNaNaNaa(lp16
NaNaNaNaNaNaNaNaNaNaNaNaa(lp17
NaNaNaNaNaNaNaNaNaNaNaNaa(lp18
NaNaNaNaNaNaNaNaNaNaNaNaa(lp19
NaNaNaNaNaNaNaNaNaNaNaNaa(lp20
NaNaNaNaNaNaNaNaNaNaNaNaa(lp21
NaNaNaNaNaNaNaNaNaNaNaNaa(lp22
NaNaNaNaNaNaNaNaNaNaNaNaa(lp23
NaNaNaNaNaNaNaNaNaNaNaNaa(lp24
NaNaNaNaNaNaNaNaNaNaNaNaa(lp25
NaNaNaNaNaNaNaNaNaNaNaNaa(lp26
NaNaNaNaNaNaNaNaNaNaNaNaa(lp27
NaNaNaNaNaNaNaNaNaNaNaNaa(lp28
NaNaNaNaNaNaNaNaVSpider
p29
aNaNaNaa(lp30
NaNaNaNaNaNaNaNaNaNaNaNaa(lp31
NaNaNaNaNaNaNaNaNaNaNaNaa(lp32
NaNaNaNaNaNaNaNaNaNaNaNaa(lp33
NaNaNaNaNaNaNaNaNaNaNaNaa(lp34
NaNaNaNaNaNaNaNaNaNaNaNaa(lp35
NaNaNaNaNaNaNaNaNaNaNaNaa(lp36
NaNaNaNaNaNaNaNaNaVPod
p37
aNaNaa(lp38
NaNaNaNaNaNaNaNaNaVSpider
p39
aNaNaa(lp40
NaNaNaNaNaNaNaNaNaNaNaNaa(lp41
NaNaNaNaNaNaNaNaNaNaNaNaa(lp42
NaNaNaNaNaNaNaNaNaNaNaNaa(lp43
NaNaNaNaNaNaNaNaNaNaNaNaa(lp44
NaNaNaNaNaNaNaNaNaNaNaNaa(lp45
NaNaNaNaNaNaNaNaNaVPod
p46
aNaNaa(lp47
NaNaNaNaNaNaNaNaNaNaNaNaa(lp48
NaNaNaNaNaNaNaNaNaNaNaNaa(lp49
NaNaNaNaNaNaNaNaNaNaNaNaa(lp50
NaNaNaNaNaNaNaNaNaVSpider
p51
aNaNaa(lp52
NaNaNaNaNaNaNaNaNaNaNaNaa(lp53
NaNaNaNaNaNaNaNaVSpider
p54
aNaNaNaa(lp55
NaNaNaNaNaNaNaNaNaNaNaNaa(lp56
NaNaNaNaNaNaNaVSpider
p57
aNaNaNaNaa(lp58
NaNaNaNaNaNaNaNaNaNaNaNaa(lp59
NaNaNaNaNaNaNaNaNaNaNaNaa(lp60
NaNaNaNaNaNaNaNaNaNaNaNaa(lp61
NaNaNaNaNaNaNaNaNaNaNaNaa(lp62
NaNaNaNaNaNaNaNaNaNaNaNaa(lp63
NaNaNaNaNaNaNaNaNaNaNaNaa(lp64
NaNaNaNaNaNaNaNaNaNaNaNaa(lp65
NaNaNaNaNaNaNaNaNaNaNaNaa(lp66
NaNaNaNaNaNaNaNaNaNaNaNaa(lp67
NaNaNaNaNaNaNaNaNaNaNaNaa(lp68
NaNaNaNaNaNaNaNaNaNaNaNaa(lp69
NaNaNaNaNaNaNaNaNaNaNaNaa(lp70
NaNaNaNaNaNaNaNaNaNaNaNaa(lp71
NaNaNaNaNaNaNaNaNaNaNaNaa(lp72
NaNaNaNaNaNaNaNaNaNaNaNaa(lp73
NaNaNaNaNaNaNaNaNaNaNaNaa(lp74
NaNaNaNaNaNaNaNaVSpider
p75
aNaNaNaa(lp76
NaNaNaNaNaNaNaNaNaNaNaNaa(lp77
NaNaNaNaNaNaNaNaNaNaNaNaa(lp78
NaNaNaNaNaNaNaNaNaNaNaNaa(lp79
NaNaNaNaNaNaNaNaNaNaNaNaa(lp80
NaNaNaNaNaNaNaNaNaNaNaNaa(lp81
NaNaNaNaNaNaNaNaNaNaNaNaa(lp82
NaNaNaNaNaNaNaNaNaNaNaNaa(lp83
NaNaNaNaNaNaNaNaNaNaNaNaa(lp84
NaNaNaNaNaNaNaNaNaNaNaNaa(lp85
NaNaNaNaNaNaNaNaNaNaNaNaa(lp86
NaNaNaNaNaNaNaNaNaNaNaNaa(lp87
NaNaNaNaNaNaNaNaNaNaNaNaa(lp88
NaNaNaNaNaNaNaVSpider
p89
aNaNaNaNaa(lp90
NaNaNaNaNaNaNaNaNaNaNaNaa(lp91
NaNaNaNaNaNaVSpider
p92
aNaNaNaNaNaa(lp93
NaNaNaNaNaNaNaNaNaNaNaNaa(lp94
NaNaNaNaNaNaNaNaNaNaNaNaa(lp95
NaNaNaNaNaNaVSpider
p96
aNaNaNaNaNaa(lp97
NaNaNaNaNaNaNaNaNaVSpider
p98
aNaNaa(lp99
NaNaNaNaNaNaNaNaNaNaVPod
p100
aNaa(lp101
NaNaNaNaNaNaNaNaNaNaNaNaa(lp102
NaNaNaNaNaNaNaNaNaNaNaNaa(lp103
NaNaNaNaNaNaNaNaNaNaNaNaa(lp104
NaNaNaNaNaNaNaNaNaNaNaNaa(lp105
NaNaNaNaNaNaNaNaNaNaNaNaa(lp106
NaNaNaNaNaNaNaNaNaNaNaNaa(lp107
NaNaNaNaNaNaNaNaNaNaNaNaa(lp108
NaNaNaNaNaNaNaNaNaNaNaNaa(lp109
NaNaNaNaNaNaNaNaNaNaNaNaa(lp110
NaNaNaNaNaNaNaNaNaNaNaNaa(lp111
NaNaNaNaNaNaNaNaNaNaNaNaa(lp112
NaNaNaNaNaNaNaNaNaNaNaNaa(lp113
NaNaNaNaNaNaNaNaNaNaNaNaa(lp114
NaNaNaNaNaNaNaNaNaNaNaNaa(lp115
NaNaNaNaNaNaNaNaNaNaNaNaa(lp116
NaNaNaNaNaNaNaNaNaNaNaNaa(lp117
NaNaNaNaNaNaNaNaNaNaNaNaa(lp118
NaNaNaNaNaNaNaNaNaNaNaNaa(lp119
NaNaNaNaNaNaNaNaNaNaNaNaa(lp120
NaNaNaNaNaNaNaNaNaNaNaNaa(lp121
NaNaNaNaVWorm
p122
aNaNaNaNaNaNaNaa(lp123
NaNaNaNaVWorm
p124
aNaNaNaNaNaNaNaa(lp125
NaNaNaNaNaNaNaNaNaNaNaNaa(lp126
NaNaNaNaVSpider
p127
aNaNaNaNaNaNaNaa(lp128
NaNaNaNaNaNaNaNaNaNaNaNaa(lp129
NaNaNaNaNaNaNaNaNaNaNaNaa(lp130
NaNaNaNaNaNaNaNaNaNaNaNaa(lp131
NaNaNaNaNaNaNaNaNaNaNaNaa(lp132
NaNaNaNaNaNaNaNaNaNaNaNaa(lp133
NaNaNaNaNaNaNaNaNaNaNaNaa(lp134
NaNaNaNaNaNaNaNaNaNaNaNaa(lp135
NaNaNaNaNaNaNaNaNaNaNaNaa(lp136
NaNaNaNaNaNaNaNaNaNaNaNaa(lp137
NaNaNaNaNaNaNaNaNaNaNaNaa(lp138
NaNaNaNaNaNaNaNaNaNaNaNaa(lp139
NaNaNaNaNaNaNaNaNaNaNaNaa(lp140
NaNaNaNaNaNaNaNaNaNaNaNaa(lp141
NaNaNaNaNaNaNaNaNaNaNaNaa(lp142
NaNaNaNaNaNaNaNaNaNaNaNaa(lp143
NaNaNaNaNaNaNaNaNaNaNaNaa(lp144
NaNaNaNaNaNaNaNaNaNaNaNaa(lp145
NaNaNaNaNaNaNaNaNaNaNaNaa(lp146
NaNaNaNaNaNaNaNaNaNaNaNaa(lp147
NaNaNaNaNaNaNaNaNaNaNaNaa(lp148
NaNaNaNaNaNaNaNaNaNaNaNaa(lp149
NaNaNaNaNaNaNaNaNaNaNaNaasS'objdef'
p150
(dp151
VButterfly
p152
VButterfly.png
p153
sVLevel_End
p154
VEnd.png
p155
sVShield
p156
VShield.png
p157
sVPlayer_Start
p158
VStart.png
p159
sVLever_Snow
p160
VLever1.png
p161
sVTorchref
p162
VTorchref.png
p163
sVWalltorch
p164
VWalltorch.png
p165
sVFirepit
p166
VPit.png
p167
sVSign
p168
VSign.png
p169
sVButterflyC
p170
VButterflyC.png
p171
sVButterflyB
p172
VButterflyB.png
p173
sVSword
p174
VSword.png
p175
sVTreasureBoxC
p176
VTreasureC_Closed.png
p177
sVTreasureBoxB
p178
VTreasureB_Closed.png
p179
sVTreasureBox
p180
VTreasure_Closed.png
p181
sVFallingRock
p182
VRock.png
p183
sVObelisk_Snow
p184
VObelisk_Snow.png
p185
ssS'obj'
p186
(lp187
(lp188
NaNaNaNaNaNaNaNaNaNaNaNaa(lp189
NaNaNaNaNaNaNaNaNaNaNaNaa(lp190
NaNaNaNaNaNaNaNaNaNaNaNaa(lp191
NaNaNaNaNaNaNaNaNaNaNaNaa(lp192
NaNaNaNaNaNaNaNaNaNaNaNaa(lp193
NaNaNaNaNaNaNaVButterfly
p194
aNaNaNaNaa(lp195
NaNaNaNaNaNaNaNaNaNaNaNaa(lp196
NaNaNaNaNaNaNaNaVPlayer_Start
p197
aNaNaNaa(lp198
NaNaNaNaNaNaNaNaNaNaNaNaa(lp199
NaNaNaNaVButterfly
p200
aNaNaNaNaNaNaNaa(lp201
NaNaNaNaNaNaNaNaNaNaNaNaa(lp202
NaNaNaNaNaNaNaNaNaNaNaNaa(lp203
NaNaNaNaNaNaNaNaNaNaNaNaa(lp204
NaNaNaNaNaNaNaNaNaNaNaNaa(lp205
NaNaNaNaNaNaNaNaVTreasureBox
p206
aNaNaNaa(lp207
NaNaNaNaNaNaNaNaNaNaNaNaa(lp208
NaNaNaNaNaNaNaNaNaNaNaNaa(lp209
NaNaNaNaNaNaVButterfly
p210
aNaNaNaNaNaa(lp211
NaNaNaNaNaNaNaNaNaNaNaNaa(lp212
NaNaNaNaNaNaNaNaNaNaNaNaa(lp213
NaNaNaNaNaNaNaNaNaNaNaNaa(lp214
NaNaNaNaNaNaNaNaNaNaNaNaa(lp215
NaNaNaNaNaNaNaNaNaNaNaNaa(lp216
NaNaNaNaNaNaNaNaNaNaNaNaa(lp217
NaNaNaNaNaNaNaNaNaNaNaNaa(lp218
NaNaNaNaNaNaNaNaNaNaNaNaa(lp219
NaNaNaNaNaNaNaNaNaNaNaNaa(lp220
NaNaNaNaNaNaNaNaNaNaNaNaa(lp221
NaNaNaNaNaNaNaVButterfly
p222
aNaNaNaNaa(lp223
NaNaNaNaNaNaNaNaNaNaNaNaa(lp224
NaNaNaNaNaNaNaNaNaNaNaNaa(lp225
NaNaNaNaNaNaNaNaNaNaNaNaa(lp226
NaNaNaNaNaNaNaNaNaNaNaNaa(lp227
NaNaNaNaNaNaNaNaNaNaNaNaa(lp228
NaNaNaNaNaNaNaNaNaNaNaNaa(lp229
NaNaNaNaNaNaNaNaNaNaNaNaa(lp230
NaNaNaNaNaNaNaNaNaNaNaNaa(lp231
NaNaNaNaNaNaNaNaNaNaNaNaa(lp232
NaNaNaNaNaNaNaNaNaNaNaNaa(lp233
NaNaNaNaNaNaNaVButterfly
p234
aNaNaNaNaa(lp235
NaNaNaNaNaNaNaNaNaNaNaNaa(lp236
NaNaNaNaNaNaNaNaNaNaNaNaa(lp237
NaNaNaNaNaNaNaNaNaNaNaNaa(lp238
NaNaNaNaNaNaNaNaNaNaNaNaa(lp239
NaNaNaNaNaNaNaNaNaNaNaNaa(lp240
NaNaNaNaNaNaNaNaNaNaNaNaa(lp241
NaNaNaNaNaNaNaNaNaNaNaNaa(lp242
NaNaNaNaNaNaNaNaNaNaNaNaa(lp243
NaNaNaNaNaNaNaNaNaNaNaNaa(lp244
NaNaNaNaNaNaNaNaNaNaNaNaa(lp245
NaNaNaNaNaNaNaNaNaVButterfly
p246
aNaNaa(lp247
NaNaNaNaNaNaNaNaNaNaNaNaa(lp248
NaNaNaNaNaNaNaNaNaNaNaNaa(lp249
NaNaNaNaNaNaNaNaNaNaVTreasureBox
p250
aNaa(lp251
NaNaNaNaNaNaNaNaNaNaNaNaa(lp252
NaNaNaNaNaNaNaNaNaNaNaNaa(lp253
NaNaNaNaNaNaNaVButterfly
p254
aNaNaNaNaa(lp255
NaNaNaNaNaNaNaNaNaNaNaNaa(lp256
NaNaNaNaNaNaNaNaNaNaNaNaa(lp257
NaNaNaNaNaNaNaNaNaNaNaNaa(lp258
NaNaNaNaNaNaNaNaNaNaNaNaa(lp259
NaNaNaNaNaNaNaNaNaNaNaNaa(lp260
NaNaNaNaNaNaNaNaNaNaNaNaa(lp261
NaNaNaNaNaNaNaNaNaNaNaNaa(lp262
NaNaNaNaNaNaNaNaNaNaNaNaa(lp263
NaNaNaNaVButterfly
p264
aNaNaNaNaNaNaNaa(lp265
NaNaNaNaNaNaNaNaNaNaNaNaa(lp266
NaNaNaNaNaNaNaNaNaNaNaNaa(lp267
NaNaNaNaNaNaNaNaNaNaNaNaa(lp268
NaNaNaNaNaNaNaNaNaNaNaNaa(lp269
NaNaNaNaNaNaNaNaNaNaNaNaa(lp270
NaNaNaNaNaNaNaNaNaNaNaNaa(lp271
NaNaNaNaNaNaNaNaNaNaNaNaa(lp272
NaNaNaNaNaNaNaNaNaNaNaNaa(lp273
NaNaNaNaNaNaNaNaNaNaNaNaa(lp274
NaNaNaNaVButterfly
p275
aNaNaNaNaNaNaNaa(lp276
NaNaNaNaNaNaNaNaNaNaNaNaa(lp277
NaNaNaNaNaNaNaNaNaNaNaNaa(lp278
NaNaNaNaNaNaNaNaNaNaNaNaa(lp279
NaNaNaNaNaNaNaNaNaNaNaNaa(lp280
NaNaNaNaNaNaNaNaNaNaNaNaa(lp281
NaNaNaNaNaNaNaNaNaNaNaNaa(lp282
NaNaNaNaNaNaVButterfly
p283
aNaNaNaVTreasureBox
p284
aNaa(lp285
NaNaNaNaNaNaNaNaNaNaNaNaa(lp286
NaNaNaNaNaNaNaNaNaNaNaNaa(lp287
NaNaNaNaNaNaNaNaNaNaNaNaa(lp288
NaNaNaNaNaNaNaNaNaNaNaNaa(lp289
NaNaNaNaNaNaNaNaNaNaNaNaa(lp290
NaNaNaNaNaNaNaNaNaNaNaNaa(lp291
NaNaNaNaNaNaNaNaNaNaNaNaa(lp292
NaNaNaNaNaNaNaNaNaNaNaNaa(lp293
NaNaNaNaNaNaNaNaNaNaNaNaa(lp294
NaNaNaNaNaNaNaNaNaNaNaNaa(lp295
NaNaNaNaNaNaNaNaNaNaNaNaa(lp296
NaNaNaNaNaNaNaNaNaNaNaNaa(lp297
NaNaNaNaNaNaNaNaNaNaNaNaa(lp298
NaNaNaNaNaNaNaNaNaNaNaNaa(lp299
NaNaNaNaNaNaNaNaNaNaNaNaa(lp300
NaNaNaNaNaNaNaNaNaNaNaNaa(lp301
NaNaNaNaNaNaNaNaNaNaNaNaa(lp302
NaNaNaNaNaNaNaNaNaNaNaNaa(lp303
NaNaNaVButterflyC
p304
aNaNaNaNaNaNaNaNaa(lp305
NaNaNaNaNaNaNaNaNaNaNaNaa(lp306
NaNaNaVButterflyC
p307
aNaNaNaNaNaNaNaNaa(lp308
NaNaNaNaNaNaNaNaNaNaNaNaa(lp309
NaNaNaNaNaNaNaNaNaNaNaNaa(lp310
NaNaNaNaNaNaNaNaNaNaNaNaa(lp311
NaNaNaNaNaNaNaNaNaNaNaNaa(lp312
NaNaNaNaNaVButterflyB
p313
aNaNaNaNaNaNaa(lp314
NaNaNaNaNaNaNaNaNaNaNaNaa(lp315
NaNaNaNaNaVButterflyB
p316
aNaNaNaNaNaNaa(lp317
NaNaNaNaNaNaVLevel_End
p318
aNaNaNaNaNaa(lp319
NaNaNaNaNaNaNaNaNaNaNaNaa(lp320
NaNaNaNaNaNaNaNaNaNaNaNaa(lp321
NaNaNaNaNaNaNaNaNaNaNaNaa(lp322
NaNaNaNaNaNaNaNaNaNaNaNaa(lp323
NaNaNaNaNaNaNaNaNaNaNaNaa(lp324
NaNaNaNaNaNaNaNaNaNaNaNaa(lp325
NaNaNaNaNaNaNaNaNaNaNaNaa(lp326
NaNaNaNaNaNaNaNaNaNaNaNaa(lp327
NaNaNaNaVButterfly
p328
aNaNaNaNaNaNaNaa(lp329
NaNaNaNaNaNaNaNaNaNaNaNaa(lp330
NaNaNaNaNaNaNaNaNaNaNaNaa(lp331
NaNaNaNaNaNaNaNaNaNaNaNaa(lp332
NaNaNaNaNaNaNaNaNaNaNaNaa(lp333
NaNaNaNaNaNaVButterfly
p334
aNaNaNaNaNaa(lp335
NaNaNaNaNaNaNaNaNaNaNaNaa(lp336
NaNaNaNaNaNaNaNaNaNaNaNaasS'name'
p337
VSempridge 2
p338
sS'map'
p339
(lp340
(lp341
NaNaNaNaNaNaNaNaNaNaNaNaa(lp342
NaNaNaNaNaNaNaNaNaNaNaNaa(lp343
NaNaNaNaNaNaNaNaNaNaNaNaa(lp344
NaNaNaNaNaNaNaNaNaNaNaNaa(lp345
NaNaNaNaNaNaNaNaNaNaNaNaa(lp346
NaNaNaNaNaNaNaNaNa(imapping
Tile
p347
(dp348
S'collidetype'
p349
S'BOX'
p350
sS'type'
p351
VF_GrassLedge
p352
sS'friction'
p353
F1
sS'overhead'
p354
I00
sba(imapping
Tile
p355
(dp356
g349
g350
sg351
VF_Dirt_L2
p357
sg353
F1
sg354
I00
sba(imapping
Tile
p358
(dp359
g349
g350
sg351
VF_Dirt_L1
p360
sg353
F1
sg354
I00
sbaa(lp361
NaNaNaNaNaNaNaNaNa(imapping
Tile
p362
(dp363
g349
g350
sg351
VF_Grass_Alt_3
p364
sg353
F1
sg354
I00
sba(imapping
Tile
p365
(dp366
g349
g350
sg351
VF_Dirt
p367
sg353
F1
sg354
I00
sba(imapping
Tile
p368
(dp369
g349
g350
sg351
VF_Dirt
p370
sg353
F1
sg354
I00
sbaa(lp371
NaNaNaNaNaNaNaNaNa(imapping
Tile
p372
(dp373
g349
g350
sg351
VF_Grass_Alt_4
p374
sg353
F1
sg354
I00
sba(imapping
Tile
p375
(dp376
g349
g350
sg351
VF_Dirt
p377
sg353
F1
sg354
I00
sba(imapping
Tile
p378
(dp379
g349
g350
sg351
VF_Dirt
p380
sg353
F1
sg354
I00
sbaa(lp381
NaNaNaNaNaNaNaNaNa(imapping
Tile
p382
(dp383
g349
g350
sg351
VF_Grass_Alt_2
p384
sg353
F1
sg354
I00
sba(imapping
Tile
p385
(dp386
g349
g350
sg351
VF_Dirt
p387
sg353
F1
sg354
I00
sba(imapping
Tile
p388
(dp389
g349
g350
sg351
VF_Dirt_Alt_4
p390
sg353
F1
sg354
I00
sbaa(lp391
NaNaNaNaNaNaNaNaNa(imapping
Tile
p392
(dp393
g349
g350
sg351
VF_Grass_Alt_5
p394
sg353
F1
sg354
I00
sba(imapping
Tile
p395
(dp396
g349
g350
sg351
VF_Dirt
p397
sg353
F1
sg354
I00
sba(imapping
Tile
p398
(dp399
g349
g350
sg351
VF_Dirt
p400
sg353
F1
sg354
I00
sbaa(lp401
NaNaNaNaNaNaNaNa(imapping
Tile
p402
(dp403
g349
S'NONE'
p404
sg351
VF_Tuft2
p405
sg353
F1
sg354
I00
sba(imapping
Tile
p406
(dp407
g349
g350
sg351
VF_Grass
p408
sg353
F1
sg354
I00
sba(imapping
Tile
p409
(dp410
g349
g350
sg351
VF_Dirt
p411
sg353
F1
sg354
I00
sba(imapping
Tile
p412
(dp413
g349
g350
sg351
VF_Dirt
p414
sg353
F1
sg354
I00
sbaa(lp415
NaNaNaNaNaNaNaNa(imapping
Tile
p416
(dp417
g349
S'NONE_R'
p418
sg351
VF_Shrooms3
p419
sg353
F1
sg354
I00
sba(imapping
Tile
p420
(dp421
g349
g350
sg351
VF_Grass_Alt_4
p422
sg353
F1
sg354
I00
sba(imapping
Tile
p423
(dp424
g349
g350
sg351
VF_Dirt_Alt_1
p425
sg353
F1
sg354
I00
sba(imapping
Tile
p426
(dp427
g349
g350
sg351
VF_Dirt
p428
sg353
F1
sg354
I00
sbaa(lp429
NaNaNaNaNaNaNaNaNa(imapping
Tile
p430
(dp431
g349
g350
sg351
VF_Grass
p432
sg353
F1
sg354
I00
sba(imapping
Tile
p433
(dp434
g349
g350
sg351
VF_Dirt
p435
sg353
F1
sg354
I00
sba(imapping
Tile
p436
(dp437
g349
g350
sg351
VF_Dirt_Alt_2
p438
sg353
F1
sg354
I00
sbaa(lp439
NaNaNaNaNaNaNaNaNa(imapping
Tile
p440
(dp441
g349
g350
sg351
VF_Grass->Dirttop
p442
sg353
F1
sg354
I00
sba(imapping
Tile
p443
(dp444
g349
g350
sg351
VF_Dirt
p445
sg353
F1
sg354
I00
sba(imapping
Tile
p446
(dp447
g349
g350
sg351
VF_Dirt
p448
sg353
F1
sg354
I00
sbaa(lp449
NaNaNaNaNaNaNaNaNa(imapping
Tile
p450
(dp451
g349
g350
sg351
VF_Dirttop
p452
sg353
F1
sg354
I00
sba(imapping
Tile
p453
(dp454
g349
g350
sg351
VF_Dirt
p455
sg353
F1
sg354
I00
sba(imapping
Tile
p456
(dp457
g349
g350
sg351
VF_Dirt_Alt_3
p458
sg353
F1
sg354
I00
sbaa(lp459
NaNaNaNaNaNaNaNaNa(imapping
Tile
p460
(dp461
g349
g350
sg351
VF_Dirttop->Grass
p462
sg353
F1
sg354
I00
sba(imapping
Tile
p463
(dp464
g349
g350
sg351
VF_Dirt_Alt_2
p465
sg353
F1
sg354
I00
sba(imapping
Tile
p466
(dp467
g349
g350
sg351
VF_Dirt
p468
sg353
F1
sg354
I00
sbaa(lp469
NaNaNaNaNaNaNaNa(imapping
Tile
p470
(dp471
g349
g404
sg351
VF_Shrooms2
p472
sg353
F1
sg354
I00
sba(imapping
Tile
p473
(dp474
g349
g350
sg351
VF_GrassRedge
p475
sg353
F1
sg354
I00
sba(imapping
Tile
p476
(dp477
g349
g350
sg351
VF_Dirt_R1
p478
sg353
F1
sg354
I00
sba(imapping
Tile
p479
(dp480
g349
g350
sg351
VF_Dirt_R2
p481
sg353
F1
sg354
I00
sbaa(lp482
NaNaNaNaNaNaNaNaNaNaNaNaa(lp483
NaNaNaNaNaNaNaNa(imapping
Tile
p484
(dp485
g349
g350
sg351
VF_GrassLedge
p486
sg353
F1
sg354
I00
sba(imapping
Tile
p487
(dp488
g349
g350
sg351
VF_Dirt_L2
p489
sg353
F1
sg354
I00
sba(imapping
Tile
p490
(dp491
g349
g350
sg351
VF_Dirt_L1
p492
sg353
F1
sg354
I00
sba(imapping
Tile
p493
(dp494
g349
g350
sg351
VF_Dirt_L2
p495
sg353
F1
sg354
I00
sbaa(lp496
NaNaNaNaNaNaNaNa(imapping
Tile
p497
(dp498
g349
S'LEFT_INCLINATION'
p499
sg351
VF_Left_Ramp
p500
sg353
F1
sg354
I00
sba(imapping
Tile
p501
(dp502
g349
g350
sg351
VF_RampJoinL
p503
sg353
F1
sg354
I00
sba(imapping
Tile
p504
(dp505
g349
g350
sg351
VF_Dirt_Alt_4
p506
sg353
F1
sg354
I00
sba(imapping
Tile
p507
(dp508
g349
g350
sg351
VF_Dirt
p509
sg353
F1
sg354
I00
sbaa(lp510
NaNaNaNaNaNaNaNaNa(imapping
Tile
p511
(dp512
g349
S'LEFT_HINCLINATION2'
p513
sg351
VF_Left_Halframp2
p514
sg353
F1
sg354
I00
sba(imapping
Tile
p515
(dp516
g349
g350
sg351
VF_Dirt
p517
sg353
F1
sg354
I00
sba(imapping
Tile
p518
(dp519
g349
g350
sg351
VF_Dirt_Alt_3
p520
sg353
F1
sg354
I00
sbaa(lp521
NaNaNaNaNaNaNaNaNa(imapping
Tile
p522
(dp523
g349
S'LEFT_HINCLINATION1'
p524
sg351
VF_Left_Halframp1
p525
sg353
F1
sg354
I00
sba(imapping
Tile
p526
(dp527
g349
g350
sg351
VF_HalframpJoinL
p528
sg353
F1
sg354
I00
sba(imapping
Tile
p529
(dp530
g349
g350
sg351
VF_Dirt
p531
sg353
F1
sg354
I00
sbaa(lp532
NaNaNaNaNaNaNaNaNa(imapping
Tile
p533
(dp534
g349
g404
sg351
VF_Tuft2
p535
sg353
F1
sg354
I00
sba(imapping
Tile
p536
(dp537
g349
g350
sg351
VF_Grass_Alt_1
p538
sg353
F1
sg354
I00
sba(imapping
Tile
p539
(dp540
g349
g350
sg351
VF_Dirt
p541
sg353
F1
sg354
I00
sbaa(lp542
NaNaNaNaNaNaNaNaNa(imapping
Tile
p543
(dp544
g349
g418
sg351
VF_Shrooms1
p545
sg353
F1
sg354
I00
sba(imapping
Tile
p546
(dp547
g349
g350
sg351
VF_Grass_Alt_3
p548
sg353
F1
sg354
I00
sba(imapping
Tile
p549
(dp550
g349
g350
sg351
VF_Dirt
p551
sg353
F1
sg354
I00
sbaa(lp552
NaNaNaNaNaNaNaNaNaNa(imapping
Tile
p553
(dp554
g349
g350
sg351
VF_GrassRedge
p555
sg353
F1
sg354
I00
sba(imapping
Tile
p556
(dp557
g349
g350
sg351
VF_Dirt_R2
p558
sg353
F1
sg354
I00
sbaa(lp559
NaNaNaNaNaNaNaNaNaNaNaNaa(lp560
NaNaNaNaNaNaNaNaNaNa(imapping
Tile
p561
(dp562
g349
g350
sg351
VF_GrassLedge
p563
sg353
F1
sg354
I00
sba(imapping
Tile
p564
(dp565
g349
g350
sg351
VF_Dirt_L2
p566
sg353
F1
sg354
I00
sbaa(lp567
NaNaNaNaNaNaNaNaNaNa(imapping
Tile
p568
(dp569
g349
g350
sg351
VF_Grass->Dirttop
p570
sg353
F1
sg354
I00
sba(imapping
Tile
p571
(dp572
g349
g350
sg351
VF_Dirt
p573
sg353
F1
sg354
I00
sbaa(lp574
NaNaNaNaNaNaNaNaNaNa(imapping
Tile
p575
(dp576
g349
g350
sg351
VF_Dirttop
p577
sg353
F1
sg354
I00
sba(imapping
Tile
p578
(dp579
g349
g350
sg351
VF_Dirt_Alt_1
p580
sg353
F1
sg354
I00
sbaa(lp581
NaNaNaNaNaNaNaNaNaNa(imapping
Tile
p582
(dp583
g349
g350
sg351
VF_Dirttop->Grass
p584
sg353
F1
sg354
I00
sba(imapping
Tile
p585
(dp586
g349
g350
sg351
VF_Dirt
p587
sg353
F1
sg354
I00
sbaa(lp588
NaNaNaNaNaNaNaNaNaNa(imapping
Tile
p589
(dp590
g349
g350
sg351
VF_GrassRedge
p591
sg353
F1
sg354
I00
sba(imapping
Tile
p592
(dp593
g349
g350
sg351
VF_Dirt_R1
p594
sg353
F1
sg354
I00
sbaa(lp595
NaNaNaNaNaNaNaNaNaNaNaNaa(lp596
NaNaNaNaNaNaNaNaNaNa(imapping
Tile
p597
(dp598
g349
g404
sg351
VF_Tuft2
p599
sg353
F1
sg354
I00
sba(imapping
Tile
p600
(dp601
g349
g350
sg351
VF_GrassLedge
p602
sg353
F1
sg354
I00
sbaa(lp603
NaNaNaNaNaNaNaNaNaNa(imapping
Tile
p604
(dp605
g349
S'RIGHT_HINCLINATION1'
p606
sg351
VF_Right_Halframp1
p607
sg353
F1
sg354
I00
sba(imapping
Tile
p608
(dp609
g349
g350
sg351
VF_HalframpJoinR
p610
sg353
F1
sg354
I00
sbaa(lp611
NaNaNaNaNaNaNaNaNaNa(imapping
Tile
p612
(dp613
g349
S'RIGHT_HINCLINATION2'
p614
sg351
VF_Right_Halframp2
p615
sg353
F1
sg354
I00
sba(imapping
Tile
p616
(dp617
g349
g350
sg351
VF_Dirt
p618
sg353
F1
sg354
I00
sbaa(lp619
NaNaNaNaNaNaNaNaNaNa(imapping
Tile
p620
(dp621
g349
g350
sg351
VF_Grass_Alt_4
p622
sg353
F1
sg354
I00
sba(imapping
Tile
p623
(dp624
g349
g350
sg351
VF_Dirt_Alt_2
p625
sg353
F1
sg354
I00
sbaa(lp626
NaNaNaNaNaNaNaNaNaNa(imapping
Tile
p627
(dp628
g349
g350
sg351
VF_Grass_Alt_5
p629
sg353
F1
sg354
I00
sba(imapping
Tile
p630
(dp631
g349
g350
sg351
VF_Dirt
p632
sg353
F1
sg354
I00
sbaa(lp633
NaNaNaNaNaNaNaNaNa(imapping
Tile
p634
(dp635
g349
g418
sg351
VF_Stump
p636
sg353
F1
sg354
I00
sba(imapping
Tile
p637
(dp638
g349
g350
sg351
VF_Grass_Alt_5
p639
sg353
F1
sg354
I00
sba(imapping
Tile
p640
(dp641
g349
g350
sg351
VF_Dirt
p642
sg353
F1
sg354
I00
sbaa(lp643
NaNaNaNaNaNaNaNaNa(imapping
Tile
p644
(dp645
g349
g404
sg351
VF_Tuft1
p646
sg353
F1
sg354
I00
sba(imapping
Tile
p647
(dp648
g349
g350
sg351
VF_Grass
p649
sg353
F1
sg354
I00
sba(imapping
Tile
p650
(dp651
g349
g350
sg351
VF_Dirt_Alt_4
p652
sg353
F1
sg354
I00
sbaa(lp653
NaNaNaNaNaNaNaNaNaNa(imapping
Tile
p654
(dp655
g349
g513
sg351
VF_Left_Halframp2
p656
sg353
F1
sg354
I00
sba(imapping
Tile
p657
(dp658
g349
g350
sg351
VF_Dirt
p659
sg353
F1
sg354
I00
sbaa(lp660
NaNaNaNaNaNaNaNaNaNa(imapping
Tile
p661
(dp662
g349
g614
sg351
VF_Right_Halframp2
p663
sg353
F1
sg354
I00
sba(imapping
Tile
p664
(dp665
g349
g350
sg351
VF_Dirt
p666
sg353
F1
sg354
I00
sbaa(lp667
NaNaNaNaNaNaNaNaNa(imapping
Tile
p668
(dp669
g349
g606
sg351
VF_Right_Halframp1
p670
sg353
F1
sg354
I00
sba(imapping
Tile
p671
(dp672
g349
g350
sg351
VF_HalframpJoinR
p673
sg353
F1
sg354
I00
sba(imapping
Tile
p674
(dp675
g349
g350
sg351
VF_Dirt
p676
sg353
F1
sg354
I00
sbaa(lp677
NaNaNaNaNaNaNaNaNa(imapping
Tile
p678
(dp679
g349
g614
sg351
VF_Right_Halframp2
p680
sg353
F1
sg354
I00
sba(imapping
Tile
p681
(dp682
g349
g350
sg351
VF_Dirt
p683
sg353
F1
sg354
I00
sba(imapping
Tile
p684
(dp685
g349
g350
sg351
VF_Dirt
p686
sg353
F1
sg354
I00
sbaa(lp687
NaNaNaNaNaNaNaNa(imapping
Tile
p688
(dp689
g349
g606
sg351
VF_Right_Halframp1
p690
sg353
F1
sg354
I00
sba(imapping
Tile
p691
(dp692
g349
g350
sg351
VF_HalframpJoinR
p693
sg353
F1
sg354
I00
sba(imapping
Tile
p694
(dp695
g349
g350
sg351
VF_Dirt
p696
sg353
F1
sg354
I00
sba(imapping
Tile
p697
(dp698
g349
g350
sg351
VF_Dirt
p699
sg353
F1
sg354
I00
sbaa(lp700
NaNaNaNaNaNaNaNa(imapping
Tile
p701
(dp702
g349
g614
sg351
VF_Right_Halframp2
p703
sg353
F1
sg354
I00
sba(imapping
Tile
p704
(dp705
g349
g350
sg351
VF_Dirt_Alt_2
p706
sg353
F1
sg354
I00
sba(imapping
Tile
p707
(dp708
g349
g350
sg351
VF_Dirt
p709
sg353
F1
sg354
I00
sba(imapping
Tile
p710
(dp711
g349
g350
sg351
VF_Dirt_Alt_2
p712
sg353
F1
sg354
I00
sbaa(lp713
NaNaNaNaNaNaNaNa(imapping
Tile
p714
(dp715
g349
g350
sg351
VF_GrassRedge
p716
sg353
F1
sg354
I00
sba(imapping
Tile
p717
(dp718
g349
g350
sg351
VF_Dirt_R2
p719
sg353
F1
sg354
I00
sba(imapping
Tile
p720
(dp721
g349
g350
sg351
VF_Dirt_R1
p722
sg353
F1
sg354
I00
sba(imapping
Tile
p723
(dp724
g349
g350
sg351
VF_Dirt_R2
p725
sg353
F1
sg354
I00
sbaa(lp726
NaNaNaNaNaNaNaNaNaNaNaNaa(lp727
NaNaNaNaNaNaNaNaNaNaNaNaa(lp728
NaNaNaNaNaNaNaNaNaNaNa(imapping
Tile
p729
(dp730
g349
g350
sg351
VF_GrassLedge
p731
sg353
F1
sg354
I00
sbaa(lp732
NaNaNaNaNaNaNaNaNaNaNa(imapping
Tile
p733
(dp734
g349
g350
sg351
VF_Grass
p735
sg353
F1
sg354
I00
sbaa(lp736
NaNaNaNaNaNaNaNaNaNa(imapping
Tile
p737
(dp738
g349
g404
sg351
VF_Tuft1
p739
sg353
F1
sg354
I00
sba(imapping
Tile
p740
(dp741
g349
g350
sg351
VF_Grass_Alt_1
p742
sg353
F1
sg354
I00
sbaa(lp743
NaNaNaNaNaNaNaNaNaNaNa(imapping
Tile
p744
(dp745
g349
g350
sg351
VF_Grass_Alt_4
p746
sg353
F1
sg354
I00
sbaa(lp747
NaNaNaNaNaNaNaNaNaNa(imapping
Tile
p748
(dp749
g349
g418
sg351
VF_Shrooms1
p750
sg353
F1
sg354
I00
sba(imapping
Tile
p751
(dp752
g349
g350
sg351
VF_Grass_Alt_5
p753
sg353
F1
sg354
I00
sbaa(lp754
NaNaNaNaNaNaNaNaNaNaNa(imapping
Tile
p755
(dp756
g349
g350
sg351
VF_Grass_Alt_3
p757
sg353
F1
sg354
I00
sbaa(lp758
NaNaNaNaNaNaNaNaNaNaNa(imapping
Tile
p759
(dp760
g349
g350
sg351
VF_GrassRedge
p761
sg353
F1
sg354
I00
sbaa(lp762
NaNaNaNaNaNaNaNaNaNaNaNaa(lp763
NaNaNaNaNaNaNaNaNaNa(imapping
Tile
p764
(dp765
g349
g350
sg351
VF_GrassLedge
p766
sg353
F1
sg354
I00
sba(imapping
Tile
p767
(dp768
g349
g350
sg351
VF_Dirt_L1
p769
sg353
F1
sg354
I00
sbaa(lp770
NaNaNaNaNaNaNaNaNa(imapping
Tile
p771
(dp772
g349
g404
sg351
VF_Shrooms2
p773
sg353
F1
sg354
I00
sba(imapping
Tile
p774
(dp775
g349
g350
sg351
VF_GrassRedge
p776
sg353
F1
sg354
I00
sba(imapping
Tile
p777
(dp778
g349
g350
sg351
VF_Dirt_R1
p779
sg353
F1
sg354
I00
sbaa(lp780
NaNaNaNaNaNaNaNaNaNaNaNaa(lp781
NaNaNaNaNaNaNaNaNaNa(imapping
Tile
p782
(dp783
g349
g350
sg351
VF_GrassLedge
p784
sg353
F1
sg354
I00
sba(imapping
Tile
p785
(dp786
g349
g350
sg351
VF_Dirt_L2
p787
sg353
F1
sg354
I00
sbaa(lp788
NaNaNaNaNaNaNaNaNaNa(imapping
Tile
p789
(dp790
g349
g350
sg351
VF_Grass_Alt_3
p791
sg353
F1
sg354
I00
sba(imapping
Tile
p792
(dp793
g349
g350
sg351
VF_Dirt
p794
sg353
F1
sg354
I00
sbaa(lp795
NaNaNaNaNaNaNaNaNa(imapping
Tile
p796
(dp797
g349
g606
sg351
VF_Right_Halframp1
p798
sg353
F1
sg354
I00
sba(imapping
Tile
p799
(dp800
g349
g350
sg351
VF_HalframpJoinR
p801
sg353
F1
sg354
I00
sba(imapping
Tile
p802
(dp803
g349
g350
sg351
VF_Dirt
p804
sg353
F1
sg354
I00
sbaa(lp805
NaNaNaNaNaNaNaNaNa(imapping
Tile
p806
(dp807
g349
g614
sg351
VF_Right_Halframp2
p808
sg353
F1
sg354
I00
sba(imapping
Tile
p809
(dp810
g349
g350
sg351
VF_Dirt
p811
sg353
F1
sg354
I00
sba(imapping
Tile
p812
(dp813
g349
g350
sg351
VF_Dirt
p814
sg353
F1
sg354
I00
sbaa(lp815
NaNaNaNaNaNaNaNa(imapping
Tile
p816
(dp817
g349
g606
sg351
VF_Right_Halframp1
p818
sg353
F1
sg354
I00
sba(imapping
Tile
p819
(dp820
g349
g350
sg351
VF_HalframpJoinR
p821
sg353
F1
sg354
I00
sba(imapping
Tile
p822
(dp823
g349
g350
sg351
VF_Dirt
p824
sg353
F1
sg354
I00
sba(imapping
Tile
p825
(dp826
g349
g350
sg351
VF_Dirt
p827
sg353
F1
sg354
I00
sbaa(lp828
NaNaNaNaNaNaNaNa(imapping
Tile
p829
(dp830
g349
g614
sg351
VF_Right_Halframp2
p831
sg353
F1
sg354
I00
sba(imapping
Tile
p832
(dp833
g349
g350
sg351
VF_Dirt
p834
sg353
F1
sg354
I00
sba(imapping
Tile
p835
(dp836
g349
g350
sg351
VF_Dirt
p837
sg353
F1
sg354
I00
sba(imapping
Tile
p838
(dp839
g349
g350
sg351
VF_Dirt_Alt_2
p840
sg353
F1
sg354
I00
sbaa(lp841
NaNaNaNaNaNaNa(imapping
Tile
p842
(dp843
g349
g606
sg351
VF_Right_Halframp1
p844
sg353
F1
sg354
I00
sba(imapping
Tile
p845
(dp846
g349
g350
sg351
VF_HalframpJoinR
p847
sg353
F1
sg354
I00
sba(imapping
Tile
p848
(dp849
g349
g350
sg351
VF_Dirt_Alt_4
p850
sg353
F1
sg354
I00
sba(imapping
Tile
p851
(dp852
g349
g350
sg351
VF_Dirt
p853
sg353
F1
sg354
I00
sba(imapping
Tile
p854
(dp855
g349
g350
sg351
VF_Dirt
p856
sg353
F1
sg354
I00
sbaa(lp857
NaNaNaNaNaNaNa(imapping
Tile
p858
(dp859
g349
g614
sg351
VF_Right_Halframp2
p860
sg353
F1
sg354
I00
sba(imapping
Tile
p861
(dp862
g349
g350
sg351
VF_Dirt
p863
sg353
F1
sg354
I00
sba(imapping
Tile
p864
(dp865
g349
g350
sg351
VF_Dirt
p866
sg353
F1
sg354
I00
sba(imapping
Tile
p867
(dp868
g349
g350
sg351
VF_Dirt
p869
sg353
F1
sg354
I00
sba(imapping
Tile
p870
(dp871
g349
g350
sg351
VF_Dirt
p872
sg353
F1
sg354
I00
sbaa(lp873
NaNaNaNaNaNa(imapping
Tile
p874
(dp875
g349
S'RIGHT_INCLINATION'
p876
sg351
VF_Right_Ramp
p877
sg353
F1
sg354
I00
sba(imapping
Tile
p878
(dp879
g349
g350
sg351
VF_RampJoinR
p880
sg353
F1
sg354
I00
sba(imapping
Tile
p881
(dp882
g349
g350
sg351
VF_Dirt_Alt_2
p883
sg353
F1
sg354
I00
sba(imapping
Tile
p884
(dp885
g349
g350
sg351
VF_Dirt
p886
sg353
F1
sg354
I00
sba(imapping
Tile
p887
(dp888
g349
g350
sg351
VF_Dirt_Alt_4
p889
sg353
F1
sg354
I00
sba(imapping
Tile
p890
(dp891
g349
g350
sg351
VF_Dirt
p892
sg353
F1
sg354
I00
sbaa(lp893
NaNaNaNaNa(imapping
Tile
p894
(dp895
g349
g876
sg351
VF_Right_Ramp
p896
sg353
F1
sg354
I00
sba(imapping
Tile
p897
(dp898
g349
g350
sg351
VF_RampJoinR
p899
sg353
F1
sg354
I00
sba(imapping
Tile
p900
(dp901
g349
g350
sg351
VF_Dirt
p902
sg353
F1
sg354
I00
sba(imapping
Tile
p903
(dp904
g349
g350
sg351
VF_Dirt
p905
sg353
F1
sg354
I00
sba(imapping
Tile
p906
(dp907
g349
g350
sg351
VF_Dirt_Alt_2
p908
sg353
F1
sg354
I00
sba(imapping
Tile
p909
(dp910
g349
g350
sg351
VF_Dirt
p911
sg353
F1
sg354
I00
sba(imapping
Tile
p912
(dp913
g349
g350
sg351
VF_Dirt
p914
sg353
F1
sg354
I00
sbaa(lp915
NaNaNaNaNa(imapping
Tile
p916
(dp917
g349
g350
sg351
VF_Grass
p918
sg353
F1
sg354
I00
sba(imapping
Tile
p919
(dp920
g349
g350
sg351
VF_Dirt
p921
sg353
F1
sg354
I00
sba(imapping
Tile
p922
(dp923
g349
g350
sg351
VF_Dirt
p924
sg353
F1
sg354
I00
sba(imapping
Tile
p925
(dp926
g349
g350
sg351
VF_Dirt
p927
sg353
F1
sg354
I00
sba(imapping
Tile
p928
(dp929
g349
g350
sg351
VF_Dirt
p930
sg353
F1
sg354
I00
sba(imapping
Tile
p931
(dp932
g349
g350
sg351
VF_Dirt
p933
sg353
F1
sg354
I00
sba(imapping
Tile
p934
(dp935
g349
g350
sg351
VF_Dirt
p936
sg353
F1
sg354
I00
sbaa(lp937
NaNaNaNa(imapping
Tile
p938
(dp939
g349
g418
sg351
VF_Shrooms3
p940
sg353
F1
sg354
I00
sba(imapping
Tile
p941
(dp942
g349
g350
sg351
VF_Grass_Alt_4
p943
sg353
F1
sg354
I00
sba(imapping
Tile
p944
(dp945
g349
g350
sg351
VF_Dirt_Alt_3
p946
sg353
F1
sg354
I00
sba(imapping
Tile
p947
(dp948
g349
g350
sg351
VF_Dirt
p949
sg353
F1
sg354
I00
sba(imapping
Tile
p950
(dp951
g349
g350
sg351
VF_Dirt
p952
sg353
F1
sg354
I00
sba(imapping
Tile
p953
(dp954
g349
g350
sg351
VF_Dirt
p955
sg353
F1
sg354
I00
sba(imapping
Tile
p956
(dp957
g349
g350
sg351
VF_Dirt_Alt_4
p958
sg353
F1
sg354
I00
sba(imapping
Tile
p959
(dp960
g349
g350
sg351
VF_Dirt
p961
sg353
F1
sg354
I00
sbaa(lp962
NaNaNaNa(imapping
Tile
p963
(dp964
g349
g418
sg351
VF_Stump
p965
sg353
F1
sg354
I00
sba(imapping
Tile
p966
(dp967
g349
g350
sg351
VF_Grass_Alt_3
p968
sg353
F1
sg354
I00
sba(imapping
Tile
p969
(dp970
g349
g350
sg351
VF_Dirt
p971
sg353
F1
sg354
I00
sba(imapping
Tile
p972
(dp973
g349
g350
sg351
VF_Dirt
p974
sg353
F1
sg354
I00
sba(imapping
Tile
p975
(dp976
g349
g350
sg351
VF_Dirt
p977
sg353
F1
sg354
I00
sba(imapping
Tile
p978
(dp979
g349
g350
sg351
VF_Dirt_Alt_1
p980
sg353
F1
sg354
I00
sba(imapping
Tile
p981
(dp982
g349
g350
sg351
VF_Dirt
p983
sg353
F1
sg354
I00
sba(imapping
Tile
p984
(dp985
g349
g350
sg351
VF_Dirt
p986
sg353
F1
sg354
I00
sbaa(lp987
NaNaNaNaNa(imapping
Tile
p988
(dp989
g349
g350
sg351
VF_GrassRedge
p990
sg353
F1
sg354
I00
sba(imapping
Tile
p991
(dp992
g349
g350
sg351
VF_Dirt_R1
p993
sg353
F1
sg354
I00
sba(imapping
Tile
p994
(dp995
g349
g350
sg351
VF_Dirt_R2
p996
sg353
F1
sg354
I00
sba(imapping
Tile
p997
(dp998
g349
g350
sg351
VF_Dirt_R1
p999
sg353
F1
sg354
I00
sba(imapping
Tile
p1000
(dp1001
g349
g350
sg351
VF_Grass->DirtR
p1002
sg353
F1
sg354
I00
sba(imapping
Tile
p1003
(dp1004
g349
g350
sg351
VF_Dirt
p1005
sg353
F1
sg354
I00
sba(imapping
Tile
p1006
(dp1007
g349
g350
sg351
VF_Dirt_Alt_1
p1008
sg353
F1
sg354
I00
sbaa(lp1009
NaNaNaNaNaNaNaNaNa(imapping
Tile
p1010
(dp1011
g349
g350
sg351
VF_Grass
p1012
sg353
F1
sg354
I00
sba(imapping
Tile
p1013
(dp1014
g349
g350
sg351
VF_Dirt
p1015
sg353
F1
sg354
I00
sba(imapping
Tile
p1016
(dp1017
g349
g350
sg351
VF_Dirt
p1018
sg353
F1
sg354
I00
sbaa(lp1019
NaNaNaNaNaNaNaNa(imapping
Tile
p1020
(dp1021
g349
g418
sg351
VF_Shrooms1
p1022
sg353
F1
sg354
I00
sba(imapping
Tile
p1023
(dp1024
g349
g350
sg351
VF_Grass
p1025
sg353
F1
sg354
I00
sba(imapping
Tile
p1026
(dp1027
g349
g350
sg351
VF_Dirt
p1028
sg353
F1
sg354
I00
sba(imapping
Tile
p1029
(dp1030
g349
g350
sg351
VF_Dirt
p1031
sg353
F1
sg354
I00
sbaa(lp1032
NaNaNaNaNaNaNaNaNa(imapping
Tile
p1033
(dp1034
g349
g350
sg351
VF_Grass
p1035
sg353
F1
sg354
I00
sba(imapping
Tile
p1036
(dp1037
g349
g350
sg351
VF_Dirt
p1038
sg353
F1
sg354
I00
sba(imapping
Tile
p1039
(dp1040
g349
g350
sg351
VF_Dirt
p1041
sg353
F1
sg354
I00
sbaa(lp1042
NaNaNaNaNaNaNaNa(imapping
Tile
p1043
(dp1044
g349
g350
sg351
VF_GrassLedge
p1045
sg353
F1
sg354
I00
sba(imapping
Tile
p1046
(dp1047
g349
g350
sg351
VF_Grass->DirtL
p1048
sg353
F1
sg354
I00
sba(imapping
Tile
p1049
(dp1050
g349
g350
sg351
VF_Dirt_Alt_3
p1051
sg353
F1
sg354
I00
sba(imapping
Tile
p1052
(dp1053
g349
g350
sg351
VF_Dirt
p1054
sg353
F1
sg354
I00
sbaa(lp1055
NaNaNaNaNaNaNa(imapping
Tile
p1056
(dp1057
g349
g404
sg351
VF_Tuft1
p1058
sg353
F1
sg354
I00
sba(imapping
Tile
p1059
(dp1060
g349
g350
sg351
VF_Grass_Alt_3
p1061
sg353
F1
sg354
I00
sba(imapping
Tile
p1062
(dp1063
g349
g350
sg351
VF_Dirt
p1064
sg353
F1
sg354
I00
sba(imapping
Tile
p1065
(dp1066
g349
g350
sg351
VF_Dirt
p1067
sg353
F1
sg354
I00
sba(imapping
Tile
p1068
(dp1069
g349
g350
sg351
VF_Dirt
p1070
sg353
F1
sg354
I00
sbaa(lp1071
NaNaNaNaNaNaNa(imapping
Tile
p1072
(dp1073
g349
g404
sg351
VF_Shrooms2
p1074
sg353
F1
sg354
I00
sba(imapping
Tile
p1075
(dp1076
g349
g350
sg351
VF_Grass
p1077
sg353
F1
sg354
I00
sba(imapping
Tile
p1078
(dp1079
g349
g350
sg351
VF_Dirt_Alt_3
p1080
sg353
F1
sg354
I00
sba(imapping
Tile
p1081
(dp1082
g349
g350
sg351
VF_Dirt
p1083
sg353
F1
sg354
I00
sba(imapping
Tile
p1084
(dp1085
g349
g350
sg351
VF_Dirt
p1086
sg353
F1
sg354
I00
sbaa(lp1087
NaNaNaNaNaNaNaNa(imapping
Tile
p1088
(dp1089
g349
g350
sg351
VF_GrassRedge
p1090
sg353
F1
sg354
I00
sba(imapping
Tile
p1091
(dp1092
g349
g350
sg351
VF_Dirt_R1
p1093
sg353
F1
sg354
I00
sba(imapping
Tile
p1094
(dp1095
g349
g350
sg351
VF_Dirt_R1
p1096
sg353
F1
sg354
I00
sba(imapping
Tile
p1097
(dp1098
g349
g350
sg351
VF_Grass->DirtR
p1099
sg353
F1
sg354
I00
sbaa(lp1100
NaNaNaNaNaNaNaNaNaNaNa(imapping
Tile
p1101
(dp1102
g349
g350
sg351
VF_Grass
p1103
sg353
F1
sg354
I00
sbaa(lp1104
NaNaNaNaNaNaNaNaNaNaNa(imapping
Tile
p1105
(dp1106
g349
g350
sg351
VF_Grass
p1107
sg353
F1
sg354
I00
sbaa(lp1108
NaNaNaNaNaNaNaNaNaNaNa(imapping
Tile
p1109
(dp1110
g349
g350
sg351
VF_Grass_Alt_4
p1111
sg353
F1
sg354
I00
sbaa(lp1112
NaNaNaNaNaNaNaNaNaNa(imapping
Tile
p1113
(dp1114
g349
g404
sg351
VF_Shrooms2
p1115
sg353
F1
sg354
I00
sba(imapping
Tile
p1116
(dp1117
g349
g350
sg351
VF_Grass_Alt_5
p1118
sg353
F1
sg354
I00
sbaa(lp1119
NaNaNaNaNaNaNaNaNaNaNa(imapping
Tile
p1120
(dp1121
g349
g350
sg351
VF_Grass
p1122
sg353
F1
sg354
I00
sbaa(lp1123
NaNaNaNaNaNaNaNaNaNa(imapping
Tile
p1124
(dp1125
g349
g876
sg351
VF_Right_Ramp
p1126
sg353
F1
sg354
I00
sba(imapping
Tile
p1127
(dp1128
g349
g350
sg351
VF_RampJoinR
p1129
sg353
F1
sg354
I00
sbaa(lp1130
NaNaNaNaNaNaNaNaNa(imapping
Tile
p1131
(dp1132
g349
g876
sg351
VF_Right_Ramp
p1133
sg353
F1
sg354
I00
sba(imapping
Tile
p1134
(dp1135
g349
g350
sg351
VF_RampJoinR
p1136
sg353
F1
sg354
I00
sba(imapping
Tile
p1137
(dp1138
g349
g350
sg351
VF_Dirt_Alt_4
p1139
sg353
F1
sg354
I00
sbaa(lp1140
NaNaNaNaNaNaNaNa(imapping
Tile
p1141
(dp1142
g349
g876
sg351
VF_Right_Ramp
p1143
sg353
F1
sg354
I00
sba(imapping
Tile
p1144
(dp1145
g349
g350
sg351
VF_RampJoinR
p1146
sg353
F1
sg354
I00
sba(imapping
Tile
p1147
(dp1148
g349
g350
sg351
VF_Dirt
p1149
sg353
F1
sg354
I00
sba(imapping
Tile
p1150
(dp1151
g349
g350
sg351
VF_Dirt
p1152
sg353
F1
sg354
I00
sbaa(lp1153
NaNaNaNaNaNaNa(imapping
Tile
p1154
(dp1155
g349
g876
sg351
VF_Right_Ramp
p1156
sg353
F1
sg354
I00
sba(imapping
Tile
p1157
(dp1158
g349
g350
sg351
VF_RampJoinR
p1159
sg353
F1
sg354
I00
sba(imapping
Tile
p1160
(dp1161
g349
g350
sg351
VF_Dirt
p1162
sg353
F1
sg354
I00
sba(imapping
Tile
p1163
(dp1164
g349
g350
sg351
VF_Dirt_Alt_1
p1165
sg353
F1
sg354
I00
sba(imapping
Tile
p1166
(dp1167
g349
g350
sg351
VF_Dirt
p1168
sg353
F1
sg354
I00
sbaa(lp1169
NaNaNaNaNaNa(imapping
Tile
p1170
(dp1171
g349
g876
sg351
VF_Right_Ramp
p1172
sg353
F1
sg354
I00
sba(imapping
Tile
p1173
(dp1174
g349
g350
sg351
VF_RampJoinR
p1175
sg353
F1
sg354
I00
sba(imapping
Tile
p1176
(dp1177
g349
g350
sg351
VF_Dirt_Alt_2
p1178
sg353
F1
sg354
I00
sba(imapping
Tile
p1179
(dp1180
g349
g350
sg351
VF_Dirt
p1181
sg353
F1
sg354
I00
sba(imapping
Tile
p1182
(dp1183
g349
g350
sg351
VF_Dirt
p1184
sg353
F1
sg354
I00
sba(imapping
Tile
p1185
(dp1186
g349
g350
sg351
VF_Dirt
p1187
sg353
F1
sg354
I00
sbaa(lp1188
NaNaNaNaNaNa(imapping
Tile
p1189
(dp1190
g349
g350
sg351
VF_Grass_Alt_1
p1191
sg353
F1
sg354
I00
sba(imapping
Tile
p1192
(dp1193
g349
g350
sg351
VF_Dirt
p1194
sg353
F1
sg354
I00
sba(imapping
Tile
p1195
(dp1196
g349
g350
sg351
VF_Dirt
p1197
sg353
F1
sg354
I00
sba(imapping
Tile
p1198
(dp1199
g349
g350
sg351
VF_Dirt
p1200
sg353
F1
sg354
I00
sba(imapping
Tile
p1201
(dp1202
g349
g350
sg351
VF_Dirt
p1203
sg353
F1
sg354
I00
sba(imapping
Tile
p1204
(dp1205
g349
g350
sg351
VF_Dirt_Alt_3
p1206
sg353
F1
sg354
I00
sbaa(lp1207
NaNaNaNaNa(imapping
Tile
p1208
(dp1209
g349
g404
sg351
VF_Tuft1
p1210
sg353
F1
sg354
I00
sba(imapping
Tile
p1211
(dp1212
g349
g350
sg351
VF_Grass
p1213
sg353
F1
sg354
I00
sba(imapping
Tile
p1214
(dp1215
g349
g350
sg351
VF_Dirt
p1216
sg353
F1
sg354
I00
sba(imapping
Tile
p1217
(dp1218
g349
g350
sg351
VF_Dirt_Alt_4
p1219
sg353
F1
sg354
I00
sba(imapping
Tile
p1220
(dp1221
g349
g350
sg351
VF_Dirt
p1222
sg353
F1
sg354
I00
sba(imapping
Tile
p1223
(dp1224
g349
g350
sg351
VF_Dirt
p1225
sg353
F1
sg354
I00
sba(imapping
Tile
p1226
(dp1227
g349
g350
sg351
VF_Dirt
p1228
sg353
F1
sg354
I00
sbaa(lp1229
NaNaNaNaNa(imapping
Tile
p1230
(dp1231
g349
g350
sg351
VF_GrassLedge
p1232
sg353
F1
sg354
I00
sba(imapping
Tile
p1233
(dp1234
g349
g350
sg351
VF_Grass->DirtL
p1235
sg353
F1
sg354
I00
sba(imapping
Tile
p1236
(dp1237
g349
g350
sg351
VF_Dirt
p1238
sg353
F1
sg354
I00
sba(imapping
Tile
p1239
(dp1240
g349
g350
sg351
VF_Dirt
p1241
sg353
F1
sg354
I00
sba(imapping
Tile
p1242
(dp1243
g349
g350
sg351
VF_Dirt
p1244
sg353
F1
sg354
I00
sba(imapping
Tile
p1245
(dp1246
g349
g350
sg351
VF_Dirt
p1247
sg353
F1
sg354
I00
sba(imapping
Tile
p1248
(dp1249
g349
g350
sg351
VF_Dirt
p1250
sg353
F1
sg354
I00
sbaa(lp1251
NaNaNaNaNa(imapping
Tile
p1252
(dp1253
g349
g350
sg351
VF_Grass_Alt_3
p1254
sg353
F1
sg354
I00
sba(imapping
Tile
p1255
(dp1256
g349
g350
sg351
VF_Dirt
p1257
sg353
F1
sg354
I00
sba(imapping
Tile
p1258
(dp1259
g349
g350
sg351
VF_Dirt
p1260
sg353
F1
sg354
I00
sba(imapping
Tile
p1261
(dp1262
g349
g350
sg351
VF_Dirt
p1263
sg353
F1
sg354
I00
sba(imapping
Tile
p1264
(dp1265
g349
g350
sg351
VF_Dirt
p1266
sg353
F1
sg354
I00
sba(imapping
Tile
p1267
(dp1268
g349
g350
sg351
VF_Dirt_Alt_1
p1269
sg353
F1
sg354
I00
sba(imapping
Tile
p1270
(dp1271
g349
g350
sg351
VF_Dirt
p1272
sg353
F1
sg354
I00
sbaa(lp1273
NaNaNaNaNa(imapping
Tile
p1274
(dp1275
g349
g350
sg351
VF_Grass
p1276
sg353
F1
sg354
I00
sba(imapping
Tile
p1277
(dp1278
g349
g350
sg351
VF_Dirt
p1279
sg353
F1
sg354
I00
sba(imapping
Tile
p1280
(dp1281
g349
g350
sg351
VF_Dirt
p1282
sg353
F1
sg354
I00
sba(imapping
Tile
p1283
(dp1284
g349
g350
sg351
VF_Dirt
p1285
sg353
F1
sg354
I00
sba(imapping
Tile
p1286
(dp1287
g349
g350
sg351
VF_Dirt
p1288
sg353
F1
sg354
I00
sba(imapping
Tile
p1289
(dp1290
g349
g350
sg351
VF_Dirt
p1291
sg353
F1
sg354
I00
sba(imapping
Tile
p1292
(dp1293
g349
g350
sg351
VF_Dirt
p1294
sg353
F1
sg354
I00
sbaa(lp1295
NaNaNaNaNa(imapping
Tile
p1296
(dp1297
g349
g350
sg351
VF_Grass_Alt_4
p1298
sg353
F1
sg354
I00
sba(imapping
Tile
p1299
(dp1300
g349
g350
sg351
VF_Dirt
p1301
sg353
F1
sg354
I00
sba(imapping
Tile
p1302
(dp1303
g349
g350
sg351
VF_Dirt
p1304
sg353
F1
sg354
I00
sba(imapping
Tile
p1305
(dp1306
g349
g350
sg351
VF_Dirt_Alt_2
p1307
sg353
F1
sg354
I00
sba(imapping
Tile
p1308
(dp1309
g349
g350
sg351
VF_Dirt
p1310
sg353
F1
sg354
I00
sba(imapping
Tile
p1311
(dp1312
g349
g350
sg351
VF_Dirt
p1313
sg353
F1
sg354
I00
sba(imapping
Tile
p1314
(dp1315
g349
g350
sg351
VF_Dirt
p1316
sg353
F1
sg354
I00
sbaa(lp1317
NaNaNaNaNa(imapping
Tile
p1318
(dp1319
g349
g350
sg351
VF_Grass_Alt_3
p1320
sg353
F1
sg354
I00
sba(imapping
Tile
p1321
(dp1322
g349
g350
sg351
VF_Dirt
p1323
sg353
F1
sg354
I00
sba(imapping
Tile
p1324
(dp1325
g349
g350
sg351
VF_Dirt_Alt_3
p1326
sg353
F1
sg354
I00
sba(imapping
Tile
p1327
(dp1328
g349
g350
sg351
VF_Dirt
p1329
sg353
F1
sg354
I00
sba(imapping
Tile
p1330
(dp1331
g349
g350
sg351
VF_Dirt
p1332
sg353
F1
sg354
I00
sba(imapping
Tile
p1333
(dp1334
g349
g350
sg351
VF_Dirt
p1335
sg353
F1
sg354
I00
sba(imapping
Tile
p1336
(dp1337
g349
g350
sg351
VF_Dirt_Alt_4
p1338
sg353
F1
sg354
I00
sbaa(lp1339
NaNaNaNaNa(imapping
Tile
p1340
(dp1341
g349
g350
sg351
VF_Grass_Alt_5
p1342
sg353
F1
sg354
I00
sba(imapping
Tile
p1343
(dp1344
g349
g350
sg351
VF_Dirt
p1345
sg353
F1
sg354
I00
sba(imapping
Tile
p1346
(dp1347
g349
g350
sg351
VF_Dirt
p1348
sg353
F1
sg354
I00
sba(imapping
Tile
p1349
(dp1350
g349
g350
sg351
VF_Dirt
p1351
sg353
F1
sg354
I00
sba(imapping
Tile
p1352
(dp1353
g349
g350
sg351
VF_Dirt
p1354
sg353
F1
sg354
I00
sba(imapping
Tile
p1355
(dp1356
g349
g350
sg351
VF_Dirt
p1357
sg353
F1
sg354
I00
sba(imapping
Tile
p1358
(dp1359
g349
g350
sg351
VF_Dirt
p1360
sg353
F1
sg354
I00
sbaa(lp1361
NaNaNaNaNa(imapping
Tile
p1362
(dp1363
g349
g350
sg351
VF_Grass_Alt_5
p1364
sg353
F1
sg354
I00
sba(imapping
Tile
p1365
(dp1366
g349
g350
sg351
VF_Dirt
p1367
sg353
F1
sg354
I00
sba(imapping
Tile
p1368
(dp1369
g349
g350
sg351
VF_Dirt
p1370
sg353
F1
sg354
I00
sba(imapping
Tile
p1371
(dp1372
g349
g350
sg351
VF_Dirt
p1373
sg353
F1
sg354
I00
sba(imapping
Tile
p1374
(dp1375
g349
g350
sg351
VF_Dirt
p1376
sg353
F1
sg354
I00
sba(imapping
Tile
p1377
(dp1378
g349
g350
sg351
VF_Dirt
p1379
sg353
F1
sg354
I00
sba(imapping
Tile
p1380
(dp1381
g349
g350
sg351
VF_Dirt
p1382
sg353
F1
sg354
I00
sbaa(lp1383
NaNaNaNa(imapping
Tile
p1384
(dp1385
g349
g418
sg351
VF_Shrooms3
p1386
sg353
F1
sg354
I00
sba(imapping
Tile
p1387
(dp1388
g349
g350
sg351
VF_Grass_Alt_5
p1389
sg353
F1
sg354
I00
sba(imapping
Tile
p1390
(dp1391
g349
g350
sg351
VF_Dirt
p1392
sg353
F1
sg354
I00
sba(imapping
Tile
p1393
(dp1394
g349
g350
sg351
VF_Dirt
p1395
sg353
F1
sg354
I00
sba(imapping
Tile
p1396
(dp1397
g349
g350
sg351
VF_Dirt
p1398
sg353
F1
sg354
I00
sba(imapping
Tile
p1399
(dp1400
g349
g350
sg351
VF_Dirt
p1401
sg353
F1
sg354
I00
sba(imapping
Tile
p1402
(dp1403
g349
g350
sg351
VF_Dirt_Alt_2
p1404
sg353
F1
sg354
I00
sba(imapping
Tile
p1405
(dp1406
g349
g350
sg351
VF_Dirt
p1407
sg353
F1
sg354
I00
sbaa(lp1408
NaNaNaNaNa(imapping
Tile
p1409
(dp1410
g349
g350
sg351
VF_Grass_Alt_5
p1411
sg353
F1
sg354
I00
sba(imapping
Tile
p1412
(dp1413
g349
g350
sg351
VF_Dirt
p1414
sg353
F1
sg354
I00
sba(imapping
Tile
p1415
(dp1416
g349
g350
sg351
VF_Dirt
p1417
sg353
F1
sg354
I00
sba(imapping
Tile
p1418
(dp1419
g349
g350
sg351
VF_Dirt
p1420
sg353
F1
sg354
I00
sba(imapping
Tile
p1421
(dp1422
g349
g350
sg351
VF_Dirt
p1423
sg353
F1
sg354
I00
sba(imapping
Tile
p1424
(dp1425
g349
g350
sg351
VF_Dirt
p1426
sg353
F1
sg354
I00
sba(imapping
Tile
p1427
(dp1428
g349
g350
sg351
VF_Dirt
p1429
sg353
F1
sg354
I00
sbaa(lp1430
NaNaNaNaNa(imapping
Tile
p1431
(dp1432
g349
g350
sg351
VF_Grass_Alt_5
p1433
sg353
F1
sg354
I00
sba(imapping
Tile
p1434
(dp1435
g349
g350
sg351
VF_Dirt
p1436
sg353
F1
sg354
I00
sba(imapping
Tile
p1437
(dp1438
g349
g350
sg351
VF_Dirt
p1439
sg353
F1
sg354
I00
sba(imapping
Tile
p1440
(dp1441
g349
g350
sg351
VF_Dirt
p1442
sg353
F1
sg354
I00
sba(imapping
Tile
p1443
(dp1444
g349
g350
sg351
VF_Dirt
p1445
sg353
F1
sg354
I00
sba(imapping
Tile
p1446
(dp1447
g349
g350
sg351
VF_Dirt
p1448
sg353
F1
sg354
I00
sba(imapping
Tile
p1449
(dp1450
g349
g350
sg351
VF_Dirt
p1451
sg353
F1
sg354
I00
sbaa(lp1452
NaNaNaNaNa(imapping
Tile
p1453
(dp1454
g349
g350
sg351
VF_Grass_Alt_5
p1455
sg353
F1
sg354
I00
sba(imapping
Tile
p1456
(dp1457
g349
g350
sg351
VF_Dirt
p1458
sg353
F1
sg354
I00
sba(imapping
Tile
p1459
(dp1460
g349
g350
sg351
VF_Dirt
p1461
sg353
F1
sg354
I00
sba(imapping
Tile
p1462
(dp1463
g349
g350
sg351
VF_Dirt
p1464
sg353
F1
sg354
I00
sba(imapping
Tile
p1465
(dp1466
g349
g350
sg351
VF_Dirt
p1467
sg353
F1
sg354
I00
sba(imapping
Tile
p1468
(dp1469
g349
g350
sg351
VF_Dirt_Alt_2
p1470
sg353
F1
sg354
I00
sba(imapping
Tile
p1471
(dp1472
g349
g350
sg351
VF_Dirt
p1473
sg353
F1
sg354
I00
sbaa(lp1474
NaNaNaNaNa(imapping
Tile
p1475
(dp1476
g349
g350
sg351
VF_Grass
p1477
sg353
F1
sg354
I00
sba(imapping
Tile
p1478
(dp1479
g349
g350
sg351
VF_Dirt
p1480
sg353
F1
sg354
I00
sba(imapping
Tile
p1481
(dp1482
g349
g350
sg351
VF_Dirt
p1483
sg353
F1
sg354
I00
sba(imapping
Tile
p1484
(dp1485
g349
g350
sg351
VF_Dirt_Alt_4
p1486
sg353
F1
sg354
I00
sba(imapping
Tile
p1487
(dp1488
g349
g350
sg351
VF_Dirt
p1489
sg353
F1
sg354
I00
sba(imapping
Tile
p1490
(dp1491
g349
g350
sg351
VF_Dirt
p1492
sg353
F1
sg354
I00
sba(imapping
Tile
p1493
(dp1494
g349
g350
sg351
VF_Dirt
p1495
sg353
F1
sg354
I00
sbaa(lp1496
NaNaNaNaNa(imapping
Tile
p1497
(dp1498
g349
g513
sg351
VF_Left_Halframp2
p1499
sg353
F1
sg354
I00
sba(imapping
Tile
p1500
(dp1501
g349
g350
sg351
VF_Dirt
p1502
sg353
F1
sg354
I00
sba(imapping
Tile
p1503
(dp1504
g349
g350
sg351
VF_Dirt
p1505
sg353
F1
sg354
I00
sba(imapping
Tile
p1506
(dp1507
g349
g350
sg351
VF_Dirt
p1508
sg353
F1
sg354
I00
sba(imapping
Tile
p1509
(dp1510
g349
g350
sg351
VF_Dirt
p1511
sg353
F1
sg354
I00
sba(imapping
Tile
p1512
(dp1513
g349
g350
sg351
VF_Dirt
p1514
sg353
F1
sg354
I00
sba(imapping
Tile
p1515
(dp1516
g349
g350
sg351
VF_Dirt_Alt_4
p1517
sg353
F1
sg354
I00
sbaa(lp1518
NaNaNaNaNa(imapping
Tile
p1519
(dp1520
g349
g524
sg351
VF_Left_Halframp1
p1521
sg353
F1
sg354
I00
sba(imapping
Tile
p1522
(dp1523
g349
g350
sg351
VF_HalframpJoinL
p1524
sg353
F1
sg354
I00
sba(imapping
Tile
p1525
(dp1526
g349
g350
sg351
VF_Dirt
p1527
sg353
F1
sg354
I00
sba(imapping
Tile
p1528
(dp1529
g349
g350
sg351
VF_Dirt
p1530
sg353
F1
sg354
I00
sba(imapping
Tile
p1531
(dp1532
g349
g350
sg351
VF_Dirt
p1533
sg353
F1
sg354
I00
sba(imapping
Tile
p1534
(dp1535
g349
g350
sg351
VF_Dirt
p1536
sg353
F1
sg354
I00
sba(imapping
Tile
p1537
(dp1538
g349
g350
sg351
VF_Dirt
p1539
sg353
F1
sg354
I00
sbaa(lp1540
NaNaNaNaNaNa(imapping
Tile
p1541
(dp1542
g349
g513
sg351
VF_Left_Halframp2
p1543
sg353
F1
sg354
I00
sba(imapping
Tile
p1544
(dp1545
g349
g350
sg351
VF_Dirt
p1546
sg353
F1
sg354
I00
sba(imapping
Tile
p1547
(dp1548
g349
g350
sg351
VF_Dirt
p1549
sg353
F1
sg354
I00
sba(imapping
Tile
p1550
(dp1551
g349
g350
sg351
VF_Dirt_Alt_4
p1552
sg353
F1
sg354
I00
sba(imapping
Tile
p1553
(dp1554
g349
g350
sg351
VF_Dirt
p1555
sg353
F1
sg354
I00
sba(imapping
Tile
p1556
(dp1557
g349
g350
sg351
VF_Dirt
p1558
sg353
F1
sg354
I00
sbaa(lp1559
NaNaNaNaNaNa(imapping
Tile
p1560
(dp1561
g349
g524
sg351
VF_Left_Halframp1
p1562
sg353
F1
sg354
I00
sba(imapping
Tile
p1563
(dp1564
g349
g350
sg351
VF_HalframpJoinL
p1565
sg353
F1
sg354
I00
sba(imapping
Tile
p1566
(dp1567
g349
g350
sg351
VF_Dirt
p1568
sg353
F1
sg354
I00
sba(imapping
Tile
p1569
(dp1570
g349
g350
sg351
VF_Dirt
p1571
sg353
F1
sg354
I00
sba(imapping
Tile
p1572
(dp1573
g349
g350
sg351
VF_Dirt
p1574
sg353
F1
sg354
I00
sba(imapping
Tile
p1575
(dp1576
g349
g350
sg351
VF_Dirt
p1577
sg353
F1
sg354
I00
sbaa(lp1578
NaNaNaNaNaNaNa(imapping
Tile
p1579
(dp1580
g349
g350
sg351
VF_Grass
p1581
sg353
F1
sg354
I00
sba(imapping
Tile
p1582
(dp1583
g349
g350
sg351
VF_Dirt
p1584
sg353
F1
sg354
I00
sba(imapping
Tile
p1585
(dp1586
g349
g350
sg351
VF_Dirt
p1587
sg353
F1
sg354
I00
sba(imapping
Tile
p1588
(dp1589
g349
g350
sg351
VF_Dirt
p1590
sg353
F1
sg354
I00
sba(imapping
Tile
p1591
(dp1592
g349
g350
sg351
VF_Dirt
p1593
sg353
F1
sg354
I00
sbaa(lp1594
NaNaNaNaNaNa(imapping
Tile
p1595
(dp1596
g349
g404
sg351
VF_ExitSign
p1597
sg353
F1
sg354
I00
sba(imapping
Tile
p1598
(dp1599
g349
g350
sg351
VF_Grass
p1600
sg353
F1
sg354
I00
sba(imapping
Tile
p1601
(dp1602
g349
g350
sg351
VF_Dirt
p1603
sg353
F1
sg354
I00
sba(imapping
Tile
p1604
(dp1605
g349
g350
sg351
VF_Dirt
p1606
sg353
F1
sg354
I00
sba(imapping
Tile
p1607
(dp1608
g349
g350
sg351
VF_Dirt
p1609
sg353
F1
sg354
I00
sba(imapping
Tile
p1610
(dp1611
g349
g350
sg351
VF_Dirt
p1612
sg353
F1
sg354
I00
sbaa(lp1613
NaNaNaNaNaNaNa(imapping
Tile
p1614
(dp1615
g349
g350
sg351
VF_Grass_Alt_1
p1616
sg353
F1
sg354
I00
sba(imapping
Tile
p1617
(dp1618
g349
g350
sg351
VF_Dirt
p1619
sg353
F1
sg354
I00
sba(imapping
Tile
p1620
(dp1621
g349
g350
sg351
VF_Dirt_Alt_2
p1622
sg353
F1
sg354
I00
sba(imapping
Tile
p1623
(dp1624
g349
g350
sg351
VF_Dirt
p1625
sg353
F1
sg354
I00
sba(imapping
Tile
p1626
(dp1627
g349
g350
sg351
VF_Dirt_Alt_4
p1628
sg353
F1
sg354
I00
sbaa(lp1629
NaNaNaNaNaNaNa(imapping
Tile
p1630
(dp1631
g349
g350
sg351
VF_Grass_Alt_4
p1632
sg353
F1
sg354
I00
sba(imapping
Tile
p1633
(dp1634
g349
g350
sg351
VF_Dirt
p1635
sg353
F1
sg354
I00
sba(imapping
Tile
p1636
(dp1637
g349
g350
sg351
VF_Dirt
p1638
sg353
F1
sg354
I00
sba(imapping
Tile
p1639
(dp1640
g349
g350
sg351
VF_Dirt
p1641
sg353
F1
sg354
I00
sba(imapping
Tile
p1642
(dp1643
g349
g350
sg351
VF_Dirt
p1644
sg353
F1
sg354
I00
sbaa(lp1645
NaNaNaNaNaNaNa(imapping
Tile
p1646
(dp1647
g349
g350
sg351
VF_Grass_Alt_5
p1648
sg353
F1
sg354
I00
sba(imapping
Tile
p1649
(dp1650
g349
g350
sg351
VF_Dirt
p1651
sg353
F1
sg354
I00
sba(imapping
Tile
p1652
(dp1653
g349
g350
sg351
VF_Dirt
p1654
sg353
F1
sg354
I00
sba(imapping
Tile
p1655
(dp1656
g349
g350
sg351
VF_Dirt
p1657
sg353
F1
sg354
I00
sba(imapping
Tile
p1658
(dp1659
g349
g350
sg351
VF_Dirt
p1660
sg353
F1
sg354
I00
sbaa(lp1661
NaNaNaNaNaNaNa(imapping
Tile
p1662
(dp1663
g349
g350
sg351
VF_Grass_Alt_5
p1664
sg353
F1
sg354
I00
sba(imapping
Tile
p1665
(dp1666
g349
g350
sg351
VF_Dirt
p1667
sg353
F1
sg354
I00
sba(imapping
Tile
p1668
(dp1669
g349
g350
sg351
VF_Dirt
p1670
sg353
F1
sg354
I00
sba(imapping
Tile
p1671
(dp1672
g349
g350
sg351
VF_Dirt
p1673
sg353
F1
sg354
I00
sba(imapping
Tile
p1674
(dp1675
g349
g350
sg351
VF_Dirt
p1676
sg353
F1
sg354
I00
sbaa(lp1677
NaNaNaNaNaNa(imapping
Tile
p1678
(dp1679
g349
g418
sg351
VF_Shrooms1
p1680
sg353
F1
sg354
I00
sba(imapping
Tile
p1681
(dp1682
g349
g350
sg351
VF_Grass
p1683
sg353
F1
sg354
I00
sba(imapping
Tile
p1684
(dp1685
g349
g350
sg351
VF_Dirt
p1686
sg353
F1
sg354
I00
sba(imapping
Tile
p1687
(dp1688
g349
g350
sg351
VF_Dirt_Alt_1
p1689
sg353
F1
sg354
I00
sba(imapping
Tile
p1690
(dp1691
g349
g350
sg351
VF_Dirt
p1692
sg353
F1
sg354
I00
sba(imapping
Tile
p1693
(dp1694
g349
g350
sg351
VF_Dirt
p1695
sg353
F1
sg354
I00
sbaa(lp1696
NaNaNaNaNaNaNa(imapping
Tile
p1697
(dp1698
g349
g350
sg351
VF_Grass_Alt_2
p1699
sg353
F1
sg354
I00
sba(imapping
Tile
p1700
(dp1701
g349
g350
sg351
VF_Dirt_Alt_4
p1702
sg353
F1
sg354
I00
sba(imapping
Tile
p1703
(dp1704
g349
g350
sg351
VF_Dirt
p1705
sg353
F1
sg354
I00
sba(imapping
Tile
p1706
(dp1707
g349
g350
sg351
VF_Dirt
p1708
sg353
F1
sg354
I00
sba(imapping
Tile
p1709
(dp1710
g349
g350
sg351
VF_Dirt_Alt_1
p1711
sg353
F1
sg354
I00
sbaa(lp1712
NaNaNaNaNaNa(imapping
Tile
p1713
(dp1714
g349
g418
sg351
VF_Stump
p1715
sg353
F1
sg354
I00
sba(imapping
Tile
p1716
(dp1717
g349
g350
sg351
VF_Grass
p1718
sg353
F1
sg354
I00
sba(imapping
Tile
p1719
(dp1720
g349
g350
sg351
VF_Dirt
p1721
sg353
F1
sg354
I00
sba(imapping
Tile
p1722
(dp1723
g349
g350
sg351
VF_Dirt
p1724
sg353
F1
sg354
I00
sba(imapping
Tile
p1725
(dp1726
g349
g350
sg351
VF_Dirt
p1727
sg353
F1
sg354
I00
sba(imapping
Tile
p1728
(dp1729
g349
g350
sg351
VF_Dirt_Alt_2
p1730
sg353
F1
sg354
I00
sbaa(lp1731
NaNaNaNaNaNaNa(imapping
Tile
p1732
(dp1733
g349
g350
sg351
VF_Grass
p1734
sg353
F1
sg354
I00
sba(imapping
Tile
p1735
(dp1736
g349
g350
sg351
VF_Dirt
p1737
sg353
F1
sg354
I00
sba(imapping
Tile
p1738
(dp1739
g349
g350
sg351
VF_Dirt
p1740
sg353
F1
sg354
I00
sba(imapping
Tile
p1741
(dp1742
g349
g350
sg351
VF_Dirt
p1743
sg353
F1
sg354
I00
sba(imapping
Tile
p1744
(dp1745
g349
g350
sg351
VF_Dirt
p1746
sg353
F1
sg354
I00
sbaa(lp1747
NaNaNaNaNaNaNa(imapping
Tile
p1748
(dp1749
g349
g350
sg351
VF_Grass
p1750
sg353
F1
sg354
I00
sba(imapping
Tile
p1751
(dp1752
g349
g350
sg351
VF_Dirt_Alt_1
p1753
sg353
F1
sg354
I00
sba(imapping
Tile
p1754
(dp1755
g349
g350
sg351
VF_Dirt
p1756
sg353
F1
sg354
I00
sba(imapping
Tile
p1757
(dp1758
g349
g350
sg351
VF_Dirt
p1759
sg353
F1
sg354
I00
sba(imapping
Tile
p1760
(dp1761
g349
g350
sg351
VF_Dirt
p1762
sg353
F1
sg354
I00
sbaa(lp1763
NaNaNaNaNaNaNa(imapping
Tile
p1764
(dp1765
g349
g350
sg351
VF_Grass_Alt_3
p1766
sg353
F1
sg354
I00
sba(imapping
Tile
p1767
(dp1768
g349
g350
sg351
VF_Dirt
p1769
sg353
F1
sg354
I00
sba(imapping
Tile
p1770
(dp1771
g349
g350
sg351
VF_Dirt
p1772
sg353
F1
sg354
I00
sba(imapping
Tile
p1773
(dp1774
g349
g350
sg351
VF_Dirt
p1775
sg353
F1
sg354
I00
sba(imapping
Tile
p1776
(dp1777
g349
g350
sg351
VF_Dirt
p1778
sg353
F1
sg354
I00
sbaa(lp1779
NaNaNaNaNaNaNa(imapping
Tile
p1780
(dp1781
g349
g350
sg351
VF_Grass_Alt_4
p1782
sg353
F1
sg354
I00
sba(imapping
Tile
p1783
(dp1784
g349
g350
sg351
VF_Dirt
p1785
sg353
F1
sg354
I00
sba(imapping
Tile
p1786
(dp1787
g349
g350
sg351
VF_Dirt
p1788
sg353
F1
sg354
I00
sba(imapping
Tile
p1789
(dp1790
g349
g350
sg351
VF_Dirt
p1791
sg353
F1
sg354
I00
sba(imapping
Tile
p1792
(dp1793
g349
g350
sg351
VF_Dirt
p1794
sg353
F1
sg354
I00
sbaa(lp1795
NaNaNaNaNaNaNa(imapping
Tile
p1796
(dp1797
g349
g350
sg351
VF_Grass_Alt_5
p1798
sg353
F1
sg354
I00
sba(imapping
Tile
p1799
(dp1800
g349
g350
sg351
VF_Dirt_Alt_2
p1801
sg353
F1
sg354
I00
sba(imapping
Tile
p1802
(dp1803
g349
g350
sg351
VF_Dirt
p1804
sg353
F1
sg354
I00
sba(imapping
Tile
p1805
(dp1806
g349
g350
sg351
VF_Dirt
p1807
sg353
F1
sg354
I00
sba(imapping
Tile
p1808
(dp1809
g349
g350
sg351
VF_Dirt
p1810
sg353
F1
sg354
I00
sbaa(lp1811
NaNaNaNaNaNaNa(imapping
Tile
p1812
(dp1813
g349
g350
sg351
VF_Grass_Alt_3
p1814
sg353
F1
sg354
I00
sba(imapping
Tile
p1815
(dp1816
g349
g350
sg351
VF_Dirt
p1817
sg353
F1
sg354
I00
sba(imapping
Tile
p1818
(dp1819
g349
g350
sg351
VF_Dirt
p1820
sg353
F1
sg354
I00
sba(imapping
Tile
p1821
(dp1822
g349
g350
sg351
VF_Dirt_Alt_1
p1823
sg353
F1
sg354
I00
sba(imapping
Tile
p1824
(dp1825
g349
g350
sg351
VF_Dirt
p1826
sg353
F1
sg354
I00
sbaa(lp1827
NaNaNaNaNaNaNa(imapping
Tile
p1828
(dp1829
g349
g513
sg351
VF_Left_Halframp2
p1830
sg353
F1
sg354
I00
sba(imapping
Tile
p1831
(dp1832
g349
g350
sg351
VF_Dirt
p1833
sg353
F1
sg354
I00
sba(imapping
Tile
p1834
(dp1835
g349
g350
sg351
VF_Dirt
p1836
sg353
F1
sg354
I00
sba(imapping
Tile
p1837
(dp1838
g349
g350
sg351
VF_Dirt
p1839
sg353
F1
sg354
I00
sba(imapping
Tile
p1840
(dp1841
g349
g350
sg351
VF_Dirt_Alt_2
p1842
sg353
F1
sg354
I00
sbaa(lp1843
NaNaNaNaNaNaNa(imapping
Tile
p1844
(dp1845
g349
g524
sg351
VF_Left_Halframp1
p1846
sg353
F1
sg354
I00
sba(imapping
Tile
p1847
(dp1848
g349
g350
sg351
VF_HalframpJoinL
p1849
sg353
F1
sg354
I00
sba(imapping
Tile
p1850
(dp1851
g349
g350
sg351
VF_Dirt
p1852
sg353
F1
sg354
I00
sba(imapping
Tile
p1853
(dp1854
g349
g350
sg351
VF_Dirt
p1855
sg353
F1
sg354
I00
sba(imapping
Tile
p1856
(dp1857
g349
g350
sg351
VF_Dirt
p1858
sg353
F1
sg354
I00
sbaa(lp1859
NaNaNaNaNaNaNaNa(imapping
Tile
p1860
(dp1861
g349
g513
sg351
VF_Left_Halframp2
p1862
sg353
F1
sg354
I00
sba(imapping
Tile
p1863
(dp1864
g349
g350
sg351
VF_Dirt
p1865
sg353
F1
sg354
I00
sba(imapping
Tile
p1866
(dp1867
g349
g350
sg351
VF_Dirt
p1868
sg353
F1
sg354
I00
sba(imapping
Tile
p1869
(dp1870
g349
g350
sg351
VF_Dirt
p1871
sg353
F1
sg354
I00
sbaa(lp1872
NaNaNaNaNaNaNaNa(imapping
Tile
p1873
(dp1874
g349
g524
sg351
VF_Left_Halframp1
p1875
sg353
F1
sg354
I00
sba(imapping
Tile
p1876
(dp1877
g349
g350
sg351
VF_HalframpJoinL
p1878
sg353
F1
sg354
I00
sba(imapping
Tile
p1879
(dp1880
g349
g350
sg351
VF_Dirt
p1881
sg353
F1
sg354
I00
sba(imapping
Tile
p1882
(dp1883
g349
g350
sg351
VF_Dirt
p1884
sg353
F1
sg354
I00
sbaa(lp1885
NaNaNaNaNaNaNaNaNa(imapping
Tile
p1886
(dp1887
g349
g513
sg351
VF_Left_Halframp2
p1888
sg353
F1
sg354
I00
sba(imapping
Tile
p1889
(dp1890
g349
g350
sg351
VF_Dirt
p1891
sg353
F1
sg354
I00
sba(imapping
Tile
p1892
(dp1893
g349
g350
sg351
VF_Dirt
p1894
sg353
F1
sg354
I00
sbaasS'bgmusic'
p1895
VSempridge2.ogg
p1896
sS'theme'
p1897
VForest
p1898
sS'endef'
p1899
(dp1900
VBoss_Radkelu
p1901
Vboss_radkelu
p1902
sVCSpider
p1903
Vcspider
p1904
sVSnowOgre
p1905
Vsnowogre
p1906
sVWasp
p1907
Vwasp
p1908
sVPoisPod
p1909
Vpoispod
p1910
sVSpider
p1911
Vspider
p1912
sVSnowBat
p1913
Vsnowbat
p1914
sVWorm
p1915
Vworm
p1916
sVGiantJelly
p1917
Vgiantjelly
p1918
sVPod
p1919
Vpod
p1920
sVGiantWorm
p1921
Vgiantworm
p1922
ssS'tiledef'
p1923
(dp1924
VS_bLRamp
p1925
Vsnow_blramp.png
p1926
sViC_Ice
p1927
Vcaveice.png
p1928
sVF_Dirt_R2
p1929
Vdirtr_edge2.png
p1930
sVF_Dirt_R1
p1931
Vdirtr_edge1.png
p1932
sVS_Railing_1
p1933
Vsnow_railing1.png
p1934
sVS_Railing_2
p1935
Vsnow_railing2.png
p1936
sVC_Suit of Armour
p1937
Vsuit_armour.png
p1938
sVS_UCleft
p1939
Vsnow_undercorner_left.png
p1940
sVF_Right_Halframp1
p1941
VR_HR1.png
p1942
sVF_Right_Halframp2
p1943
VR_HR2.png
p1944
sVF_GrassRedge
p1945
Vgrassr_edge.png
p1946
sVS_ECleft
p1947
Vsnow_edgecorner_left.png
p1948
sViC_wr2
p1949
Vcavewr2.png
p1950
sVF_Tuft1
p1951
Vtuft1.png
p1952
sVF_Tuft2
p1953
Vtuft2.png
p1954
sVS_Tree
p1955
Vsnow_tree.png
p1956
sVF_Grass
p1957
Vgrass.png
p1958
sVS_Railing_L
p1959
Vsnow_railing_left.png
p1960
sVC_Castle HRR
p1961
Vcstl_hr_r.png
p1962
sVS_RRamp
p1963
Vsnow_rramp.png
p1964
sVC_Castle HRL
p1965
Vcstl_hr_l.png
p1966
sVS_Pillar
p1967
Vsnow_pillar.png
p1968
sVS_Railing_R
p1969
Vsnow_railing_right.png
p1970
sVS_Tree2
p1971
Vsnow_tree2.png
p1972
sVS_Ground1
p1973
Vsnow_ground1.png
p1974
sVF_Stump
p1975
Vtreestump.png
p1976
sVC_Castle Ground 2
p1977
Vcstl_ground2.png
p1978
sVC_Castle Ground 3
p1979
Vcstl_ground3.png
p1980
sVC_Castle Ground 1
p1981
Vcstl_ground1.png
p1982
sVS_Snow2
p1983
Vsnow_snow2.png
p1984
sVF_Grass_Alt_5
p1985
Vgrassc5.png
p1986
sViC_jl
p1987
Vcavejl.png
p1988
sVS_bRRamp
p1989
Vsnow_brramp.png
p1990
sViC_TopL
p1991
Vcavetl.png
p1992
sViC_Floor 1
p1993
Vcavefloor1.png
p1994
sViC_Floor 3
p1995
Vcavefloor3.png
p1996
sViC_Floor 2
p1997
Vcavefloor2.png
p1998
sViC_TopR
p1999
Vcavetr.png
p2000
sViC_jr
p2001
Vcavejr.png
p2002
sVC_Castle Floor 2
p2003
Vcstl_floor2.png
p2004
sVS_Snow
p2005
Vsnow_snow.png
p2006
sVF_Grass_Alt_2
p2007
Vgrassc2.png
p2008
sVF_ExitSign
p2009
Vexitsign.png
p2010
sVF_Grass->Dirttop
p2011
Vgrassmdirt.png
p2012
sVS_UCright
p2013
Vsnow_undercorner_right.png
p2014
sVS_Pillartop
p2015
Vsnow_pillartop.png
p2016
sViC_wr
p2017
Vcavewr.png
p2018
sVF_Dirttop->Grass
p2019
Vdirtmgrass.png
p2020
sVS_ECright
p2021
Vsnow_edgecorner_right.png
p2022
sVC_Castle HRmL
p2023
Vcstl_hr_m_l.png
p2024
sVC_Castle Wall L
p2025
Vcstl_wleft.png
p2026
sVC_Castle Wall R
p2027
Vcstl_wright.png
p2028
sVC_Castle HRmR
p2029
Vcstl_hr_m_r.png
p2030
sVF_Ice
p2031
Vtile5.png
p2032
sViC_wl
p2033
Vcavewl.png
p2034
sVC_Castle Floor 4
p2035
Vcstl_floor4.png
p2036
sVF_Grass_Alt_4
p2037
Vgrassc4.png
p2038
sVF_Grass_Alt_1
p2039
Vgrassc1.png
p2040
sVC_Castle Floor 1
p2041
Vcstl_floor1.png
p2042
sVF_Grass_Alt_3
p2043
Vgrassc3.png
p2044
sVC_Castle Floor 3
p2045
Vcstl_floor3.png
p2046
sVS_edgewleft1
p2047
Vsnow_edgewall_left1.png
p2048
sVS_edgewleft2
p2049
Vsnow_edgewall_left2.png
p2050
sVS_UCJright
p2051
Vsnow_undercorner_join_right.png
p2052
sVS_LRamp
p2053
Vsnow_lramp.png
p2054
sVC_Castle Floor Edge R
p2055
Vcstl_floor_edge_right.png
p2056
sVF_Dirt_L1
p2057
Vdirtl_edge1.png
p2058
sVF_Dirt_L2
p2059
Vdirtl_edge2.png
p2060
sVC_Castle Floor Edge L
p2061
Vcstl_floor_edge_left.png
p2062
sVF_Left_Halframp2
p2063
VL_HR2.png
p2064
sVF_Left_Halframp1
p2065
VL_HR1.png
p2066
sVF_Shrooms2
p2067
Vshrooms2.png
p2068
sVF_Shrooms3
p2069
Vshrooms3.png
p2070
sVF_Shrooms1
p2071
Vshrooms1.png
p2072
sVF_RampJoinL
p2073
Vramp_mid_dirt_l.png
p2074
sVC_Castle Wall->Floor R
p2075
Vcstl_wfright.png
p2076
sVF_RampJoinR
p2077
Vramp_mid_dirt_r.png
p2078
sVF_GrassLedge
p2079
Vgrassl_edge.png
p2080
sVS_Stones
p2081
Vsnow_stones.png
p2082
sVS_edgeright
p2083
Vsnow_edge_right.png
p2084
sVS_edgewright2
p2085
Vsnow_edgewall_right2.png
p2086
sVS_edgewright1
p2087
Vsnow_edgewall_right1.png
p2088
sVF_Dirtb
p2089
Vdirtb.png
p2090
sVF_Right_Ramp
p2091
VR_R.png
p2092
sVF_HalframpJoinL
p2093
Vhalframp_mid_dirt_l.png
p2094
sVF_Dirt_BL
p2095
Vdirtl_bedge.png
p2096
sVF_HalframpJoinR
p2097
Vhalframp_mid_dirt_r.png
p2098
sVF_Dirt_BR
p2099
Vdirtr_bedge.png
p2100
sVF_Dirtb2
p2101
Vdirtb2.png
p2102
sVF_Left_Ramp
p2103
VL_R.png
p2104
sVC_Castle Wall->Floor L
p2105
Vcstl_wfleft.png
p2106
sVS_UCJleft
p2107
Vsnow_undercorner_join_left.png
p2108
sVF_Dirt
p2109
Vdirt.png
p2110
sVF_Grass->DirtL
p2111
Vgrass_dirt_l.png
p2112
sVS_edgeleft
p2113
Vsnow_edge_left.png
p2114
sVF_Dirttop
p2115
Vdirttop.png
p2116
sVF_Dirt_Alt_4
p2117
Vdirtc4.png
p2118
sVF_Dirt_Alt_3
p2119
Vdirtc3.png
p2120
sVF_Dirt_Alt_2
p2121
Vdirtc2.png
p2122
sVF_Dirt_Alt_1
p2123
Vdirtc1.png
p2124
sVF_Grass->DirtR
p2125
Vgrass_dirt_r.png
p2126
sViC_wl2
p2127
Vcavewl2.png
p2128
ssb.