(imapping
Map
p1
(dp2
S'enemy'
p3
(lp4
(lp5
NaNaNaNaNaNaNaNaNaNaNaNaa(lp6
NaNaNaNaNaNaNaNaNaNaNaNaa(lp7
NaNaNaNaNaNaNaNaNaNaNaNaa(lp8
NaNaNaNaNaNaNaNaNaNaNaNaa(lp9
NaNaNaNaNaNaNaNaNaNaNaNaa(lp10
NaNaNaNaNaNaNaNaNaNaNaNaa(lp11
NaNaNaNaNaNaNaNaNaNaNaNaa(lp12
NaNaNaNaNaNaNaNaNaNaNaNaa(lp13
NaNaNaNaNaNaNaNaNaNaNaNaa(lp14
NaNaNaNaNaNaNaNaNaNaNaNaa(lp15
NaNaNaNaNaNaNaNaNaNaNaNaa(lp16
NaNaNaNaNaNaNaNaNaNaNaNaa(lp17
NaNaNaNaNaNaNaNaNaNaNaNaa(lp18
NaNaNaNaNaNaNaNaNaNaNaNaa(lp19
NaNaNaNaNaNaNaNaNaNaNaNaa(lp20
NaNaNaNaNaNaNaNaNaNaNaNaa(lp21
NaNaNaNaNaNaNaNaNaNaNaNaa(lp22
NaNaNaNaNaNaNaNaNaNaNaNaa(lp23
NaNaNaNaNaNaNaNaNaNaNaNaa(lp24
NaNaNaNaNaNaNaNaNaNaNaNaa(lp25
NaNaNaNaNaNaNaNaNaNaNaNaa(lp26
NaNaNaNaNaNaNaNaNaNaNaNaa(lp27
NaNaNaNaNaNaNaNaNaNaNaNaa(lp28
NaNaNaNaNaNaNaNaNaNaNaNaa(lp29
NaNaNaNaNaNaNaNaNaNaNaNaa(lp30
NaNaNaNaNaNaNaNaNaNaNaNaa(lp31
NaNaNaNaNaNaNaNaNaNaNaNaa(lp32
NaNaNaNaNaNaNaNaNaNaNaNaa(lp33
NaNaNaNaNaNaNaNaNaNaNaNaa(lp34
NaNaNaNaNaNaNaNaNaNaNaNaa(lp35
NaNaNaNaNaNaNaNaNaNaNaNaa(lp36
NaNaNaNaNaNaNaNaNaNaNaNaa(lp37
NaNaNaNaNaNaNaNaNaNaNaNaa(lp38
NaNaNaNaNaNaNaNaNaNaNaNaa(lp39
NaNaNaNaNaNaNaNaNaNaNaNaa(lp40
NaNaNaNaNaNaNaNaNaNaNaNaa(lp41
NaNaNaNaNaNaNaNaNaNaNaNaa(lp42
NaNaNaNaNaNaNaNaNaNaNaNaa(lp43
NaNaNaNaNaNaNaNaNaVPoisPod
p44
aNaNaa(lp45
NaNaNaNaNaNaNaNaNaNaNaNaa(lp46
NaNaNaNaNaNaNaNaNaNaNaNaa(lp47
NaNaNaNaNaNaNaNaNaNaNaNaa(lp48
NaNaNaNaNaNaNaNaNaNaNaNaa(lp49
NaNaNaNaNaNaNaNaNaNaNaNaa(lp50
NaNaNaNaNaNaNaNaNaNaNaNaa(lp51
NaNaNaNaNaNaNaNaNaNaNaNaa(lp52
NaNaNaNaNaNaNaNaNaNaNaNaa(lp53
NaNaNaNaNaNaNaNaNaNaNaNaa(lp54
NaNaNaNaNaNaNaNaNaNaNaNaa(lp55
NaNaNaNaNaNaNaNaNaNaNaNaa(lp56
NaNaNaNaNaNaNaNaNaNaNaNaa(lp57
NaNaNaNaNaNaNaNaNaNaNaNaa(lp58
NaNaNaNaNaNaNaNaVPod
p59
aNaNaNaa(lp60
NaNaNaNaNaNaNaNaNaNaNaNaa(lp61
NaNaNaNaNaNaNaNaNaNaNaNaa(lp62
NaNaNaNaNaNaNaNaNaNaNaNaa(lp63
NaNaNaNaNaNaNaNaNaNaNaNaa(lp64
NaNaNaNaNaNaNaNaNaNaNaNaa(lp65
NaNaNaNaNaNaNaNaNaNaNaNaa(lp66
NaNaNaNaNaNaNaNaNaNaNaNaa(lp67
NaNaNaNaNaNaNaNaNaNaNaNaa(lp68
NaNaNaNaNaNaNaNaNaNaNaNaa(lp69
NaNaNaNaNaNaNaNaNaNaNaNaa(lp70
NaNaNaNaNaNaNaNaNaNaNaNaa(lp71
NaNaNaNaNaNaNaNaNaNaNaNaa(lp72
NaNaNaNaNaNaNaNaNaNaNaNaa(lp73
NaNaNaNaNaNaNaNaNaNaNaNaa(lp74
NaNaNaNaNaNaNaNaNaNaNaNaa(lp75
NaNaNaNaNaNaNaNaNaNaNaNaa(lp76
NaNaNaNaNaNaNaNaNaNaNaNaa(lp77
NaNaNaNaNaNaNaNaNaNaNaNaa(lp78
NaNaNaNaNaNaNaNaNaNaNaNaa(lp79
NaNaNaNaNaNaNaNaVWorm
p80
aNaNaNaa(lp81
NaNaNaNaNaNaNaNaNaNaNaNaa(lp82
NaNaNaNaNaNaNaNaNaNaNaNaa(lp83
NaNaNaNaNaNaNaNaNaNaNaNaa(lp84
NaNaNaNaNaNaNaNaNaNaNaNaa(lp85
NaNaNaNaNaNaNaNaNaNaNaNaa(lp86
NaNaNaNaNaNaNaNaNaNaNaNaa(lp87
NaNaNaNaNaNaNaNaNaNaNaNaa(lp88
NaNaNaNaNaNaNaNaNaNaNaNaa(lp89
NaNaNaNaNaNaNaNaNaNaNaNaa(lp90
NaNaNaNaNaNaNaNaNaNaNaNaa(lp91
NaNaNaNaNaNaNaNaNaNaNaNaa(lp92
NaNaNaNaNaNaNaNaNaNaNaNaa(lp93
NaNaNaNaNaNaNaNaNaNaNaNaa(lp94
NaNaNaNaNaNaNaNaNaNaNaNaa(lp95
NaNaNaNaNaNaNaNaNaNaNaNaa(lp96
NaNaNaNaNaNaNaNaNaNaNaNaa(lp97
NaNaNaNaNaNaNaNaNaNaNaNaa(lp98
NaNaNaNaNaNaNaNaNaNaNaNaa(lp99
NaNaNaNaNaNaNaNaNaNaNaNaa(lp100
NaNaNaNaNaNaNaNaNaNaNaNaa(lp101
NaNaNaNaNaNaNaVWasp
p102
aNaNaNaNaa(lp103
NaNaNaNaNaNaNaNaNaNaNaNaa(lp104
NaNaNaNaNaNaNaNaNaNaNaNaa(lp105
NaNaNaNaNaNaNaNaNaNaNaNaa(lp106
NaNaNaNaNaNaNaNaNaNaNaNaa(lp107
NaNaNaNaNaNaNaNaNaNaNaNaa(lp108
NaNaNaNaNaNaNaNaNaNaNaNaa(lp109
NaNaNaNaNaNaNaNaNaNaNaNaa(lp110
NaNaNaNaNaNaNaNaNaNaNaNaa(lp111
NaNaNaNaNaNaNaNaNaVWasp
p112
aNaNaa(lp113
NaNaNaNaNaNaNaNaNaNaNaNaa(lp114
NaNaNaNaNaNaNaNaNaNaNaNaa(lp115
NaNaNaNaNaNaNaNaNaNaNaNaa(lp116
NaNaNaNaNaNaNaNaNaNaNaNaa(lp117
NaNaNaNaNaNaNaNaNaNaNaNaa(lp118
NaNaNaNaNaNaNaNaNaNaNaNaa(lp119
NaNaNaNaNaNaNaNaNaNaNaNaa(lp120
NaNaNaNaNaNaNaNaNaNaNaNaa(lp121
NaNaNaNaNaNaNaNaNaNaNaNaa(lp122
NaNaNaNaNaNaNaNaNaNaNaNaa(lp123
NaNaNaNaNaNaNaNaNaNaNaNaa(lp124
NaNaNaNaNaNaNaNaNaNaNaNaa(lp125
NaNaNaNaNaNaNaNaNaNaNaNaa(lp126
NaNaNaNaNaNaNaNaNaNaNaNaa(lp127
NaNaNaNaNaNaNaNaNaNaNaNaa(lp128
NaNaNaNaNaNaNaNaNaNaNaNaa(lp129
NaNaNaNaNaNaNaNaNaNaNaNaa(lp130
NaNaNaNaNaNaNaNaNaNaNaNaa(lp131
NaNaNaNaNaNaNaNaNaNaNaNaa(lp132
NaNaNaNaNaNaNaNaNaNaNaNaa(lp133
NaNaNaNaNaNaNaNaNaNaNaNaa(lp134
NaNaNaNaNaNaNaNaNaNaNaNaa(lp135
NaNaNaNaNaNaNaNaNaNaNaNaa(lp136
NaNaNaNaNaNaNaNaNaNaNaNaa(lp137
NaNaNaNaNaNaNaNaNaNaNaNaasS'objdef'
p138
(dp139
VButterfly
p140
VButterfly.png
p141
sVLevel_End
p142
VEnd.png
p143
sVShield
p144
VShield.png
p145
sVPlayer_Start
p146
VStart.png
p147
sVLever_Snow
p148
VLever1.png
p149
sVTorchref
p150
VTorchref.png
p151
sVWalltorch
p152
VWalltorch.png
p153
sVFirepit
p154
VPit.png
p155
sVSign
p156
VSign.png
p157
sVButterflyC
p158
VButterflyC.png
p159
sVButterflyB
p160
VButterflyB.png
p161
sVSword
p162
VSword.png
p163
sVTreasureBoxC
p164
VTreasureC_Closed.png
p165
sVTreasureBoxB
p166
VTreasureB_Closed.png
p167
sVTreasureBox
p168
VTreasure_Closed.png
p169
sVFallingRock
p170
VRock.png
p171
sVObelisk_Snow
p172
VObelisk_Snow.png
p173
ssS'obj'
p174
(lp175
(lp176
NaNaNaNaNaNaNaNaNaNaNaNaa(lp177
NaNaNaNaNaNaNaNaNaVButterfly
p178
aVPlayer_Start
p179
aNaa(lp180
NaNaNaNaNaNaNaNaNaNaNaNaa(lp181
NaNaNaNaNaNaNaNaNaNaVSign
p182
aNaa(lp183
NaNaNaNaNaNaNaNaNaNaNaNaa(lp184
NaNaNaNaNaNaNaNaNaNaNaNaa(lp185
NaNaNaNaNaNaNaNaNaNaNaNaa(lp186
NaNaNaNaNaNaNaNaNaNaNaNaa(lp187
NaNaNaNaNaNaNaNaNaNaNaNaa(lp188
NaNaNaNaNaNaNaNaNaNaNaNaa(lp189
NaNaNaNaNaNaNaNaNaVButterfly
p190
aNaNaa(lp191
NaNaNaNaNaNaNaNaNaNaNaNaa(lp192
NaNaNaNaNaNaNaNaNaNaNaNaa(lp193
NaNaNaNaNaNaNaNaNaNaNaNaa(lp194
NaNaNaNaNaNaNaNaNaNaNaNaa(lp195
NaNaNaNaNaNaNaNaNaNaNaNaa(lp196
NaNaNaNaNaNaNaNaNaNaNaNaa(lp197
NaNaNaNaNaNaNaNaNaNaNaNaa(lp198
NaNaNaNaNaNaNaNaNaNaNaNaa(lp199
NaNaNaNaNaNaNaNaNaNaNaNaa(lp200
NaNaNaNaNaNaNaNaNaNaNaNaa(lp201
NaNaNaNaNaNaNaNaNaNaNaNaa(lp202
NaNaNaNaNaNaNaNaNaNaNaNaa(lp203
NaNaNaNaNaNaNaNaNaNaNaNaa(lp204
NaNaNaNaNaNaNaNaNaNaNaNaa(lp205
NaNaNaNaNaNaNaNaNaNaNaNaa(lp206
NaNaNaNaNaNaNaNaNaNaNaNaa(lp207
NaNaNaNaNaNaNaNaNaNaNaNaa(lp208
NaNaNaNaNaNaNaNaNaNaNaNaa(lp209
NaNaNaNaNaNaNaNaNaNaNaNaa(lp210
NaNaNaNaNaNaNaNaNaNaNaNaa(lp211
NaNaNaNaNaNaNaNaNaNaNaNaa(lp212
NaNaNaNaNaNaNaNaNaNaNaNaa(lp213
NaNaNaNaNaNaNaNaNaNaNaNaa(lp214
NaNaNaNaNaNaNaNaNaNaNaNaa(lp215
NaNaNaNaNaNaNaNaNaNaNaNaa(lp216
NaNaNaNaNaNaNaNaNaNaNaNaa(lp217
NaNaNaNaNaNaNaVButterfly
p218
aNaNaNaNaa(lp219
NaNaNaNaNaNaNaNaNaNaNaNaa(lp220
NaNaNaNaNaNaNaNaNaNaNaNaa(lp221
NaNaNaNaNaNaNaNaNaVTreasureBoxC
p222
aNaNaa(lp223
NaNaNaNaNaNaNaNaNaNaNaNaa(lp224
NaNaNaNaNaNaNaNaNaNaNaNaa(lp225
NaNaNaNaNaNaNaNaNaNaNaNaa(lp226
NaNaNaNaNaNaNaNaNaNaNaNaa(lp227
NaNaNaNaNaNaNaNaNaNaNaNaa(lp228
NaNaNaNaNaNaNaNaNaNaNaNaa(lp229
NaNaNaNaNaNaNaNaVObelisk_Snow
p230
aNaNaNaa(lp231
NaNaNaNaNaNaNaNaNaNaNaNaa(lp232
NaNaNaNaNaNaNaNaNaNaNaNaa(lp233
NaNaNaNaNaNaNaNaNaNaNaNaa(lp234
NaNaNaNaNaNaNaNaNaNaNaNaa(lp235
NaNaNaNaNaNaNaNaNaNaNaNaa(lp236
NaNaNaNaNaNaNaNaNaNaNaNaa(lp237
NaNaNaNaNaNaNaNaNaNaNaNaa(lp238
NaNaNaNaNaNaNaNaNaNaNaNaa(lp239
NaNaNaNaNaNaNaNaNaNaNaNaa(lp240
NaNaNaNaNaNaNaVButterfly
p241
aNaNaNaNaa(lp242
NaNaNaNaNaNaNaNaNaNaNaNaa(lp243
NaNaNaNaNaNaNaNaNaNaNaNaa(lp244
NaNaNaNaNaNaNaNaNaNaNaNaa(lp245
NaNaNaNaNaNaNaNaNaNaNaNaa(lp246
NaNaNaNaNaNaNaNaNaNaNaNaa(lp247
NaNaNaNaNaNaNaNaNaNaNaNaa(lp248
NaNaNaNaNaNaNaNaNaNaNaNaa(lp249
NaNaNaNaNaNaNaNaNaNaNaNaa(lp250
NaNaNaNaNaNaNaNaNaNaNaNaa(lp251
NaNaNaNaNaNaNaNaNaNaNaNaa(lp252
NaNaNaNaNaNaNaNaNaNaNaNaa(lp253
NaNaNaNaNaNaNaNaNaNaNaNaa(lp254
NaNaNaNaNaNaNaNaNaNaNaNaa(lp255
NaNaNaNaNaNaNaNaNaNaNaNaa(lp256
NaNaNaNaNaNaNaNaNaNaNaNaa(lp257
NaNaNaNaNaNaNaNaNaNaNaNaa(lp258
NaNaNaNaNaNaNaNaNaNaNaNaa(lp259
NaNaNaNaNaNaNaNaNaNaNaNaa(lp260
NaNaNaNaNaNaNaNaNaNaNaNaa(lp261
NaNaNaNaNaNaNaNaNaNaNaNaa(lp262
NaNaNaNaNaNaNaNaNaNaNaNaa(lp263
NaNaNaNaNaNaNaNaNaNaNaNaa(lp264
NaNaNaNaNaNaNaNaNaNaNaNaa(lp265
NaNaNaNaNaNaNaNaNaNaNaNaa(lp266
NaNaNaNaNaNaNaNaNaNaNaNaa(lp267
NaNaNaNaNaNaNaNaNaNaNaNaa(lp268
NaNaNaNaNaNaNaNaNaNaNaNaa(lp269
NaNaNaNaNaNaNaNaNaNaNaNaa(lp270
NaNaNaNaNaNaNaNaNaNaNaNaa(lp271
NaNaNaNaNaNaNaNaNaNaNaNaa(lp272
NaNaNaNaNaNaNaNaNaNaNaNaa(lp273
NaNaNaNaNaNaNaNaNaNaNaNaa(lp274
NaNaNaNaNaNaNaNaNaNaNaNaa(lp275
NaNaNaNaNaNaNaNaNaNaNaNaa(lp276
NaNaNaNaNaNaNaNaNaNaNaNaa(lp277
NaNaNaNaNaNaNaNaNaNaNaNaa(lp278
NaNaNaNaNaNaNaNaNaNaNaNaa(lp279
NaNaNaNaNaNaNaNaNaNaNaNaa(lp280
NaNaNaNaNaNaNaNaNaNaNaNaa(lp281
NaNaNaNaNaNaNaNaNaNaNaNaa(lp282
NaNaNaNaNaNaNaNaNaNaNaNaa(lp283
NaNaNaNaNaNaNaNaNaVButterfly
p284
aNaNaa(lp285
NaNaNaNaNaNaNaNaNaNaNaNaa(lp286
NaNaNaNaNaNaNaNaNaNaNaNaa(lp287
NaNaNaNaNaNaNaNaNaNaNaNaa(lp288
NaNaNaNaNaNaNaNaNaNaNaNaa(lp289
NaNaNaNaNaNaNaNaVLevel_End
p290
aNaNaNaa(lp291
NaNaNaNaNaNaNaNaNaNaNaNaa(lp292
NaNaNaNaNaNaNaNaNaNaNaNaa(lp293
NaNaNaNaNaNaNaNaNaNaNaNaa(lp294
NaNaNaNaNaNaNaNaNaNaNaNaa(lp295
NaNaNaNaNaNaNaNaNaNaNaNaa(lp296
NaNaNaNaNaNaNaNaNaNaNaNaa(lp297
NaNaNaNaNaNaNaNaNaNaNaNaa(lp298
NaNaNaNaNaNaNaNaNaNaNaNaa(lp299
NaNaNaNaNaNaNaNaNaNaNaNaa(lp300
NaNaNaNaNaNaNaNaNaNaNaNaa(lp301
NaNaNaNaNaNaNaNaNaNaNaNaa(lp302
NaNaNaNaNaNaNaNaNaNaNaNaa(lp303
NaNaNaNaNaNaNaNaNaNaNaNaa(lp304
NaNaNaNaNaNaNaNaNaNaNaNaa(lp305
NaNaNaNaNaNaNaNaNaNaNaNaa(lp306
NaNaNaNaNaNaNaNaNaNaNaNaa(lp307
NaNaNaNaNaNaNaNaNaNaNaNaa(lp308
NaNaNaNaNaNaNaNaNaNaNaNaa(lp309
NaNaNaNaNaNaNaNaNaNaNaNaa(lp310
NaNaNaNaNaNaNaNaNaNaNaNaa(lp311
NaNaNaNaNaNaNaNaNaNaNaNaa(lp312
NaNaNaNaNaNaNaNaNaNaNaNaa(lp313
NaNaNaNaNaNaNaNaNaNaNaNaasS'name'
p314
VSnodom4
p315
sS'map'
p316
(lp317
(lp318
NaNaNaNaNaNaNaNaNaNa(imapping
Tile
p319
(dp320
S'collidetype'
p321
S'NONE'
p322
sS'type'
p323
VS_Tree2
p324
sS'friction'
p325
F1
sS'overhead'
p326
I00
sba(imapping
Tile
p327
(dp328
g321
S'BOX'
p329
sg323
VS_Ground1
p330
sg325
F0.20000000000000001
sg326
I00
sbaa(lp331
NaNaNaNaNaNaNaNaNaNaNa(imapping
Tile
p332
(dp333
g321
g329
sg323
VS_Ground1
p334
sg325
F0.20000000000000001
sg326
I00
sbaa(lp335
NaNaNaNaNaNaNaNaNaNaNa(imapping
Tile
p336
(dp337
g321
g329
sg323
VS_Ground1
p338
sg325
F0.20000000000000001
sg326
I00
sbaa(lp339
NaNaNaNaNaNaNaNaNaNaNa(imapping
Tile
p340
(dp341
g321
g329
sg323
VS_Ground1
p342
sg325
F0.20000000000000001
sg326
I00
sbaa(lp343
NaNaNaNaNaNaNaNaNaNaNa(imapping
Tile
p344
(dp345
g321
g329
sg323
VS_Ground1
p346
sg325
F0.20000000000000001
sg326
I00
sbaa(lp347
NaNaNaNaNaNaNaNaNaNaNa(imapping
Tile
p348
(dp349
g321
g329
sg323
VS_edgeright
p350
sg325
F0.20000000000000001
sg326
I00
sbaa(lp351
NaNaNaNaNaNaNaNaNaNaNaNaa(lp352
NaNaNaNaNaNaNaNaNaNaNa(imapping
Tile
p353
(dp354
g321
g329
sg323
VS_edgeleft
p355
sg325
F0.20000000000000001
sg326
I00
sbaa(lp356
NaNaNaNaNaNaNaNaNaNaNa(imapping
Tile
p357
(dp358
g321
g329
sg323
VS_edgeright
p359
sg325
F0.20000000000000001
sg326
I00
sbaa(lp360
NaNaNaNaNaNaNaNaNaNaNaNaa(lp361
NaNaNaNaNaNaNaNaNaNaNa(imapping
Tile
p362
(dp363
g321
g329
sg323
VS_edgeleft
p364
sg325
F0.20000000000000001
sg326
I00
sbaa(lp365
NaNaNaNaNaNaNaNaNaNaNa(imapping
Tile
p366
(dp367
g321
g329
sg323
VS_edgeright
p368
sg325
F0.20000000000000001
sg326
I00
sbaa(lp369
NaNaNaNaNaNaNaNaNaNaNaNaa(lp370
NaNaNaNaNaNaNaNaNaNaNa(imapping
Tile
p371
(dp372
g321
g329
sg323
VS_edgeleft
p373
sg325
F0.20000000000000001
sg326
I00
sbaa(lp374
NaNaNaNaNaNaNaNaNaNaNa(imapping
Tile
p375
(dp376
g321
g329
sg323
VS_edgeright
p377
sg325
F0.20000000000000001
sg326
I00
sbaa(lp378
NaNaNaNaNaNaNaNaNaNaNaNaa(lp379
NaNaNaNaNaNaNaNaNaNaNaNaa(lp380
NaNaNaNaNaNaNaNaNaNa(imapping
Tile
p381
(dp382
g321
g329
sg323
VS_edgeleft
p383
sg325
F0.20000000000000001
sg326
I00
sba(imapping
Tile
p384
(dp385
g321
g329
sg323
VS_edgewleft2
p386
sg325
F1
sg326
I00
sbaa(lp387
NaNaNaNaNaNaNaNaNaNa(imapping
Tile
p388
(dp389
g321
g329
sg323
VS_edgeright
p390
sg325
F0.20000000000000001
sg326
I00
sba(imapping
Tile
p391
(dp392
g321
g329
sg323
VS_edgewright2
p393
sg325
F0.20000000000000001
sg326
I00
sbaa(lp394
NaNaNaNaNaNaNaNaNaNaNaNaa(lp395
NaNaNaNaNaNaNaNaNaNaNaNaa(lp396
NaNaNaNaNaNaNaNaNaNa(imapping
Tile
p397
(dp398
g321
g329
sg323
VS_edgeleft
p399
sg325
F0.20000000000000001
sg326
I00
sba(imapping
Tile
p400
(dp401
g321
g329
sg323
VS_edgewleft1
p402
sg325
F1
sg326
I00
sbaa(lp403
NaNaNaNaNaNaNaNaNaNa(imapping
Tile
p404
(dp405
g321
g329
sg323
VS_edgeright
p406
sg325
F0.20000000000000001
sg326
I00
sba(imapping
Tile
p407
(dp408
g321
g329
sg323
VS_edgewright1
p409
sg325
F0.20000000000000001
sg326
I00
sbaa(lp410
NaNaNaNaNaNaNaNaNaNaNaNaa(lp411
NaNaNaNaNaNaNaNaNaNaNaNaa(lp412
NaNaNaNaNaNaNaNaNaNa(imapping
Tile
p413
(dp414
g321
g329
sg323
VS_edgeleft
p415
sg325
F0.20000000000000001
sg326
I00
sba(imapping
Tile
p416
(dp417
g321
g329
sg323
VS_edgewleft1
p418
sg325
F1
sg326
I00
sbaa(lp419
NaNaNaNaNaNaNaNaNaNa(imapping
Tile
p420
(dp421
g321
g329
sg323
VS_edgeright
p422
sg325
F0.20000000000000001
sg326
I00
sba(imapping
Tile
p423
(dp424
g321
g329
sg323
VS_edgewright2
p425
sg325
F0.20000000000000001
sg326
I00
sbaa(lp426
NaNaNaNaNaNaNaNaNaNaNaNaa(lp427
NaNaNaNaNaNaNaNaNaNaNaNaa(lp428
NaNaNaNaNaNaNaNaNaNaNaNaa(lp429
NaNaNaNaNaNaNaNaNaNa(imapping
Tile
p430
(dp431
g321
g329
sg323
VS_edgeleft
p432
sg325
F0.20000000000000001
sg326
I00
sba(imapping
Tile
p433
(dp434
g321
g329
sg323
VS_edgewleft1
p435
sg325
F1
sg326
I00
sbaa(lp436
NaNaNaNaNaNaNaNaNaNa(imapping
Tile
p437
(dp438
g321
g329
sg323
VS_edgeright
p439
sg325
F0.20000000000000001
sg326
I00
sba(imapping
Tile
p440
(dp441
g321
g329
sg323
VS_edgewright2
p442
sg325
F0.20000000000000001
sg326
I00
sbaa(lp443
NaNaNaNaNaNaNaNaNaNaNaNaa(lp444
NaNaNaNaNaNaNaNaNaNaNaNaa(lp445
NaNaNaNaNaNaNaNaNaNa(imapping
Tile
p446
(dp447
g321
g329
sg323
VS_edgeleft
p448
sg325
F0.20000000000000001
sg326
I00
sba(imapping
Tile
p449
(dp450
g321
g329
sg323
VS_edgewleft1
p451
sg325
F1
sg326
I00
sbaa(lp452
NaNaNaNaNaNaNaNaNaNa(imapping
Tile
p453
(dp454
g321
g329
sg323
VS_Ground1
p455
sg325
F0.20000000000000001
sg326
I00
sba(imapping
Tile
p456
(dp457
g321
g329
sg323
VS_Snow
p458
sg325
F1
sg326
I00
sbaa(lp459
NaNaNaNaNaNaNaNaNa(imapping
Tile
p460
(dp461
g321
g322
sg323
VS_Tree
p462
sg325
F1
sg326
I00
sba(imapping
Tile
p463
(dp464
g321
g329
sg323
VS_Ground1
p465
sg325
F0.20000000000000001
sg326
I00
sba(imapping
Tile
p466
(dp467
g321
g329
sg323
VS_Snow
p468
sg325
F1
sg326
I00
sbaa(lp469
NaNaNaNaNaNaNaNaNa(imapping
Tile
p470
(dp471
g321
g322
sg323
VS_Railing_1
p472
sg325
F1
sg326
I00
sba(imapping
Tile
p473
(dp474
g321
g329
sg323
VS_Ground1
p475
sg325
F0.20000000000000001
sg326
I00
sba(imapping
Tile
p476
(dp477
g321
g329
sg323
VS_Snow2
p478
sg325
F1
sg326
I00
sbaa(lp479
NaNaNaNaNaNaNaNaNa(imapping
Tile
p480
(dp481
g321
g322
sg323
VS_Railing_2
p482
sg325
F1
sg326
I00
sba(imapping
Tile
p483
(dp484
g321
g329
sg323
VS_Ground1
p485
sg325
F0.20000000000000001
sg326
I00
sba(imapping
Tile
p486
(dp487
g321
g329
sg323
VS_Snow
p488
sg325
F1
sg326
I00
sbaa(lp489
NaNaNaNaNaNaNaNaNa(imapping
Tile
p490
(dp491
g321
g322
sg323
VS_Railing_2
p492
sg325
F1
sg326
I00
sba(imapping
Tile
p493
(dp494
g321
g329
sg323
VS_Ground1
p495
sg325
F0.20000000000000001
sg326
I00
sba(imapping
Tile
p496
(dp497
g321
g329
sg323
VS_Snow
p498
sg325
F1
sg326
I00
sbaa(lp499
NaNaNaNaNaNaNaNaNa(imapping
Tile
p500
(dp501
g321
g322
sg323
VS_Railing_2
p502
sg325
F1
sg326
I00
sba(imapping
Tile
p503
(dp504
g321
g329
sg323
VS_Ground1
p505
sg325
F0.20000000000000001
sg326
I00
sba(imapping
Tile
p506
(dp507
g321
g329
sg323
VS_Snow2
p508
sg325
F1
sg326
I00
sbaa(lp509
NaNaNaNaNaNaNaNaNa(imapping
Tile
p510
(dp511
g321
g322
sg323
VS_Railing_2
p512
sg325
F1
sg326
I00
sba(imapping
Tile
p513
(dp514
g321
g329
sg323
VS_Ground1
p515
sg325
F0.20000000000000001
sg326
I00
sba(imapping
Tile
p516
(dp517
g321
g329
sg323
VS_Snow
p518
sg325
F1
sg326
I00
sbaa(lp519
NaNaNaNaNaNaNaNaNa(imapping
Tile
p520
(dp521
g321
g322
sg323
VS_Railing_R
p522
sg325
F1
sg326
I00
sba(imapping
Tile
p523
(dp524
g321
g329
sg323
VS_Ground1
p525
sg325
F0.20000000000000001
sg326
I00
sba(imapping
Tile
p526
(dp527
g321
g329
sg323
VS_Snow
p528
sg325
F1
sg326
I00
sbaa(lp529
NaNaNaNaNaNaNaNaNaNa(imapping
Tile
p530
(dp531
g321
g329
sg323
VS_Ground1
p532
sg325
F0.20000000000000001
sg326
I00
sba(imapping
Tile
p533
(dp534
g321
g329
sg323
VS_Snow
p535
sg325
F1
sg326
I00
sbaa(lp536
NaNaNaNaNaNaNaNaNaNa(imapping
Tile
p537
(dp538
g321
g329
sg323
VS_Ground1
p539
sg325
F0.20000000000000001
sg326
I00
sba(imapping
Tile
p540
(dp541
g321
g329
sg323
VS_Snow
p542
sg325
F1
sg326
I00
sbaa(lp543
NaNaNaNaNaNaNaNaNa(imapping
Tile
p544
(dp545
g321
S'RIGHT_INCLINATION'
p546
sg323
VS_RRamp
p547
sg325
F0.20000000000000001
sg326
I00
sba(imapping
Tile
p548
(dp549
g321
g329
sg323
VS_bRRamp
p550
sg325
F0.20000000000000001
sg326
I00
sba(imapping
Tile
p551
(dp552
g321
g329
sg323
VS_Snow
p553
sg325
F1
sg326
I00
sbaa(lp554
NaNaNaNaNaNaNaNaNa(imapping
Tile
p555
(dp556
g321
g329
sg323
VS_Ground1
p557
sg325
F0.20000000000000001
sg326
I00
sba(imapping
Tile
p558
(dp559
g321
g329
sg323
VS_Snow
p560
sg325
F1
sg326
I00
sba(imapping
Tile
p561
(dp562
g321
g329
sg323
VS_Snow
p563
sg325
F1
sg326
I00
sbaa(lp564
NaNaNaNaNaNaNaNaNa(imapping
Tile
p565
(dp566
g321
g329
sg323
VS_Ground1
p567
sg325
F0.20000000000000001
sg326
I00
sba(imapping
Tile
p568
(dp569
g321
g329
sg323
VS_Snow2
p570
sg325
F1
sg326
I00
sba(imapping
Tile
p571
(dp572
g321
g329
sg323
VS_Snow
p573
sg325
F1
sg326
I00
sbaa(lp574
NaNaNaNaNaNaNaNaNa(imapping
Tile
p575
(dp576
g321
g329
sg323
VS_Ground1
p577
sg325
F0.20000000000000001
sg326
I00
sba(imapping
Tile
p578
(dp579
g321
g329
sg323
VS_Snow
p580
sg325
F1
sg326
I00
sba(imapping
Tile
p581
(dp582
g321
g329
sg323
VS_Snow2
p583
sg325
F1
sg326
I00
sbaa(lp584
NaNaNaNaNaNaNaNa(imapping
Tile
p585
(dp586
g321
g322
sg323
VS_Tree2
p587
sg325
F1
sg326
I00
sba(imapping
Tile
p588
(dp589
g321
g329
sg323
VS_Ground1
p590
sg325
F0.20000000000000001
sg326
I00
sba(imapping
Tile
p591
(dp592
g321
g329
sg323
VS_Snow
p593
sg325
F1
sg326
I00
sba(imapping
Tile
p594
(dp595
g321
g329
sg323
VS_Snow
p596
sg325
F1
sg326
I00
sbaa(lp597
NaNaNaNaNaNaNaNaNa(imapping
Tile
p598
(dp599
g321
g329
sg323
VS_Ground1
p600
sg325
F0.20000000000000001
sg326
I00
sba(imapping
Tile
p601
(dp602
g321
g329
sg323
VS_Snow
p603
sg325
F1
sg326
I00
sba(imapping
Tile
p604
(dp605
g321
g329
sg323
VS_Snow2
p606
sg325
F1
sg326
I00
sbaa(lp607
NaNaNaNaNaNaNaNaNa(imapping
Tile
p608
(dp609
g321
g329
sg323
VS_Ground1
p610
sg325
F0.20000000000000001
sg326
I00
sba(imapping
Tile
p611
(dp612
g321
g329
sg323
VS_Snow
p613
sg325
F1
sg326
I00
sba(imapping
Tile
p614
(dp615
g321
g329
sg323
VS_Snow
p616
sg325
F1
sg326
I00
sbaa(lp617
NaNaNaNaNaNaNaNaNa(imapping
Tile
p618
(dp619
g321
g329
sg323
VS_Ground1
p620
sg325
F0.20000000000000001
sg326
I00
sba(imapping
Tile
p621
(dp622
g321
g329
sg323
VS_Snow
p623
sg325
F1
sg326
I00
sba(imapping
Tile
p624
(dp625
g321
g329
sg323
VS_Snow
p626
sg325
F1
sg326
I00
sbaa(lp627
NaNaNaNaNaNaNaNaNa(imapping
Tile
p628
(dp629
g321
g329
sg323
VS_Ground1
p630
sg325
F0.20000000000000001
sg326
I00
sba(imapping
Tile
p631
(dp632
g321
g329
sg323
VS_Snow
p633
sg325
F1
sg326
I00
sba(imapping
Tile
p634
(dp635
g321
g329
sg323
VS_Snow
p636
sg325
F1
sg326
I00
sbaa(lp637
NaNaNaNaNaNaNaNa(imapping
Tile
p638
(dp639
g321
g322
sg323
VS_Tree2
p640
sg325
F1
sg326
I00
sba(imapping
Tile
p641
(dp642
g321
g329
sg323
VS_Ground1
p643
sg325
F0.20000000000000001
sg326
I00
sba(imapping
Tile
p644
(dp645
g321
g329
sg323
VS_Snow
p646
sg325
F1
sg326
I00
sba(imapping
Tile
p647
(dp648
g321
g329
sg323
VS_Snow
p649
sg325
F1
sg326
I00
sbaa(lp650
NaNaNaNaNaNaNaNaNa(imapping
Tile
p651
(dp652
g321
g329
sg323
VS_Ground1
p653
sg325
F0.20000000000000001
sg326
I00
sba(imapping
Tile
p654
(dp655
g321
g329
sg323
VS_Snow
p656
sg325
F1
sg326
I00
sba(imapping
Tile
p657
(dp658
g321
g329
sg323
VS_Snow
p659
sg325
F1
sg326
I00
sbaa(lp660
NaNaNaNaNaNaNaNa(imapping
Tile
p661
(dp662
g321
g322
sg323
VS_Tree
p663
sg325
F1
sg326
I00
sba(imapping
Tile
p664
(dp665
g321
g329
sg323
VS_Ground1
p666
sg325
F0.20000000000000001
sg326
I00
sba(imapping
Tile
p667
(dp668
g321
g329
sg323
VS_Snow
p669
sg325
F1
sg326
I00
sba(imapping
Tile
p670
(dp671
g321
g329
sg323
VS_Snow
p672
sg325
F1
sg326
I00
sbaa(lp673
NaNaNaNaNaNaNaNaNa(imapping
Tile
p674
(dp675
g321
g329
sg323
VS_Ground1
p676
sg325
F0.20000000000000001
sg326
I00
sba(imapping
Tile
p677
(dp678
g321
g329
sg323
VS_Snow
p679
sg325
F1
sg326
I00
sba(imapping
Tile
p680
(dp681
g321
g329
sg323
VS_Snow
p682
sg325
F1
sg326
I00
sbaa(lp683
NaNaNaNaNaNaNaNa(imapping
Tile
p684
(dp685
g321
g322
sg323
VS_Tree2
p686
sg325
F1
sg326
I00
sba(imapping
Tile
p687
(dp688
g321
g329
sg323
VS_Ground1
p689
sg325
F0.20000000000000001
sg326
I00
sba(imapping
Tile
p690
(dp691
g321
g329
sg323
VS_Snow
p692
sg325
F1
sg326
I00
sba(imapping
Tile
p693
(dp694
g321
g329
sg323
VS_Snow
p695
sg325
F1
sg326
I00
sbaa(lp696
NaNaNaNaNaNaNaNaNa(imapping
Tile
p697
(dp698
g321
g329
sg323
VS_Ground1
p699
sg325
F0.20000000000000001
sg326
I00
sba(imapping
Tile
p700
(dp701
g321
g329
sg323
VS_Snow
p702
sg325
F1
sg326
I00
sba(imapping
Tile
p703
(dp704
g321
g329
sg323
VS_Snow
p705
sg325
F1
sg326
I00
sbaa(lp706
NaNaNaNaNaNaNaNaNa(imapping
Tile
p707
(dp708
g321
g329
sg323
VS_Ground1
p709
sg325
F0.20000000000000001
sg326
I00
sba(imapping
Tile
p710
(dp711
g321
g329
sg323
VS_Snow
p712
sg325
F1
sg326
I00
sba(imapping
Tile
p713
(dp714
g321
g329
sg323
VS_Snow
p715
sg325
F1
sg326
I00
sbaa(lp716
NaNaNaNaNaNaNaNaNa(imapping
Tile
p717
(dp718
g321
g329
sg323
VS_edgeright
p719
sg325
F0.20000000000000001
sg326
I00
sba(imapping
Tile
p720
(dp721
g321
g329
sg323
VS_edgewright2
p722
sg325
F0.20000000000000001
sg326
I00
sba(imapping
Tile
p723
(dp724
g321
g329
sg323
VS_edgewright2
p725
sg325
F0.20000000000000001
sg326
I00
sbaa(lp726
NaNaNaNaNaNaNaNaNaNaNaNaa(lp727
NaNaNaNaNaNaNaNaNaNaNaNaa(lp728
NaNaNaNaNaNaNaNaNaNaNaNaa(lp729
NaNaNaNaNaNaNaNaNaNaNaNaa(lp730
NaNaNaNaNaNaNaNa(imapping
Tile
p731
(dp732
g321
g329
sg323
VS_edgeleft
p733
sg325
F0.20000000000000001
sg326
I00
sba(imapping
Tile
p734
(dp735
g321
g329
sg323
VS_edgewleft2
p736
sg325
F1
sg326
I00
sba(imapping
Tile
p737
(dp738
g321
g329
sg323
VS_edgewleft1
p739
sg325
F1
sg326
I00
sba(imapping
Tile
p740
(dp741
g321
g329
sg323
VS_edgewleft1
p742
sg325
F1
sg326
I00
sbaa(lp743
NaNaNaNaNaNaNaNa(imapping
Tile
p744
(dp745
g321
g329
sg323
VS_edgeright
p746
sg325
F0.20000000000000001
sg326
I00
sba(imapping
Tile
p747
(dp748
g321
g329
sg323
VS_ECleft
p749
sg325
F0.20000000000000001
sg326
I00
sba(imapping
Tile
p750
(dp751
g321
g329
sg323
VS_Snow
p752
sg325
F1
sg326
I00
sba(imapping
Tile
p753
(dp754
g321
g329
sg323
VS_Snow
p755
sg325
F1
sg326
I00
sbaa(lp756
NaNaNaNaNaNaNaNaNa(imapping
Tile
p757
(dp758
g321
g329
sg323
VS_Ground1
p759
sg325
F0.20000000000000001
sg326
I00
sba(imapping
Tile
p760
(dp761
g321
g329
sg323
VS_Snow
p762
sg325
F1
sg326
I00
sba(imapping
Tile
p763
(dp764
g321
g329
sg323
VS_Snow
p765
sg325
F1
sg326
I00
sbaa(lp766
NaNaNaNaNaNaNaNaNa(imapping
Tile
p767
(dp768
g321
g329
sg323
VS_Ground1
p769
sg325
F0.20000000000000001
sg326
I00
sba(imapping
Tile
p770
(dp771
g321
g329
sg323
VS_Snow
p772
sg325
F1
sg326
I00
sba(imapping
Tile
p773
(dp774
g321
g329
sg323
VS_Snow
p775
sg325
F1
sg326
I00
sbaa(lp776
NaNaNaNaNaNaNaNaNa(imapping
Tile
p777
(dp778
g321
g329
sg323
VS_Ground1
p779
sg325
F0.20000000000000001
sg326
I00
sba(imapping
Tile
p780
(dp781
g321
g329
sg323
VS_Snow
p782
sg325
F1
sg326
I00
sba(imapping
Tile
p783
(dp784
g321
g329
sg323
VS_Snow
p785
sg325
F1
sg326
I00
sbaa(lp786
NaNaNaNaNaNaNaNaNa(imapping
Tile
p787
(dp788
g321
g329
sg323
VS_Ground1
p789
sg325
F0.20000000000000001
sg326
I00
sba(imapping
Tile
p790
(dp791
g321
g329
sg323
VS_Snow
p792
sg325
F1
sg326
I00
sba(imapping
Tile
p793
(dp794
g321
g329
sg323
VS_Snow
p795
sg325
F1
sg326
I00
sbaa(lp796
NaNaNaNaNaNaNaNaNa(imapping
Tile
p797
(dp798
g321
g329
sg323
VS_Ground1
p799
sg325
F0.20000000000000001
sg326
I00
sba(imapping
Tile
p800
(dp801
g321
g329
sg323
VS_Snow
p802
sg325
F1
sg326
I00
sba(imapping
Tile
p803
(dp804
g321
g329
sg323
VS_Snow
p805
sg325
F1
sg326
I00
sbaa(lp806
NaNaNaNaNaNaNaNa(imapping
Tile
p807
(dp808
g321
g329
sg323
VS_edgeleft
p809
sg325
F0.20000000000000001
sg326
I00
sba(imapping
Tile
p810
(dp811
g321
g329
sg323
VS_ECright
p812
sg325
F0.20000000000000001
sg326
I00
sba(imapping
Tile
p813
(dp814
g321
g329
sg323
VS_Snow
p815
sg325
F1
sg326
I00
sba(imapping
Tile
p816
(dp817
g321
g329
sg323
VS_Snow
p818
sg325
F1
sg326
I00
sbaa(lp819
NaNaNaNaNaNaNaNa(imapping
Tile
p820
(dp821
g321
g329
sg323
VS_edgeright
p822
sg325
F0.20000000000000001
sg326
I00
sba(imapping
Tile
p823
(dp824
g321
g329
sg323
VS_edgewright1
p825
sg325
F0.20000000000000001
sg326
I00
sba(imapping
Tile
p826
(dp827
g321
g329
sg323
VS_edgewright2
p828
sg325
F0.20000000000000001
sg326
I00
sba(imapping
Tile
p829
(dp830
g321
g329
sg323
VS_edgewright1
p831
sg325
F0.20000000000000001
sg326
I00
sbaa(lp832
NaNaNaNaNaNaNaNaNaNaNaNaa(lp833
NaNaNaNaNaNaNaNaNaNaNaNaa(lp834
NaNaNaNaNaNaNaNaNaNaNaNaa(lp835
NaNaNaNaNaNaNaNaNaNaNaNaa(lp836
NaNaNaNaNaNaNaNaNaNaNa(imapping
Tile
p837
(dp838
g321
g546
sg323
VS_RRamp
p839
sg325
F0.20000000000000001
sg326
I00
sbaa(lp840
NaNaNaNaNaNaNaNaNaNa(imapping
Tile
p841
(dp842
g321
g329
sg323
VS_edgeleft
p843
sg325
F0.20000000000000001
sg326
I00
sba(imapping
Tile
p844
(dp845
g321
g329
sg323
VS_ECright
p846
sg325
F0.20000000000000001
sg326
I00
sbaa(lp847
NaNaNaNaNaNaNaNaNaNa(imapping
Tile
p848
(dp849
g321
g329
sg323
VS_Ground1
p850
sg325
F0.20000000000000001
sg326
I00
sba(imapping
Tile
p851
(dp852
g321
g329
sg323
VS_Snow
p853
sg325
F1
sg326
I00
sbaa(lp854
NaNaNaNaNaNaNaNaNa(imapping
Tile
p855
(dp856
g321
g546
sg323
VS_RRamp
p857
sg325
F0.20000000000000001
sg326
I00
sba(imapping
Tile
p858
(dp859
g321
g329
sg323
VS_bRRamp
p860
sg325
F0.20000000000000001
sg326
I00
sba(imapping
Tile
p861
(dp862
g321
g329
sg323
VS_Snow
p863
sg325
F1
sg326
I00
sbaa(lp864
NaNaNaNaNaNaNaNa(imapping
Tile
p865
(dp866
g321
g546
sg323
VS_RRamp
p867
sg325
F0.20000000000000001
sg326
I00
sba(imapping
Tile
p868
(dp869
g321
g329
sg323
VS_bRRamp
p870
sg325
F0.20000000000000001
sg326
I00
sba(imapping
Tile
p871
(dp872
g321
g329
sg323
VS_Snow
p873
sg325
F1
sg326
I00
sba(imapping
Tile
p874
(dp875
g321
g329
sg323
VS_Snow
p876
sg325
F1
sg326
I00
sbaa(lp877
NaNaNaNaNaNaNaNa(imapping
Tile
p878
(dp879
g321
g329
sg323
VS_edgeright
p880
sg325
F0.20000000000000001
sg326
I00
sba(imapping
Tile
p881
(dp882
g321
g329
sg323
VS_edgewright1
p883
sg325
F0.20000000000000001
sg326
I00
sba(imapping
Tile
p884
(dp885
g321
g329
sg323
VS_edgewright2
p886
sg325
F0.20000000000000001
sg326
I00
sba(imapping
Tile
p887
(dp888
g321
g329
sg323
VS_edgewright2
p889
sg325
F0.20000000000000001
sg326
I00
sbaa(lp890
NaNaNaNaNaNaNaNaNaNaNaNaa(lp891
NaNaNaNaNaNaNaNa(imapping
Tile
p892
(dp893
g321
g329
sg323
VS_edgeleft
p894
sg325
F0.20000000000000001
sg326
I00
sba(imapping
Tile
p895
(dp896
g321
g329
sg323
VS_edgewleft2
p897
sg325
F1
sg326
I00
sba(imapping
Tile
p898
(dp899
g321
g329
sg323
VS_edgewleft2
p900
sg325
F1
sg326
I00
sba(imapping
Tile
p901
(dp902
g321
g329
sg323
VS_edgewleft1
p903
sg325
F1
sg326
I00
sbaa(lp904
NaNaNaNaNaNaNaNa(imapping
Tile
p905
(dp906
g321
g329
sg323
VS_Ground1
p907
sg325
F0.20000000000000001
sg326
I00
sba(imapping
Tile
p908
(dp909
g321
g329
sg323
VS_Snow
p910
sg325
F1
sg326
I00
sba(imapping
Tile
p911
(dp912
g321
g329
sg323
VS_Snow
p913
sg325
F1
sg326
I00
sba(imapping
Tile
p914
(dp915
g321
g329
sg323
VS_Snow
p916
sg325
F1
sg326
I00
sbaa(lp917
NaNaNaNaNaNaNaNa(imapping
Tile
p918
(dp919
g321
g329
sg323
VS_Ground1
p920
sg325
F0.20000000000000001
sg326
I00
sba(imapping
Tile
p921
(dp922
g321
g329
sg323
VS_Snow
p923
sg325
F1
sg326
I00
sba(imapping
Tile
p924
(dp925
g321
g329
sg323
VS_Snow
p926
sg325
F1
sg326
I00
sba(imapping
Tile
p927
(dp928
g321
g329
sg323
VS_Snow
p929
sg325
F1
sg326
I00
sbaa(lp930
NaNaNaNaNaNaNaNa(imapping
Tile
p931
(dp932
g321
g329
sg323
VS_Ground1
p933
sg325
F0.20000000000000001
sg326
I00
sba(imapping
Tile
p934
(dp935
g321
g329
sg323
VS_Snow
p936
sg325
F1
sg326
I00
sba(imapping
Tile
p937
(dp938
g321
g329
sg323
VS_Snow
p939
sg325
F1
sg326
I00
sba(imapping
Tile
p940
(dp941
g321
g329
sg323
VS_Snow
p942
sg325
F1
sg326
I00
sbaa(lp943
NaNaNaNaNaNaNaNa(imapping
Tile
p944
(dp945
g321
g329
sg323
VS_edgeright
p946
sg325
F0.20000000000000001
sg326
I00
sba(imapping
Tile
p947
(dp948
g321
g329
sg323
VS_edgewright1
p949
sg325
F0.20000000000000001
sg326
I00
sba(imapping
Tile
p950
(dp951
g321
g329
sg323
VS_edgewright2
p952
sg325
F0.20000000000000001
sg326
I00
sba(imapping
Tile
p953
(dp954
g321
g329
sg323
VS_ECleft
p955
sg325
F0.20000000000000001
sg326
I00
sbaa(lp956
NaNaNaNaNaNaNaNaNaNaNa(imapping
Tile
p957
(dp958
g321
S'LEFT_INCLINATION'
p959
sg323
VS_LRamp
p960
sg325
F0.20000000000000001
sg326
I00
sbaa(lp961
NaNaNaNaNaNaNaNaNaNaNaNaa(lp962
NaNaNaNaNaNaNaNaNaNaNaNaa(lp963
NaNaNaNaNaNaNaNaNaNaNaNaa(lp964
NaNaNaNaNaNaNaNa(imapping
Tile
p965
(dp966
g321
g329
sg323
VS_edgeleft
p967
sg325
F0.20000000000000001
sg326
I00
sba(imapping
Tile
p968
(dp969
g321
g329
sg323
VS_edgewleft1
p970
sg325
F1
sg326
I00
sba(imapping
Tile
p971
(dp972
g321
g329
sg323
VS_edgewleft1
p973
sg325
F1
sg326
I00
sba(imapping
Tile
p974
(dp975
g321
g329
sg323
VS_edgewleft1
p976
sg325
F1
sg326
I00
sbaa(lp977
NaNaNaNaNaNaNaNa(imapping
Tile
p978
(dp979
g321
g959
sg323
VS_LRamp
p980
sg325
F0.20000000000000001
sg326
I00
sba(imapping
Tile
p981
(dp982
g321
g329
sg323
VS_bLRamp
p983
sg325
F0.20000000000000001
sg326
I00
sba(imapping
Tile
p984
(dp985
g321
g329
sg323
VS_Snow
p986
sg325
F1
sg326
I00
sba(imapping
Tile
p987
(dp988
g321
g329
sg323
VS_Snow
p989
sg325
F1
sg326
I00
sbaa(lp990
NaNaNaNaNaNaNaNaNa(imapping
Tile
p991
(dp992
g321
g959
sg323
VS_LRamp
p993
sg325
F0.20000000000000001
sg326
I00
sba(imapping
Tile
p994
(dp995
g321
g329
sg323
VS_bLRamp
p996
sg325
F0.20000000000000001
sg326
I00
sba(imapping
Tile
p997
(dp998
g321
g329
sg323
VS_Snow
p999
sg325
F1
sg326
I00
sbaa(lp1000
NaNaNaNaNaNaNaNaNaNa(imapping
Tile
p1001
(dp1002
g321
g959
sg323
VS_LRamp
p1003
sg325
F0.20000000000000001
sg326
I00
sba(imapping
Tile
p1004
(dp1005
g321
g329
sg323
VS_bLRamp
p1006
sg325
F0.20000000000000001
sg326
I00
sbaa(lp1007
NaNaNaNaNaNaNaNaNaNaNa(imapping
Tile
p1008
(dp1009
g321
g329
sg323
VS_Ground1
p1010
sg325
F0.20000000000000001
sg326
I00
sbaa(lp1011
NaNaNaNaNaNaNaNaNaNa(imapping
Tile
p1012
(dp1013
g321
g322
sg323
VS_Tree
p1014
sg325
F1
sg326
I00
sba(imapping
Tile
p1015
(dp1016
g321
g329
sg323
VS_Ground1
p1017
sg325
F0.20000000000000001
sg326
I00
sbaa(lp1018
NaNaNaNaNaNaNaNaNaNaNa(imapping
Tile
p1019
(dp1020
g321
g329
sg323
VS_Ground1
p1021
sg325
F0.20000000000000001
sg326
I00
sbaa(lp1022
NaNaNaNaNaNaNaNaNaNaNa(imapping
Tile
p1023
(dp1024
g321
g329
sg323
VS_Ground1
p1025
sg325
F0.20000000000000001
sg326
I00
sbaa(lp1026
NaNaNaNaNaNaNaNaNaNaNa(imapping
Tile
p1027
(dp1028
g321
g329
sg323
VS_Ground1
p1029
sg325
F0.20000000000000001
sg326
I00
sbaa(lp1030
NaNaNaNaNaNaNaNaNaNaNa(imapping
Tile
p1031
(dp1032
g321
g329
sg323
VS_Ground1
p1033
sg325
F0.20000000000000001
sg326
I00
sbaa(lp1034
NaNaNaNaNaNaNaNaNaNaNa(imapping
Tile
p1035
(dp1036
g321
g329
sg323
VS_Ground1
p1037
sg325
F0.20000000000000001
sg326
I00
sbaa(lp1038
NaNaNaNaNaNaNaNaNaNa(imapping
Tile
p1039
(dp1040
g321
g322
sg323
VS_Tree2
p1041
sg325
F1
sg326
I00
sba(imapping
Tile
p1042
(dp1043
g321
g329
sg323
VS_Ground1
p1044
sg325
F0.20000000000000001
sg326
I00
sbaa(lp1045
NaNaNaNaNaNaNaNaNaNa(imapping
Tile
p1046
(dp1047
g321
g322
sg323
VS_Tree2
p1048
sg325
F1
sg326
I00
sba(imapping
Tile
p1049
(dp1050
g321
g329
sg323
VS_Ground1
p1051
sg325
F0.20000000000000001
sg326
I00
sbaa(lp1052
NaNaNaNaNaNaNaNaNaNa(imapping
Tile
p1053
(dp1054
g321
g322
sg323
VS_Tree2
p1055
sg325
F1
sg326
I00
sba(imapping
Tile
p1056
(dp1057
g321
g329
sg323
VS_Ground1
p1058
sg325
F0.20000000000000001
sg326
I00
sbaa(lp1059
NaNaNaNaNaNaNaNaNaNa(imapping
Tile
p1060
(dp1061
g321
g322
sg323
VS_Tree
p1062
sg325
F1
sg326
I00
sba(imapping
Tile
p1063
(dp1064
g321
g329
sg323
VS_Ground1
p1065
sg325
F0.20000000000000001
sg326
I00
sbaa(lp1066
NaNaNaNaNaNaNaNaNaNaNa(imapping
Tile
p1067
(dp1068
g321
g329
sg323
VS_Ground1
p1069
sg325
F0.20000000000000001
sg326
I00
sbaa(lp1070
NaNaNaNaNaNaNaNaNaNaNa(imapping
Tile
p1071
(dp1072
g321
g329
sg323
VS_Ground1
p1073
sg325
F0.20000000000000001
sg326
I00
sbaa(lp1074
NaNaNaNaNaNaNaNaNaNaNa(imapping
Tile
p1075
(dp1076
g321
g329
sg323
VS_Ground1
p1077
sg325
F0.20000000000000001
sg326
I00
sbaa(lp1078
NaNaNaNaNaNaNaNaNaNaNa(imapping
Tile
p1079
(dp1080
g321
g329
sg323
VS_Ground1
p1081
sg325
F0.20000000000000001
sg326
I00
sbaa(lp1082
NaNaNaNaNaNaNaNaNaNaNa(imapping
Tile
p1083
(dp1084
g321
g329
sg323
VS_Ground1
p1085
sg325
F0.20000000000000001
sg326
I00
sbaa(lp1086
NaNaNaNaNaNaNaNaNaNaNa(imapping
Tile
p1087
(dp1088
g321
g329
sg323
VS_Ground1
p1089
sg325
F0.20000000000000001
sg326
I00
sbaa(lp1090
NaNaNaNaNaNaNaNaNaNaNa(imapping
Tile
p1091
(dp1092
g321
g329
sg323
VS_Ground1
p1093
sg325
F0.20000000000000001
sg326
I00
sbaa(lp1094
NaNaNaNaNaNaNaNaNaNaNa(imapping
Tile
p1095
(dp1096
g321
g329
sg323
VS_Ground1
p1097
sg325
F0.20000000000000001
sg326
I00
sbaa(lp1098
NaNaNaNaNaNaNaNaNaNaNaNaa(lp1099
NaNaNaNaNaNaNaNaNaNaNaNaa(lp1100
NaNaNaNaNaNaNaNaNaNaNaNaa(lp1101
NaNaNaNaNaNaNaNaNaNaNaNaa(lp1102
NaNaNaNaNaNaNaNaNaNaNaNaa(lp1103
NaNaNaNaNaNaNaNaNaNaNaNaa(lp1104
NaNaNaNaNaNaNaNaNaNaNaNaa(lp1105
NaNaNaNaNaNaNaNaNaNaNaNaa(lp1106
NaNaNaNaNaNaNaNaNaNaNaNaa(lp1107
NaNaNaNaNaNaNaNaNaNaNaNaasS'bgmusic'
p1108
VSnodom.ogg
p1109
sS'theme'
p1110
VSnow
p1111
sS'endef'
p1112
(dp1113
VBoss_Radkelu
p1114
Vboss_radkelu
p1115
sVCSpider
p1116
Vcspider
p1117
sVSnowOgre
p1118
Vsnowogre
p1119
sVWasp
p1120
Vwasp
p1121
sVPoisPod
p1122
Vpoispod
p1123
sVSpider
p1124
Vspider
p1125
sVSnowBat
p1126
Vsnowbat
p1127
sVWorm
p1128
Vworm
p1129
sVGiantJelly
p1130
Vgiantjelly
p1131
sVPod
p1132
Vpod
p1133
sVGiantWorm
p1134
Vgiantworm
p1135
ssS'tiledef'
p1136
(dp1137
VS_bLRamp
p1138
Vsnow_blramp.png
p1139
sViC_Ice
p1140
Vcaveice.png
p1141
sVF_Dirt_R2
p1142
Vdirtr_edge2.png
p1143
sVF_Dirt_R1
p1144
Vdirtr_edge1.png
p1145
sVS_Railing_1
p1146
Vsnow_railing1.png
p1147
sVS_Railing_2
p1148
Vsnow_railing2.png
p1149
sVC_Suit of Armour
p1150
Vsuit_armour.png
p1151
sVS_UCleft
p1152
Vsnow_undercorner_left.png
p1153
sVF_Right_Halframp1
p1154
VR_HR1.png
p1155
sVF_Right_Halframp2
p1156
VR_HR2.png
p1157
sVF_GrassRedge
p1158
Vgrassr_edge.png
p1159
sVS_ECleft
p1160
Vsnow_edgecorner_left.png
p1161
sViC_wr2
p1162
Vcavewr2.png
p1163
sVF_Tuft1
p1164
Vtuft1.png
p1165
sVF_Tuft2
p1166
Vtuft2.png
p1167
sVS_Tree
p1168
Vsnow_tree.png
p1169
sVF_Grass
p1170
Vgrass.png
p1171
sVS_Railing_L
p1172
Vsnow_railing_left.png
p1173
sVC_Castle HRR
p1174
Vcstl_hr_r.png
p1175
sVS_RRamp
p1176
Vsnow_rramp.png
p1177
sVC_Castle HRL
p1178
Vcstl_hr_l.png
p1179
sVS_Pillar
p1180
Vsnow_pillar.png
p1181
sVS_Railing_R
p1182
Vsnow_railing_right.png
p1183
sVS_Tree2
p1184
Vsnow_tree2.png
p1185
sVS_Ground1
p1186
Vsnow_ground1.png
p1187
sVF_Stump
p1188
Vtreestump.png
p1189
sVC_Castle Ground 2
p1190
Vcstl_ground2.png
p1191
sVC_Castle Ground 3
p1192
Vcstl_ground3.png
p1193
sVC_Castle Ground 1
p1194
Vcstl_ground1.png
p1195
sVS_Snow2
p1196
Vsnow_snow2.png
p1197
sVF_Grass_Alt_5
p1198
Vgrassc5.png
p1199
sViC_jl
p1200
Vcavejl.png
p1201
sVS_bRRamp
p1202
Vsnow_brramp.png
p1203
sViC_TopL
p1204
Vcavetl.png
p1205
sViC_Floor 1
p1206
Vcavefloor1.png
p1207
sViC_Floor 3
p1208
Vcavefloor3.png
p1209
sViC_Floor 2
p1210
Vcavefloor2.png
p1211
sViC_TopR
p1212
Vcavetr.png
p1213
sViC_jr
p1214
Vcavejr.png
p1215
sVC_Castle Floor 2
p1216
Vcstl_floor2.png
p1217
sVS_Snow
p1218
Vsnow_snow.png
p1219
sVF_Grass_Alt_2
p1220
Vgrassc2.png
p1221
sVF_ExitSign
p1222
Vexitsign.png
p1223
sVF_Grass->Dirttop
p1224
Vgrassmdirt.png
p1225
sVS_UCright
p1226
Vsnow_undercorner_right.png
p1227
sVS_Pillartop
p1228
Vsnow_pillartop.png
p1229
sViC_wr
p1230
Vcavewr.png
p1231
sVF_Dirttop->Grass
p1232
Vdirtmgrass.png
p1233
sVS_ECright
p1234
Vsnow_edgecorner_right.png
p1235
sVC_Castle HRmL
p1236
Vcstl_hr_m_l.png
p1237
sVC_Castle Wall L
p1238
Vcstl_wleft.png
p1239
sVC_Castle Wall R
p1240
Vcstl_wright.png
p1241
sVC_Castle HRmR
p1242
Vcstl_hr_m_r.png
p1243
sVF_Ice
p1244
Vtile5.png
p1245
sViC_wl
p1246
Vcavewl.png
p1247
sVC_Castle Floor 4
p1248
Vcstl_floor4.png
p1249
sVF_Grass_Alt_4
p1250
Vgrassc4.png
p1251
sVF_Grass_Alt_1
p1252
Vgrassc1.png
p1253
sVC_Castle Floor 1
p1254
Vcstl_floor1.png
p1255
sVF_Grass_Alt_3
p1256
Vgrassc3.png
p1257
sVC_Castle Floor 3
p1258
Vcstl_floor3.png
p1259
sVS_edgewleft1
p1260
Vsnow_edgewall_left1.png
p1261
sVS_edgewleft2
p1262
Vsnow_edgewall_left2.png
p1263
sVS_UCJright
p1264
Vsnow_undercorner_join_right.png
p1265
sVS_LRamp
p1266
Vsnow_lramp.png
p1267
sVC_Castle Floor Edge R
p1268
Vcstl_floor_edge_right.png
p1269
sVF_Dirt_L1
p1270
Vdirtl_edge1.png
p1271
sVF_Dirt_L2
p1272
Vdirtl_edge2.png
p1273
sVC_Castle Floor Edge L
p1274
Vcstl_floor_edge_left.png
p1275
sVF_Left_Halframp2
p1276
VL_HR2.png
p1277
sVF_Left_Halframp1
p1278
VL_HR1.png
p1279
sVF_Shrooms2
p1280
Vshrooms2.png
p1281
sVF_Shrooms3
p1282
Vshrooms3.png
p1283
sVF_Shrooms1
p1284
Vshrooms1.png
p1285
sVF_RampJoinL
p1286
Vramp_mid_dirt_l.png
p1287
sVC_Castle Wall->Floor R
p1288
Vcstl_wfright.png
p1289
sVF_RampJoinR
p1290
Vramp_mid_dirt_r.png
p1291
sVF_GrassLedge
p1292
Vgrassl_edge.png
p1293
sVS_Stones
p1294
Vsnow_stones.png
p1295
sVS_edgeright
p1296
Vsnow_edge_right.png
p1297
sVS_edgewright2
p1298
Vsnow_edgewall_right2.png
p1299
sVS_edgewright1
p1300
Vsnow_edgewall_right1.png
p1301
sVF_Dirtb
p1302
Vdirtb.png
p1303
sVF_Right_Ramp
p1304
VR_R.png
p1305
sVF_HalframpJoinL
p1306
Vhalframp_mid_dirt_l.png
p1307
sVF_Dirt_BL
p1308
Vdirtl_bedge.png
p1309
sVF_HalframpJoinR
p1310
Vhalframp_mid_dirt_r.png
p1311
sVF_Dirt_BR
p1312
Vdirtr_bedge.png
p1313
sVF_Dirtb2
p1314
Vdirtb2.png
p1315
sVF_Left_Ramp
p1316
VL_R.png
p1317
sVC_Castle Wall->Floor L
p1318
Vcstl_wfleft.png
p1319
sVS_UCJleft
p1320
Vsnow_undercorner_join_left.png
p1321
sVF_Dirt
p1322
Vdirt.png
p1323
sVF_Grass->DirtL
p1324
Vgrass_dirt_l.png
p1325
sVS_edgeleft
p1326
Vsnow_edge_left.png
p1327
sVF_Dirttop
p1328
Vdirttop.png
p1329
sVF_Dirt_Alt_4
p1330
Vdirtc4.png
p1331
sVF_Dirt_Alt_3
p1332
Vdirtc3.png
p1333
sVF_Dirt_Alt_2
p1334
Vdirtc2.png
p1335
sVF_Dirt_Alt_1
p1336
Vdirtc1.png
p1337
sVF_Grass->DirtR
p1338
Vgrass_dirt_r.png
p1339
sViC_wl2
p1340
Vcavewl2.png
p1341
ssb.