(imapping
Map
p1
(dp2
S'enemy'
p3
(lp4
(lp5
NaNaNaNaNaNaNaNaNaNaNaNaa(lp6
NaNaNaNaNaNaNaNaNaNaNaNaa(lp7
NaVSnowBat
p8
aNaVSnowBat
p9
aNaVSnowBat
p10
aNaVSnowBat
p11
aNaNaNaNaa(lp12
NaNaNaNaNaNaNaNaNaNaNaNaa(lp13
NaNaNaNaNaNaNaNaNaNaNaNaa(lp14
NaNaNaNaNaNaNaNaNaNaNaNaa(lp15
NaNaNaNaNaNaNaNaNaNaNaNaa(lp16
NaNaNaNaNaNaNaNaNaNaNaNaa(lp17
NaNaNaNaNaNaNaNaNaNaNaNaa(lp18
NaNaNaNaNaNaNaNaNaNaNaNaa(lp19
NaNaNaNaNaNaNaNaNaNaNaNaa(lp20
NaNaNaNaNaNaNaNaNaNaNaNaa(lp21
NaNaNaNaNaNaNaNaNaNaNaNaa(lp22
NaNaNaNaNaNaNaNaNaNaNaNaa(lp23
NaNaNaNaNaNaNaNaNaNaNaNaa(lp24
NaNaNaNaNaNaNaNaNaNaNaNaa(lp25
NaNaNaNaNaNaNaNaNaNaNaNaa(lp26
NaNaNaNaNaNaNaNaNaNaNaNaa(lp27
NaNaNaNaNaNaNaNaNaNaNaNaa(lp28
NaNaNaNaNaNaNaNaNaNaNaNaa(lp29
NaNaNaNaNaNaNaNaNaNaNaNaa(lp30
NaNaNaNaNaNaNaNaVWasp
p31
aNaNaNaa(lp32
NaNaNaNaNaNaNaNaNaNaNaNaa(lp33
NaNaNaNaNaNaNaNaNaNaNaNaa(lp34
NaNaNaNaNaNaNaNaNaNaNaNaa(lp35
NaNaNaNaNaNaNaNaNaNaNaNaa(lp36
NaNaNaNaNaNaNaNaNaNaNaNaa(lp37
NaNaNaNaNaNaNaNaNaNaNaNaa(lp38
NaNaNaNaNaNaNaNaVWasp
p39
aNaNaNaa(lp40
NaNaNaNaNaNaNaNaNaNaNaNaa(lp41
NaNaNaNaNaNaNaNaNaNaNaNaa(lp42
NaNaNaNaNaNaNaNaNaNaNaNaa(lp43
NaNaNaNaNaNaNaNaNaNaNaNaa(lp44
NaNaNaNaNaNaNaNaNaNaNaNaa(lp45
NaNaNaNaNaNaNaNaVWasp
p46
aNaNaNaa(lp47
NaNaNaNaNaNaNaNaNaNaNaNaa(lp48
NaNaNaNaNaNaNaNaNaNaNaNaa(lp49
NaNaNaNaNaNaNaNaVWasp
p50
aNaNaNaa(lp51
NaNaNaNaNaNaNaNaNaNaNaNaa(lp52
NaNaNaNaNaNaNaNaNaNaNaNaa(lp53
NaNaNaNaNaNaNaNaNaNaNaNaa(lp54
NaNaNaNaNaNaNaNaNaNaNaNaa(lp55
NaNaNaNaNaNaNaNaNaNaNaNaa(lp56
NaNaNaNaNaNaNaNaNaNaNaNaa(lp57
NaNaNaNaNaNaNaNaNaNaNaNaa(lp58
NaNaNaNaNaNaNaNaNaNaNaNaa(lp59
NaNaNaNaNaNaNaNaNaNaNaNaa(lp60
NaNaNaNaNaNaNaNaNaNaNaNaa(lp61
NaNaNaNaNaNaNaNaNaNaNaNaa(lp62
NaNaNaNaNaNaNaNaNaNaNaNaa(lp63
NaNaNaNaNaNaNaNaNaNaNaNaa(lp64
NaNaNaNaNaNaNaNaNaNaNaNaa(lp65
NaNaNaNaNaNaNaNaNaNaNaNaa(lp66
NaNaNaNaNaNaNaNaNaNaNaNaa(lp67
NaNaNaNaNaNaVWasp
p68
aNaNaNaNaNaa(lp69
NaNaNaNaNaNaNaNaNaNaNaNaa(lp70
NaNaNaNaNaNaNaNaNaNaNaNaa(lp71
NaNaNaNaNaNaNaNaNaNaNaNaa(lp72
NaNaNaNaNaNaNaNaNaNaNaNaa(lp73
NaNaNaNaNaNaNaNaNaNaNaNaa(lp74
NaNaNaNaNaNaNaNaNaNaNaNaa(lp75
NaNaNaNaNaNaNaNaNaNaNaNaa(lp76
NaNaNaNaNaVWasp
p77
aNaNaNaNaNaNaa(lp78
NaNaNaNaNaNaNaNaNaNaNaNaa(lp79
NaNaNaNaNaNaNaNaNaNaNaNaa(lp80
NaNaNaNaNaNaNaNaNaNaNaNaa(lp81
NaNaNaNaNaNaNaNaNaNaNaNaa(lp82
NaNaNaNaNaNaNaNaNaNaNaNaa(lp83
NaNaNaNaVWasp
p84
aNaNaNaNaNaNaNaa(lp85
NaNaNaNaNaNaNaNaNaNaNaNaa(lp86
NaNaNaNaNaNaNaNaNaNaNaNaa(lp87
NaNaNaNaNaNaNaNaNaNaNaNaa(lp88
NaNaNaNaNaNaNaNaNaNaNaNaa(lp89
NaNaNaNaNaNaNaNaNaNaNaNaa(lp90
NaNaNaNaNaNaNaNaNaNaNaNaa(lp91
NaNaNaNaNaNaNaNaNaNaNaNaa(lp92
NaNaNaNaNaNaNaNaNaNaNaNaa(lp93
NaNaNaNaNaNaNaNaNaNaNaNaa(lp94
NaNaNaNaVWasp
p95
aNaNaNaNaNaNaNaa(lp96
NaNaNaNaNaNaNaNaNaNaNaNaa(lp97
NaNaNaNaNaNaNaNaNaNaNaNaa(lp98
NaNaNaNaNaNaNaNaNaNaNaNaa(lp99
NaNaNaNaNaNaNaNaNaNaNaNaa(lp100
NaNaNaNaNaNaNaNaNaNaNaNaa(lp101
NaNaNaNaNaNaNaNaNaNaNaNaa(lp102
NaNaNaNaNaNaNaNaNaNaNaNaa(lp103
NaNaNaNaNaNaNaNaNaNaNaNaa(lp104
NaNaNaNaNaNaNaNaNaNaNaNaa(lp105
NaNaNaNaNaNaNaNaNaNaNaNaa(lp106
NaNaNaNaNaNaNaNaNaNaNaNaa(lp107
NaNaNaNaNaNaNaNaNaNaNaNaa(lp108
NaNaNaNaNaNaNaNaNaNaNaNaa(lp109
NaNaNaNaNaNaNaNaNaNaNaNaa(lp110
NaNaNaNaNaNaNaNaNaNaNaNaa(lp111
NaNaNaNaNaNaNaNaNaNaNaNaa(lp112
NaNaNaNaNaNaNaNaNaNaNaNaa(lp113
NaNaNaNaNaNaNaVWasp
p114
aNaNaNaNaa(lp115
NaNaNaNaNaNaNaNaNaNaNaNaa(lp116
NaNaNaNaNaNaNaNaNaNaNaNaa(lp117
NaNaNaNaNaNaNaNaNaNaNaNaa(lp118
NaNaNaNaNaNaNaNaNaNaNaNaa(lp119
NaNaNaNaNaNaNaNaVWasp
p120
aNaNaNaa(lp121
NaNaNaNaNaNaNaNaNaNaNaNaa(lp122
NaNaNaNaNaNaNaNaNaNaNaNaa(lp123
NaNaNaNaNaNaNaNaNaNaNaNaa(lp124
NaNaNaNaNaNaVSnowBat
p125
aNaVSnowBat
p126
aNaNaNaa(lp127
NaNaNaNaNaNaNaNaNaNaNaNaa(lp128
NaNaNaNaNaNaNaNaNaNaNaNaa(lp129
NaNaNaNaNaNaNaNaNaNaNaNaa(lp130
NaNaNaNaNaNaNaNaNaNaNaNaa(lp131
NaNaNaNaNaNaNaNaNaNaNaNaa(lp132
NaNaNaNaNaNaNaNaNaNaNaNaa(lp133
NaNaNaNaNaNaNaNaNaNaNaNaa(lp134
NaNaNaNaNaNaNaNaNaNaNaNaa(lp135
NaNaNaNaNaNaNaNaNaNaNaNaa(lp136
NaNaNaNaNaNaNaNaNaNaNaNaa(lp137
NaNaNaNaNaNaNaNaNaNaNaNaa(lp138
NaNaNaNaNaNaNaNaNaNaNaNaa(lp139
NaNaNaNaNaNaNaNaNaNaNaNaa(lp140
NaNaNaNaNaNaNaNaNaNaNaNaa(lp141
NaNaNaNaNaNaNaNaNaNaNaNaa(lp142
NaNaNaNaNaNaNaNaNaNaNaNaa(lp143
NaNaNaNaNaNaNaNaNaNaNaNaa(lp144
NaNaNaNaNaNaNaNaNaNaNaNaa(lp145
NaNaNaNaNaNaNaNaNaNaNaNaa(lp146
NaNaNaNaNaNaNaNaNaNaNaNaa(lp147
NaNaNaNaNaNaNaNaNaNaNaNaa(lp148
NaNaNaNaNaNaNaNaNaNaNaNaasS'objdef'
p149
(dp150
VButterfly
p151
VButterfly.png
p152
sVLevel_End
p153
VEnd.png
p154
sVShield
p155
VShield.png
p156
sVPlayer_Start
p157
VStart.png
p158
sVLever_Snow
p159
VLever1.png
p160
sVTorchref
p161
VTorchref.png
p162
sVWalltorch
p163
VWalltorch.png
p164
sVFirepit
p165
VPit.png
p166
sVSign
p167
VSign.png
p168
sVButterflyC
p169
VButterflyC.png
p170
sVButterflyB
p171
VButterflyB.png
p172
sVSword
p173
VSword.png
p174
sVTreasureBoxC
p175
VTreasureC_Closed.png
p176
sVTreasureBoxB
p177
VTreasureB_Closed.png
p178
sVTreasureBox
p179
VTreasure_Closed.png
p180
sVFallingRock
p181
VRock.png
p182
sVObelisk_Snow
p183
VObelisk_Snow.png
p184
ssS'obj'
p185
(lp186
(lp187
NaNaNaNaNaNaNaNaNaNaNaNaa(lp188
NaNaNaNaNaNaNaNaNaNaNaNaa(lp189
NaNaNaNaNaNaNaNaNaVFirepit
p190
aNaNaa(lp191
NaNaNaNaNaNaNaNaNaNaNaNaa(lp192
NaNaNaNaNaNaNaNaNaNaVFirepit
p193
aNaa(lp194
NaNaNaNaNaNaNaNaNaNaNaNaa(lp195
NaNaNaNaNaNaNaNaNaNaNaNaa(lp196
NaNaNaNaNaVObelisk_Snow
p197
aNaNaNaNaNaNaa(lp198
NaNaNaNaNaNaNaNaNaNaNaNaa(lp199
NaNaNaNaNaVLever_Snow
p200
aNaNaNaNaNaNaa(lp201
NaNaNaNaNaNaNaNaNaNaNaNaa(lp202
NaNaNaNaNaNaNaNaNaNaNaNaa(lp203
NaNaNaNaNaNaNaNaNaNaVFirepit
p204
aNaa(lp205
NaNaNaNaNaNaNaNaNaNaNaNaa(lp206
NaNaNaNaNaNaNaNaNaVFirepit
p207
aNaNaa(lp208
NaNaNaNaNaNaNaNaNaNaNaNaa(lp209
NaNaNaNaNaNaNaNaNaNaNaNaa(lp210
NaNaNaNaNaNaNaNaNaNaVFirepit
p211
aNaa(lp212
NaNaNaNaNaNaNaNaNaNaNaNaa(lp213
NaNaNaNaNaNaNaNaNaNaNaNaa(lp214
NaNaNaNaNaNaNaNaNaNaNaNaa(lp215
NaNaNaNaNaNaNaNaNaNaNaNaa(lp216
NaNaNaNaNaVButterfly
p217
aNaNaNaNaNaNaa(lp218
NaNaNaNaNaNaNaNaNaNaNaNaa(lp219
NaNaNaNaNaNaNaNaNaNaNaNaa(lp220
NaNaNaNaNaNaNaNaNaNaNaNaa(lp221
NaNaNaNaNaNaNaNaNaNaNaNaa(lp222
NaNaNaNaNaNaNaNaNaNaNaNaa(lp223
NaNaNaNaNaNaNaNaNaNaNaNaa(lp224
NaNaNaNaNaNaNaNaNaNaNaNaa(lp225
NaNaNaNaNaNaNaNaNaNaNaNaa(lp226
NaNaNaNaNaNaNaNaNaNaNaNaa(lp227
NaNaNaNaNaNaNaNaNaNaNaNaa(lp228
NaNaNaNaNaNaNaNaNaNaNaNaa(lp229
NaNaNaNaNaNaNaNaNaNaNaNaa(lp230
NaNaNaNaNaNaNaNaNaNaNaNaa(lp231
NaNaNaNaNaNaNaNaNaVTreasureBoxC
p232
aNaNaa(lp233
NaNaNaNaNaNaNaNaNaNaNaNaa(lp234
NaNaNaNaNaNaNaNaNaNaNaNaa(lp235
NaNaNaNaNaNaNaNaNaNaNaNaa(lp236
NaNaNaNaNaNaNaNaNaNaNaNaa(lp237
NaNaNaNaNaNaNaNaNaNaNaNaa(lp238
NaNaNaNaNaNaNaNaNaNaNaNaa(lp239
NaNaVButterfly
p240
aNaNaNaNaNaNaNaNaNaa(lp241
NaNaNaNaNaNaNaNaNaNaNaNaa(lp242
NaNaNaNaNaNaNaNaNaNaNaNaa(lp243
NaNaNaNaNaNaNaNaNaNaNaNaa(lp244
NaNaNaNaNaNaNaNaNaNaNaNaa(lp245
NaNaNaNaNaNaNaNaNaNaNaNaa(lp246
NaNaNaNaNaNaNaNaNaNaNaNaa(lp247
NaNaNaNaNaNaNaNaNaNaNaNaa(lp248
NaNaNaNaNaNaNaNaNaNaNaNaa(lp249
NaNaNaNaNaNaNaNaNaNaNaNaa(lp250
NaNaNaNaNaNaNaNaNaNaNaNaa(lp251
NaNaNaNaNaNaNaNaNaNaNaNaa(lp252
NaNaNaNaNaNaNaNaNaNaNaNaa(lp253
NaNaNaNaNaNaNaNaNaNaNaNaa(lp254
NaNaNaNaNaNaNaNaNaNaNaNaa(lp255
NaNaNaNaNaNaNaNaNaNaNaNaa(lp256
NaNaNaNaNaNaNaNaNaNaNaNaa(lp257
NaNaNaNaNaNaNaNaNaNaNaNaa(lp258
NaNaNaNaNaNaNaNaNaNaNaNaa(lp259
NaNaNaNaNaNaNaNaNaNaNaNaa(lp260
NaNaNaNaNaNaNaNaNaNaNaNaa(lp261
NaNaNaNaNaNaNaNaNaNaNaNaa(lp262
NaNaNaNaNaNaNaNaNaNaNaNaa(lp263
NaNaNaNaNaNaNaNaNaNaNaNaa(lp264
NaNaNaNaNaVButterfly
p265
aNaNaNaNaNaNaa(lp266
NaNaNaNaNaNaNaNaNaNaNaNaa(lp267
NaNaNaNaNaNaNaNaNaNaNaNaa(lp268
NaNaNaNaNaNaNaNaNaNaNaNaa(lp269
NaNaNaNaNaNaNaNaNaNaNaNaa(lp270
NaNaNaNaNaNaNaNaNaNaNaNaa(lp271
NaNaNaNaNaNaNaNaNaNaNaNaa(lp272
NaNaNaNaNaNaNaNaNaNaNaNaa(lp273
NaNaNaNaNaNaNaNaNaNaNaNaa(lp274
NaNaNaNaNaNaNaNaNaNaNaNaa(lp275
NaNaNaNaNaNaNaNaNaNaNaNaa(lp276
NaNaNaNaNaNaNaNaNaNaNaNaa(lp277
NaNaNaNaNaNaNaNaNaNaNaNaa(lp278
NaNaNaNaNaVButterfly
p279
aNaNaNaNaNaNaa(lp280
NaNaNaNaNaNaNaNaNaNaNaNaa(lp281
NaNaNaNaNaNaNaNaNaNaNaNaa(lp282
NaNaNaNaNaNaNaNaNaNaNaNaa(lp283
NaNaNaNaNaNaNaNaNaNaNaNaa(lp284
NaNaNaNaNaNaNaNaNaNaNaNaa(lp285
NaNaNaNaNaNaNaNaNaNaNaNaa(lp286
NaNaNaNaNaNaNaNaNaNaNaNaa(lp287
NaNaNaNaNaNaNaNaNaNaNaNaa(lp288
NaNaNaNaNaNaNaNaNaNaNaNaa(lp289
NaNaNaNaNaNaNaNaNaNaNaNaa(lp290
NaNaNaNaNaNaNaNaNaNaNaNaa(lp291
NaNaNaNaNaNaNaNaNaNaNaNaa(lp292
NaNaNaNaNaNaNaNaNaNaNaNaa(lp293
NaNaNaNaNaNaNaNaNaNaNaNaa(lp294
NaNaNaNaNaNaNaNaNaNaNaNaa(lp295
NaNaNaNaNaNaNaNaNaNaNaNaa(lp296
NaNaNaNaNaNaNaNaNaVPlayer_Start
p297
aNaNaa(lp298
NaNaNaNaNaNaNaNaNaNaNaNaa(lp299
NaNaNaNaNaNaNaNaNaNaNaNaa(lp300
NaNaNaNaNaNaNaNaNaNaNaNaa(lp301
NaNaNaNaNaNaVButterfly
p302
aNaNaNaNaNaa(lp303
NaNaNaNaNaNaNaNaNaNaNaNaa(lp304
NaNaNaNaNaNaNaNaNaNaNaNaa(lp305
NaNaNaNaNaNaNaNaNaNaNaNaa(lp306
NaNaNaNaNaNaNaNaNaNaNaNaa(lp307
NaNaNaNaNaNaNaNaNaNaNaNaa(lp308
NaNaNaNaNaNaNaNaNaNaNaNaa(lp309
NaNaNaNaNaNaNaNaVLevel_End
p310
aNaNaNaa(lp311
NaNaNaNaNaNaNaNaNaNaNaNaa(lp312
NaNaNaNaNaNaNaNaNaNaNaNaa(lp313
NaNaNaNaNaNaNaNaNaNaNaNaa(lp314
NaNaNaNaNaNaNaNaNaNaNaNaa(lp315
NaNaNaNaNaNaNaNaNaNaNaNaa(lp316
NaNaNaNaNaNaNaNaNaNaNaNaa(lp317
NaNaNaNaNaNaNaNaNaNaNaNaa(lp318
NaNaNaNaNaNaNaNaNaNaNaNaa(lp319
NaNaNaNaNaNaNaNaNaNaNaNaa(lp320
NaNaNaNaNaNaNaNaNaNaNaNaa(lp321
NaNaNaNaNaNaNaNaNaNaNaNaa(lp322
NaNaNaNaNaNaNaNaNaNaNaNaa(lp323
NaNaNaNaNaNaNaNaNaNaNaNaa(lp324
NaNaNaNaNaNaNaNaNaNaNaNaa(lp325
NaNaNaNaNaNaNaNaNaNaNaNaa(lp326
NaNaNaNaNaNaNaNaNaNaNaNaa(lp327
NaNaNaNaNaNaNaNaNaNaNaNaa(lp328
NaNaNaNaNaNaNaNaNaNaNaNaa(lp329
NaNaNaNaNaNaNaNaNaNaNaNaasS'name'
p330
VSnodom3
p331
sS'map'
p332
(lp333
(lp334
(imapping
Tile
p335
(dp336
S'collidetype'
p337
S'BOX'
p338
sS'type'
p339
VS_Snow
p340
sS'friction'
p341
F1
sS'overhead'
p342
I00
sba(imapping
Tile
p343
(dp344
g337
g338
sg339
VS_Snow
p345
sg341
F1
sg342
I00
sba(imapping
Tile
p346
(dp347
g337
g338
sg339
VS_Snow
p348
sg341
F1
sg342
I00
sba(imapping
Tile
p349
(dp350
g337
g338
sg339
VS_Snow
p351
sg341
F1
sg342
I00
sba(imapping
Tile
p352
(dp353
g337
g338
sg339
VS_Snow
p354
sg341
F1
sg342
I00
sba(imapping
Tile
p355
(dp356
g337
g338
sg339
VS_Snow
p357
sg341
F1
sg342
I00
sba(imapping
Tile
p358
(dp359
g337
g338
sg339
VS_Snow
p360
sg341
F1
sg342
I00
sba(imapping
Tile
p361
(dp362
g337
g338
sg339
VS_Snow
p363
sg341
F1
sg342
I00
sba(imapping
Tile
p364
(dp365
g337
g338
sg339
VS_Snow
p366
sg341
F1
sg342
I00
sba(imapping
Tile
p367
(dp368
g337
g338
sg339
VS_Snow
p369
sg341
F1
sg342
I00
sba(imapping
Tile
p370
(dp371
g337
g338
sg339
VS_Snow
p372
sg341
F1
sg342
I00
sba(imapping
Tile
p373
(dp374
g337
g338
sg339
VS_Snow
p375
sg341
F1
sg342
I00
sbaa(lp376
(imapping
Tile
p377
(dp378
g337
g338
sg339
VS_edgewright1
p379
sg341
F0.20000000000000001
sg342
I00
sba(imapping
Tile
p380
(dp381
g337
g338
sg339
VS_edgewright2
p382
sg341
F0.20000000000000001
sg342
I00
sba(imapping
Tile
p383
(dp384
g337
g338
sg339
VS_edgewright2
p385
sg341
F0.20000000000000001
sg342
I00
sba(imapping
Tile
p386
(dp387
g337
g338
sg339
VS_edgewright1
p388
sg341
F0.20000000000000001
sg342
I00
sba(imapping
Tile
p389
(dp390
g337
g338
sg339
VS_edgewright1
p391
sg341
F0.20000000000000001
sg342
I00
sba(imapping
Tile
p392
(dp393
g337
g338
sg339
VS_edgewright2
p394
sg341
F0.20000000000000001
sg342
I00
sba(imapping
Tile
p395
(dp396
g337
g338
sg339
VS_edgewright1
p397
sg341
F0.20000000000000001
sg342
I00
sba(imapping
Tile
p398
(dp399
g337
g338
sg339
VS_edgewright2
p400
sg341
F0.20000000000000001
sg342
I00
sba(imapping
Tile
p401
(dp402
g337
g338
sg339
VS_edgewright2
p403
sg341
F0.20000000000000001
sg342
I00
sba(imapping
Tile
p404
(dp405
g337
g338
sg339
VS_edgewright1
p406
sg341
F0.20000000000000001
sg342
I00
sba(imapping
Tile
p407
(dp408
g337
g338
sg339
VS_bLRamp
p409
sg341
F0.20000000000000001
sg342
I00
sba(imapping
Tile
p410
(dp411
g337
g338
sg339
VS_Snow
p412
sg341
F1
sg342
I00
sbaa(lp413
NaNaNaNaNaNaNaNaNaNa(imapping
Tile
p414
(dp415
g337
g338
sg339
VS_edgeright
p416
sg341
F0.20000000000000001
sg342
I00
sba(imapping
Tile
p417
(dp418
g337
g338
sg339
VS_edgewright2
p419
sg341
F0.20000000000000001
sg342
I00
sbaa(lp420
NaNaNaNaNaNaNaNaNaNaNaNaa(lp421
NaNaNaNaNaNaNaNaNaNaNa(imapping
Tile
p422
(dp423
g337
g338
sg339
VS_edgeleft
p424
sg341
F0.20000000000000001
sg342
I00
sbaa(lp425
NaNaNaNaNaNa(imapping
Tile
p426
(dp427
g337
g338
sg339
VS_edgeleft
p428
sg341
F0.20000000000000001
sg342
I00
sba(imapping
Tile
p429
(dp430
g337
g338
sg339
VS_edgewleft2
p431
sg341
F1
sg342
I00
sba(imapping
Tile
p432
(dp433
g337
g338
sg339
VS_edgewleft1
p434
sg341
F1
sg342
I00
sba(imapping
Tile
p435
(dp436
g337
g338
sg339
VS_edgewleft1
p437
sg341
F1
sg342
I00
sba(imapping
Tile
p438
(dp439
g337
g338
sg339
VS_edgewleft2
p440
sg341
F1
sg342
I00
sba(imapping
Tile
p441
(dp442
g337
g338
sg339
VS_ECright
p443
sg341
F0.20000000000000001
sg342
I00
sbaa(lp444
NaNaNaNaNaNa(imapping
Tile
p445
(dp446
g337
g338
sg339
VS_Ground1
p447
sg341
F0.20000000000000001
sg342
I00
sba(imapping
Tile
p448
(dp449
g337
g338
sg339
VS_Snow
p450
sg341
F1
sg342
I00
sba(imapping
Tile
p451
(dp452
g337
g338
sg339
VS_Snow
p453
sg341
F1
sg342
I00
sba(imapping
Tile
p454
(dp455
g337
g338
sg339
VS_Snow
p456
sg341
F1
sg342
I00
sba(imapping
Tile
p457
(dp458
g337
g338
sg339
VS_Snow
p459
sg341
F1
sg342
I00
sba(imapping
Tile
p460
(dp461
g337
g338
sg339
VS_Snow
p462
sg341
F1
sg342
I00
sbaa(lp463
NaNaNaNaNaNa(imapping
Tile
p464
(dp465
g337
g338
sg339
VS_Ground1
p466
sg341
F0.20000000000000001
sg342
I00
sba(imapping
Tile
p467
(dp468
g337
g338
sg339
VS_Snow
p469
sg341
F1
sg342
I00
sba(imapping
Tile
p470
(dp471
g337
g338
sg339
VS_Snow
p472
sg341
F1
sg342
I00
sba(imapping
Tile
p473
(dp474
g337
g338
sg339
VS_Snow
p475
sg341
F1
sg342
I00
sba(imapping
Tile
p476
(dp477
g337
g338
sg339
VS_Snow
p478
sg341
F1
sg342
I00
sba(imapping
Tile
p479
(dp480
g337
g338
sg339
VS_Snow
p481
sg341
F1
sg342
I00
sbaa(lp482
NaNaNaNaNaNa(imapping
Tile
p483
(dp484
g337
g338
sg339
VS_Ground1
p485
sg341
F0.20000000000000001
sg342
I00
sba(imapping
Tile
p486
(dp487
g337
g338
sg339
VS_Snow
p488
sg341
F1
sg342
I00
sba(imapping
Tile
p489
(dp490
g337
g338
sg339
VS_Snow
p491
sg341
F1
sg342
I00
sba(imapping
Tile
p492
(dp493
g337
g338
sg339
VS_Snow
p494
sg341
F1
sg342
I00
sba(imapping
Tile
p495
(dp496
g337
g338
sg339
VS_Snow
p497
sg341
F1
sg342
I00
sba(imapping
Tile
p498
(dp499
g337
g338
sg339
VS_Snow
p500
sg341
F1
sg342
I00
sbaa(lp501
NaNaNaNaNaNa(imapping
Tile
p502
(dp503
g337
g338
sg339
VS_Ground1
p504
sg341
F0.20000000000000001
sg342
I00
sba(imapping
Tile
p505
(dp506
g337
g338
sg339
VS_Snow
p507
sg341
F1
sg342
I00
sba(imapping
Tile
p508
(dp509
g337
g338
sg339
VS_Snow
p510
sg341
F1
sg342
I00
sba(imapping
Tile
p511
(dp512
g337
g338
sg339
VS_Snow
p513
sg341
F1
sg342
I00
sba(imapping
Tile
p514
(dp515
g337
g338
sg339
VS_Snow
p516
sg341
F1
sg342
I00
sba(imapping
Tile
p517
(dp518
g337
g338
sg339
VS_Snow
p519
sg341
F1
sg342
I00
sbaa(lp520
NaNaNaNaNaNa(imapping
Tile
p521
(dp522
g337
g338
sg339
VS_Ground1
p523
sg341
F0.20000000000000001
sg342
I00
sba(imapping
Tile
p524
(dp525
g337
g338
sg339
VS_Snow
p526
sg341
F1
sg342
I00
sba(imapping
Tile
p527
(dp528
g337
g338
sg339
VS_Snow
p529
sg341
F1
sg342
I00
sba(imapping
Tile
p530
(dp531
g337
g338
sg339
VS_Snow
p532
sg341
F1
sg342
I00
sba(imapping
Tile
p533
(dp534
g337
g338
sg339
VS_Snow
p535
sg341
F1
sg342
I00
sba(imapping
Tile
p536
(dp537
g337
g338
sg339
VS_Snow
p538
sg341
F1
sg342
I00
sbaa(lp539
NaNaNaNaNaNa(imapping
Tile
p540
(dp541
g337
g338
sg339
VS_edgeright
p542
sg341
F0.20000000000000001
sg342
I00
sba(imapping
Tile
p543
(dp544
g337
g338
sg339
VS_edgewright1
p545
sg341
F0.20000000000000001
sg342
I00
sba(imapping
Tile
p546
(dp547
g337
g338
sg339
VS_edgewright2
p548
sg341
F0.20000000000000001
sg342
I00
sba(imapping
Tile
p549
(dp550
g337
g338
sg339
VS_edgewright1
p551
sg341
F0.20000000000000001
sg342
I00
sba(imapping
Tile
p552
(dp553
g337
g338
sg339
VS_edgewright1
p554
sg341
F0.20000000000000001
sg342
I00
sba(imapping
Tile
p555
(dp556
g337
g338
sg339
VS_ECleft
p557
sg341
F0.20000000000000001
sg342
I00
sbaa(lp558
NaNaNaNaNaNaNaNaNaNaNa(imapping
Tile
p559
(dp560
g337
g338
sg339
VS_edgeright
p561
sg341
F0.20000000000000001
sg342
I00
sbaa(lp562
NaNaNaNaNaNaNaNaNaNaNaNaa(lp563
NaNaNaNaNaNaNaNaNaNa(imapping
Tile
p564
(dp565
g337
g338
sg339
VS_edgeleft
p566
sg341
F0.20000000000000001
sg342
I00
sba(imapping
Tile
p567
(dp568
g337
g338
sg339
VS_edgewleft1
p569
sg341
F1
sg342
I00
sbaa(lp570
NaNaNaNaNaNa(imapping
Tile
p571
(dp572
g337
g338
sg339
VS_edgeleft
p573
sg341
F0.20000000000000001
sg342
I00
sba(imapping
Tile
p574
(dp575
g337
g338
sg339
VS_edgewleft2
p576
sg341
F1
sg342
I00
sba(imapping
Tile
p577
(dp578
g337
g338
sg339
VS_edgewleft1
p579
sg341
F1
sg342
I00
sba(imapping
Tile
p580
(dp581
g337
g338
sg339
VS_edgewleft2
p582
sg341
F1
sg342
I00
sba(imapping
Tile
p583
(dp584
g337
g338
sg339
VS_bRRamp
p585
sg341
F0.20000000000000001
sg342
I00
sba(imapping
Tile
p586
(dp587
g337
g338
sg339
VS_UCJleft
p588
sg341
F1
sg342
I00
sbaa(lp589
NaNaNaNaNaNa(imapping
Tile
p590
(dp591
g337
g338
sg339
VS_edgeright
p592
sg341
F0.20000000000000001
sg342
I00
sba(imapping
Tile
p593
(dp594
g337
g338
sg339
VS_edgewright1
p595
sg341
F0.20000000000000001
sg342
I00
sba(imapping
Tile
p596
(dp597
g337
g338
sg339
VS_edgewright2
p598
sg341
F0.20000000000000001
sg342
I00
sba(imapping
Tile
p599
(dp600
g337
g338
sg339
VS_edgewright2
p601
sg341
F0.20000000000000001
sg342
I00
sba(imapping
Tile
p602
(dp603
g337
g338
sg339
VS_edgewright1
p604
sg341
F0.20000000000000001
sg342
I00
sba(imapping
Tile
p605
(dp606
g337
g338
sg339
VS_ECleft
p607
sg341
F0.20000000000000001
sg342
I00
sbaa(lp608
NaNaNaNaNaNaNaNaNaNaNa(imapping
Tile
p609
(dp610
g337
g338
sg339
VS_Ground1
p611
sg341
F0.20000000000000001
sg342
I00
sbaa(lp612
NaNaNaNaNaNaNaNa(imapping
Tile
p613
(dp614
g337
g338
sg339
VS_edgeleft
p615
sg341
F0.20000000000000001
sg342
I00
sba(imapping
Tile
p616
(dp617
g337
g338
sg339
VS_edgewleft1
p618
sg341
F1
sg342
I00
sba(imapping
Tile
p619
(dp620
g337
g338
sg339
VS_edgewleft2
p621
sg341
F1
sg342
I00
sba(imapping
Tile
p622
(dp623
g337
g338
sg339
VS_ECright
p624
sg341
F0.20000000000000001
sg342
I00
sbaa(lp625
NaNaNaNaNaNaNaNa(imapping
Tile
p626
(dp627
g337
g338
sg339
VS_edgeright
p628
sg341
F0.20000000000000001
sg342
I00
sba(imapping
Tile
p629
(dp630
g337
g338
sg339
VS_edgewright2
p631
sg341
F0.20000000000000001
sg342
I00
sba(imapping
Tile
p632
(dp633
g337
g338
sg339
VS_edgewright2
p634
sg341
F0.20000000000000001
sg342
I00
sba(imapping
Tile
p635
(dp636
g337
g338
sg339
VS_edgewright1
p637
sg341
F0.20000000000000001
sg342
I00
sbaa(lp638
NaNaNaNaNaNaNaNaNaNaNaNaa(lp639
NaNaNaNaNaNaNaNaNaNa(imapping
Tile
p640
(dp641
g337
g338
sg339
VS_edgeleft
p642
sg341
F0.20000000000000001
sg342
I00
sba(imapping
Tile
p643
(dp644
g337
g338
sg339
VS_edgewleft2
p645
sg341
F1
sg342
I00
sbaa(lp646
NaNaNaNaNaNaNaNaNaNa(imapping
Tile
p647
(dp648
g337
g338
sg339
VS_edgeright
p649
sg341
F0.20000000000000001
sg342
I00
sba(imapping
Tile
p650
(dp651
g337
g338
sg339
VS_edgewright2
p652
sg341
F0.20000000000000001
sg342
I00
sbaa(lp653
NaNaNaNaNaNaNaNaNaNaNaNaa(lp654
NaNaNaNaNaNaNaNaNaNaNaNaa(lp655
NaNaNaNaNaNaNaNaNa(imapping
Tile
p656
(dp657
g337
g338
sg339
VS_edgeleft
p658
sg341
F0.20000000000000001
sg342
I00
sba(imapping
Tile
p659
(dp660
g337
g338
sg339
VS_edgewleft1
p661
sg341
F1
sg342
I00
sba(imapping
Tile
p662
(dp663
g337
g338
sg339
VS_edgewleft2
p664
sg341
F1
sg342
I00
sbaa(lp665
NaNaNaNaNaNaNaNaNa(imapping
Tile
p666
(dp667
g337
S'LEFT_INCLINATION'
p668
sg339
VS_LRamp
p669
sg341
F0.20000000000000001
sg342
I00
sba(imapping
Tile
p670
(dp671
g337
g338
sg339
VS_bLRamp
p672
sg341
F0.20000000000000001
sg342
I00
sba(imapping
Tile
p673
(dp674
g337
g338
sg339
VS_Snow
p675
sg341
F1
sg342
I00
sbaa(lp676
NaNaNaNaNaNaNaNaNaNa(imapping
Tile
p677
(dp678
g337
g668
sg339
VS_LRamp
p679
sg341
F0.20000000000000001
sg342
I00
sba(imapping
Tile
p680
(dp681
g337
g338
sg339
VS_bLRamp
p682
sg341
F0.20000000000000001
sg342
I00
sbaa(lp683
NaNaNaNaNaNaNaNaNaNaNa(imapping
Tile
p684
(dp685
g337
g668
sg339
VS_LRamp
p686
sg341
F0.20000000000000001
sg342
I00
sbaa(lp687
NaNaNaNaNaNaNaNaNaNaNaNaa(lp688
NaNaNaNaNaNaNaNaNa(imapping
Tile
p689
(dp690
g337
g338
sg339
VS_edgeleft
p691
sg341
F0.20000000000000001
sg342
I00
sba(imapping
Tile
p692
(dp693
g337
g338
sg339
VS_edgewleft1
p694
sg341
F1
sg342
I00
sba(imapping
Tile
p695
(dp696
g337
g338
sg339
VS_edgewleft1
p697
sg341
F1
sg342
I00
sbaa(lp698
NaNaNaNaNaNaNaNa(imapping
Tile
p699
(dp700
g337
S'NONE'
p701
sg339
VS_Tree2
p702
sg341
F1
sg342
I00
sba(imapping
Tile
p703
(dp704
g337
g338
sg339
VS_edgeright
p705
sg341
F0.20000000000000001
sg342
I00
sba(imapping
Tile
p706
(dp707
g337
g338
sg339
VS_ECleft
p708
sg341
F0.20000000000000001
sg342
I00
sba(imapping
Tile
p709
(dp710
g337
g338
sg339
VS_Snow2
p711
sg341
F1
sg342
I00
sbaa(lp712
NaNaNaNaNaNaNaNaNa(imapping
Tile
p713
(dp714
g337
g701
sg339
VS_Tree
p715
sg341
F1
sg342
I00
sba(imapping
Tile
p716
(dp717
g337
g338
sg339
VS_Ground1
p718
sg341
F0.20000000000000001
sg342
I00
sba(imapping
Tile
p719
(dp720
g337
g338
sg339
VS_Snow
p721
sg341
F1
sg342
I00
sbaa(lp722
NaNaNaNaNaNaNaNaNa(imapping
Tile
p723
(dp724
g337
g701
sg339
VS_Tree
p725
sg341
F1
sg342
I00
sba(imapping
Tile
p726
(dp727
g337
g338
sg339
VS_Ground1
p728
sg341
F0.20000000000000001
sg342
I00
sba(imapping
Tile
p729
(dp730
g337
g338
sg339
VS_Snow2
p731
sg341
F1
sg342
I00
sbaa(lp732
NaNaNaNaNaNaNaNaNa(imapping
Tile
p733
(dp734
g337
g701
sg339
VS_Tree2
p735
sg341
F1
sg342
I00
sba(imapping
Tile
p736
(dp737
g337
g338
sg339
VS_Ground1
p738
sg341
F0.20000000000000001
sg342
I00
sba(imapping
Tile
p739
(dp740
g337
g338
sg339
VS_Snow
p741
sg341
F1
sg342
I00
sbaa(lp742
NaNaNaNaNaNaNaNaNa(imapping
Tile
p743
(dp744
g337
g701
sg339
VS_Tree
p745
sg341
F1
sg342
I00
sba(imapping
Tile
p746
(dp747
g337
g338
sg339
VS_Ground1
p748
sg341
F0.20000000000000001
sg342
I00
sba(imapping
Tile
p749
(dp750
g337
g338
sg339
VS_Snow2
p751
sg341
F1
sg342
I00
sbaa(lp752
NaNaNaNaNaNaNaNaNa(imapping
Tile
p753
(dp754
g337
g701
sg339
VS_Tree
p755
sg341
F1
sg342
I00
sba(imapping
Tile
p756
(dp757
g337
g338
sg339
VS_Ground1
p758
sg341
F0.20000000000000001
sg342
I00
sba(imapping
Tile
p759
(dp760
g337
g338
sg339
VS_Snow2
p761
sg341
F1
sg342
I00
sbaa(lp762
NaNaNaNaNaNaNaNaNa(imapping
Tile
p763
(dp764
g337
g701
sg339
VS_Tree2
p765
sg341
F1
sg342
I00
sba(imapping
Tile
p766
(dp767
g337
g338
sg339
VS_Ground1
p768
sg341
F0.20000000000000001
sg342
I00
sba(imapping
Tile
p769
(dp770
g337
g338
sg339
VS_Snow2
p771
sg341
F1
sg342
I00
sbaa(lp772
NaNaNaNaNaNaNaNaNa(imapping
Tile
p773
(dp774
g337
g701
sg339
VS_Tree
p775
sg341
F1
sg342
I00
sba(imapping
Tile
p776
(dp777
g337
g338
sg339
VS_Ground1
p778
sg341
F0.20000000000000001
sg342
I00
sba(imapping
Tile
p779
(dp780
g337
g338
sg339
VS_Snow
p781
sg341
F1
sg342
I00
sbaa(lp782
NaNaNaNaNaNaNaNaNa(imapping
Tile
p783
(dp784
g337
g701
sg339
VS_Tree
p785
sg341
F1
sg342
I00
sba(imapping
Tile
p786
(dp787
g337
g338
sg339
VS_Ground1
p788
sg341
F0.20000000000000001
sg342
I00
sba(imapping
Tile
p789
(dp790
g337
g338
sg339
VS_Snow2
p791
sg341
F1
sg342
I00
sbaa(lp792
NaNaNaNaNaNaNaNaNaNa(imapping
Tile
p793
(dp794
g337
g338
sg339
VS_edgeright
p795
sg341
F0.20000000000000001
sg342
I00
sba(imapping
Tile
p796
(dp797
g337
g338
sg339
VS_edgewright1
p798
sg341
F0.20000000000000001
sg342
I00
sbaa(lp799
NaNaNaNaNaNaNaNaNaNaNaNaa(lp800
NaNaNaNaNaNaNaNa(imapping
Tile
p801
(dp802
g337
g701
sg339
VF_Shrooms2
p803
sg341
F1
sg342
I00
sba(imapping
Tile
p804
(dp805
g337
g338
sg339
VS_edgeleft
p806
sg341
F0.20000000000000001
sg342
I00
sba(imapping
Tile
p807
(dp808
g337
g338
sg339
VS_edgewleft1
p809
sg341
F1
sg342
I00
sba(imapping
Tile
p810
(dp811
g337
g338
sg339
VS_edgewleft1
p812
sg341
F1
sg342
I00
sbaa(lp813
NaNaNaNaNaNaNaNa(imapping
Tile
p814
(dp815
g337
S'RIGHT_INCLINATION'
p816
sg339
VS_RRamp
p817
sg341
F0.20000000000000001
sg342
I00
sba(imapping
Tile
p818
(dp819
g337
g338
sg339
VS_bRRamp
p820
sg341
F0.20000000000000001
sg342
I00
sba(imapping
Tile
p821
(dp822
g337
g338
sg339
VS_Snow
p823
sg341
F1
sg342
I00
sba(imapping
Tile
p824
(dp825
g337
g338
sg339
VS_Snow
p826
sg341
F1
sg342
I00
sbaa(lp827
NaNaNaNaNaNaNa(imapping
Tile
p828
(dp829
g337
g701
sg339
VS_Tree2
p830
sg341
F1
sg342
I00
sba(imapping
Tile
p831
(dp832
g337
g338
sg339
VS_Ground1
p833
sg341
F0.20000000000000001
sg342
I00
sba(imapping
Tile
p834
(dp835
g337
g338
sg339
VS_Snow
p836
sg341
F1
sg342
I00
sba(imapping
Tile
p837
(dp838
g337
g338
sg339
VS_Snow
p839
sg341
F1
sg342
I00
sba(imapping
Tile
p840
(dp841
g337
g338
sg339
VS_Snow
p842
sg341
F1
sg342
I00
sbaa(lp843
NaNaNaNaNaNaNa(imapping
Tile
p844
(dp845
g337
g701
sg339
VS_Stones
p846
sg341
F1
sg342
I00
sba(imapping
Tile
p847
(dp848
g337
g338
sg339
VS_edgeright
p849
sg341
F0.20000000000000001
sg342
I00
sba(imapping
Tile
p850
(dp851
g337
g338
sg339
VS_edgewright2
p852
sg341
F0.20000000000000001
sg342
I00
sba(imapping
Tile
p853
(dp854
g337
g338
sg339
VS_edgewright2
p855
sg341
F0.20000000000000001
sg342
I00
sba(imapping
Tile
p856
(dp857
g337
g338
sg339
VS_edgewright1
p858
sg341
F0.20000000000000001
sg342
I00
sbaa(lp859
NaNaNaNaNaNaNaNaNaNaNaNaa(lp860
NaNaNaNaNaNa(imapping
Tile
p861
(dp862
g337
g338
sg339
VS_edgeleft
p863
sg341
F0.20000000000000001
sg342
I00
sba(imapping
Tile
p864
(dp865
g337
g338
sg339
VS_edgewleft1
p866
sg341
F1
sg342
I00
sba(imapping
Tile
p867
(dp868
g337
g338
sg339
VS_edgewleft2
p869
sg341
F1
sg342
I00
sba(imapping
Tile
p870
(dp871
g337
g338
sg339
VS_edgewleft1
p872
sg341
F1
sg342
I00
sba(imapping
Tile
p873
(dp874
g337
g338
sg339
VS_edgewleft2
p875
sg341
F1
sg342
I00
sba(imapping
Tile
p876
(dp877
g337
g338
sg339
VS_edgewleft1
p878
sg341
F1
sg342
I00
sbaa(lp879
NaNaNaNaNa(imapping
Tile
p880
(dp881
g337
g701
sg339
VS_Tree
p882
sg341
F1
sg342
I00
sba(imapping
Tile
p883
(dp884
g337
g338
sg339
VS_Ground1
p885
sg341
F0.20000000000000001
sg342
I00
sba(imapping
Tile
p886
(dp887
g337
g338
sg339
VS_Snow
p888
sg341
F1
sg342
I00
sba(imapping
Tile
p889
(dp890
g337
g338
sg339
VS_Snow
p891
sg341
F1
sg342
I00
sba(imapping
Tile
p892
(dp893
g337
g338
sg339
VS_Snow
p894
sg341
F1
sg342
I00
sba(imapping
Tile
p895
(dp896
g337
g338
sg339
VS_Snow2
p897
sg341
F1
sg342
I00
sba(imapping
Tile
p898
(dp899
g337
g338
sg339
VS_Snow
p900
sg341
F1
sg342
I00
sbaa(lp901
NaNaNaNaNaNa(imapping
Tile
p902
(dp903
g337
g338
sg339
VS_edgeright
p904
sg341
F0.20000000000000001
sg342
I00
sba(imapping
Tile
p905
(dp906
g337
g338
sg339
VS_edgewright2
p907
sg341
F0.20000000000000001
sg342
I00
sba(imapping
Tile
p908
(dp909
g337
g338
sg339
VS_edgewright1
p910
sg341
F0.20000000000000001
sg342
I00
sba(imapping
Tile
p911
(dp912
g337
g338
sg339
VS_edgewright1
p913
sg341
F0.20000000000000001
sg342
I00
sba(imapping
Tile
p914
(dp915
g337
g338
sg339
VS_edgewright2
p916
sg341
F0.20000000000000001
sg342
I00
sba(imapping
Tile
p917
(dp918
g337
g338
sg339
VS_edgewright2
p919
sg341
F0.20000000000000001
sg342
I00
sbaa(lp920
NaNaNaNaNaNaNaNaNaNaNaNaa(lp921
NaNaNaNaNaNaNaNa(imapping
Tile
p922
(dp923
g337
g338
sg339
VS_edgeleft
p924
sg341
F0.20000000000000001
sg342
I00
sba(imapping
Tile
p925
(dp926
g337
g338
sg339
VS_edgewleft1
p927
sg341
F1
sg342
I00
sba(imapping
Tile
p928
(dp929
g337
g338
sg339
VS_edgewleft2
p930
sg341
F1
sg342
I00
sba(imapping
Tile
p931
(dp932
g337
g338
sg339
VS_edgewleft1
p933
sg341
F1
sg342
I00
sbaa(lp934
NaNaNaNaNaNaNa(imapping
Tile
p935
(dp936
g337
g701
sg339
VS_Tree
p937
sg341
F1
sg342
I00
sba(imapping
Tile
p938
(dp939
g337
g338
sg339
VS_Ground1
p940
sg341
F0.20000000000000001
sg342
I00
sba(imapping
Tile
p941
(dp942
g337
g338
sg339
VS_Snow2
p943
sg341
F1
sg342
I00
sba(imapping
Tile
p944
(dp945
g337
g338
sg339
VS_Snow
p946
sg341
F1
sg342
I00
sba(imapping
Tile
p947
(dp948
g337
g338
sg339
VS_Snow
p949
sg341
F1
sg342
I00
sbaa(lp950
NaNaNaNaNaNaNaNa(imapping
Tile
p951
(dp952
g337
g338
sg339
VS_edgeright
p953
sg341
F0.20000000000000001
sg342
I00
sba(imapping
Tile
p954
(dp955
g337
g338
sg339
VS_edgewright2
p956
sg341
F0.20000000000000001
sg342
I00
sba(imapping
Tile
p957
(dp958
g337
g338
sg339
VS_edgewright2
p959
sg341
F0.20000000000000001
sg342
I00
sba(imapping
Tile
p960
(dp961
g337
g338
sg339
VS_edgewright1
p962
sg341
F0.20000000000000001
sg342
I00
sbaa(lp963
NaNaNaNaNaNaNaNaNaNaNaNaa(lp964
NaNaNaNaNaNaNaNaNaNa(imapping
Tile
p965
(dp966
g337
g338
sg339
VS_edgeleft
p967
sg341
F0.20000000000000001
sg342
I00
sba(imapping
Tile
p968
(dp969
g337
g338
sg339
VS_edgewleft1
p970
sg341
F1
sg342
I00
sbaa(lp971
NaNaNaNaNaNaNaNaNa(imapping
Tile
p972
(dp973
g337
g701
sg339
VS_Tree
p974
sg341
F1
sg342
I00
sba(imapping
Tile
p975
(dp976
g337
g338
sg339
VS_Ground1
p977
sg341
F0.20000000000000001
sg342
I00
sba(imapping
Tile
p978
(dp979
g337
g338
sg339
VS_Snow2
p980
sg341
F1
sg342
I00
sbaa(lp981
NaNaNaNaNaNaNaNaNaNa(imapping
Tile
p982
(dp983
g337
g338
sg339
VS_edgeright
p984
sg341
F0.20000000000000001
sg342
I00
sba(imapping
Tile
p985
(dp986
g337
g338
sg339
VS_edgewright2
p987
sg341
F0.20000000000000001
sg342
I00
sbaa(lp988
NaNaNaNaNaNaNaNaNaNaNaNaa(lp989
NaNaNaNaNaNaNaNaNa(imapping
Tile
p990
(dp991
g337
g338
sg339
VS_edgeleft
p992
sg341
F0.20000000000000001
sg342
I00
sba(imapping
Tile
p993
(dp994
g337
g338
sg339
VS_edgewleft1
p995
sg341
F1
sg342
I00
sba(imapping
Tile
p996
(dp997
g337
g338
sg339
VS_edgewleft2
p998
sg341
F1
sg342
I00
sbaa(lp999
NaNaNaNaNaNaNaNa(imapping
Tile
p1000
(dp1001
g337
g816
sg339
VS_RRamp
p1002
sg341
F0.20000000000000001
sg342
I00
sba(imapping
Tile
p1003
(dp1004
g337
g338
sg339
VS_bRRamp
p1005
sg341
F0.20000000000000001
sg342
I00
sba(imapping
Tile
p1006
(dp1007
g337
g338
sg339
VS_Snow
p1008
sg341
F1
sg342
I00
sba(imapping
Tile
p1009
(dp1010
g337
g338
sg339
VS_Snow
p1011
sg341
F1
sg342
I00
sbaa(lp1012
NaNaNaNaNaNaNa(imapping
Tile
p1013
(dp1014
g337
g701
sg339
VS_Tree2
p1015
sg341
F1
sg342
I00
sba(imapping
Tile
p1016
(dp1017
g337
g338
sg339
VS_Ground1
p1018
sg341
F0.20000000000000001
sg342
I00
sba(imapping
Tile
p1019
(dp1020
g337
g338
sg339
VS_Snow2
p1021
sg341
F1
sg342
I00
sba(imapping
Tile
p1022
(dp1023
g337
g338
sg339
VS_Snow2
p1024
sg341
F1
sg342
I00
sba(imapping
Tile
p1025
(dp1026
g337
g338
sg339
VS_Snow
p1027
sg341
F1
sg342
I00
sbaa(lp1028
NaNaNaNaNaNaNa(imapping
Tile
p1029
(dp1030
g337
g701
sg339
VF_Shrooms2
p1031
sg341
F1
sg342
I00
sba(imapping
Tile
p1032
(dp1033
g337
g338
sg339
VS_edgeright
p1034
sg341
F0.20000000000000001
sg342
I00
sba(imapping
Tile
p1035
(dp1036
g337
g338
sg339
VS_edgewright2
p1037
sg341
F0.20000000000000001
sg342
I00
sba(imapping
Tile
p1038
(dp1039
g337
g338
sg339
VS_edgewright2
p1040
sg341
F0.20000000000000001
sg342
I00
sba(imapping
Tile
p1041
(dp1042
g337
g338
sg339
VS_edgewright1
p1043
sg341
F0.20000000000000001
sg342
I00
sbaa(lp1044
NaNaNaNaNaNaNaNaNaNaNaNaa(lp1045
NaNaNaNaNaNa(imapping
Tile
p1046
(dp1047
g337
g338
sg339
VS_edgeleft
p1048
sg341
F0.20000000000000001
sg342
I00
sba(imapping
Tile
p1049
(dp1050
g337
g338
sg339
VS_edgewleft1
p1051
sg341
F1
sg342
I00
sba(imapping
Tile
p1052
(dp1053
g337
g338
sg339
VS_edgewleft1
p1054
sg341
F1
sg342
I00
sba(imapping
Tile
p1055
(dp1056
g337
g338
sg339
VS_edgewleft1
p1057
sg341
F1
sg342
I00
sba(imapping
Tile
p1058
(dp1059
g337
g338
sg339
VS_edgewleft1
p1060
sg341
F1
sg342
I00
sba(imapping
Tile
p1061
(dp1062
g337
g338
sg339
VS_edgewleft1
p1063
sg341
F1
sg342
I00
sbaa(lp1064
NaNaNaNaNaNa(imapping
Tile
p1065
(dp1066
g337
g338
sg339
VS_edgeright
p1067
sg341
F0.20000000000000001
sg342
I00
sba(imapping
Tile
p1068
(dp1069
g337
g338
sg339
VS_ECleft
p1070
sg341
F0.20000000000000001
sg342
I00
sba(imapping
Tile
p1071
(dp1072
g337
g338
sg339
VS_Snow2
p1073
sg341
F1
sg342
I00
sba(imapping
Tile
p1074
(dp1075
g337
g338
sg339
VS_Snow
p1076
sg341
F1
sg342
I00
sba(imapping
Tile
p1077
(dp1078
g337
g338
sg339
VS_Snow
p1079
sg341
F1
sg342
I00
sba(imapping
Tile
p1080
(dp1081
g337
g338
sg339
VS_Snow2
p1082
sg341
F1
sg342
I00
sbaa(lp1083
NaNaNaNaNaNa(imapping
Tile
p1084
(dp1085
g337
g701
sg339
VS_Tree2
p1086
sg341
F1
sg342
I00
sba(imapping
Tile
p1087
(dp1088
g337
g338
sg339
VS_Ground1
p1089
sg341
F0.20000000000000001
sg342
I00
sba(imapping
Tile
p1090
(dp1091
g337
g338
sg339
VS_Snow
p1092
sg341
F1
sg342
I00
sba(imapping
Tile
p1093
(dp1094
g337
g338
sg339
VS_Snow2
p1095
sg341
F1
sg342
I00
sba(imapping
Tile
p1096
(dp1097
g337
g338
sg339
VS_UCJright
p1098
sg341
F1
sg342
I00
sba(imapping
Tile
p1099
(dp1100
g337
g338
sg339
VS_edgewright1
p1101
sg341
F0.20000000000000001
sg342
I00
sbaa(lp1102
NaNaNaNaNaNa(imapping
Tile
p1103
(dp1104
g337
g701
sg339
VF_Shrooms2
p1105
sg341
F1
sg342
I00
sba(imapping
Tile
p1106
(dp1107
g337
g338
sg339
VS_edgeright
p1108
sg341
F0.20000000000000001
sg342
I00
sba(imapping
Tile
p1109
(dp1110
g337
g338
sg339
VS_edgewright2
p1111
sg341
F0.20000000000000001
sg342
I00
sba(imapping
Tile
p1112
(dp1113
g337
g338
sg339
VS_edgewright1
p1114
sg341
F0.20000000000000001
sg342
I00
sba(imapping
Tile
p1115
(dp1116
g337
g338
sg339
VS_UCright
p1117
sg341
F1
sg342
I00
sbaNaa(lp1118
NaNaNaNaNaNaNaNaNaNaNaNaa(lp1119
NaNaNaNaNaNa(imapping
Tile
p1120
(dp1121
g337
g338
sg339
VS_edgeleft
p1122
sg341
F0.20000000000000001
sg342
I00
sba(imapping
Tile
p1123
(dp1124
g337
g338
sg339
VS_edgewleft2
p1125
sg341
F1
sg342
I00
sba(imapping
Tile
p1126
(dp1127
g337
g338
sg339
VS_edgewleft1
p1128
sg341
F1
sg342
I00
sba(imapping
Tile
p1129
(dp1130
g337
g338
sg339
VS_edgewleft2
p1131
sg341
F1
sg342
I00
sba(imapping
Tile
p1132
(dp1133
g337
g338
sg339
VS_edgewleft2
p1134
sg341
F1
sg342
I00
sba(imapping
Tile
p1135
(dp1136
g337
g338
sg339
VS_edgewleft1
p1137
sg341
F1
sg342
I00
sbaa(lp1138
NaNaNaNaNaNa(imapping
Tile
p1139
(dp1140
g337
g338
sg339
VS_edgeright
p1141
sg341
F0.20000000000000001
sg342
I00
sba(imapping
Tile
p1142
(dp1143
g337
g338
sg339
VS_edgewright1
p1144
sg341
F0.20000000000000001
sg342
I00
sba(imapping
Tile
p1145
(dp1146
g337
g338
sg339
VS_ECleft
p1147
sg341
F0.20000000000000001
sg342
I00
sba(imapping
Tile
p1148
(dp1149
g337
g338
sg339
VS_Snow
p1150
sg341
F1
sg342
I00
sba(imapping
Tile
p1151
(dp1152
g337
g338
sg339
VS_Snow
p1153
sg341
F1
sg342
I00
sba(imapping
Tile
p1154
(dp1155
g337
g338
sg339
VS_Snow
p1156
sg341
F1
sg342
I00
sbaa(lp1157
NaNaNaNaNaNaNa(imapping
Tile
p1158
(dp1159
g337
g701
sg339
VS_Tree2
p1160
sg341
F1
sg342
I00
sba(imapping
Tile
p1161
(dp1162
g337
g338
sg339
VS_Ground1
p1163
sg341
F0.20000000000000001
sg342
I00
sba(imapping
Tile
p1164
(dp1165
g337
g338
sg339
VS_Snow
p1166
sg341
F1
sg342
I00
sba(imapping
Tile
p1167
(dp1168
g337
g338
sg339
VS_Snow2
p1169
sg341
F1
sg342
I00
sba(imapping
Tile
p1170
(dp1171
g337
g338
sg339
VS_Snow
p1172
sg341
F1
sg342
I00
sbaa(lp1173
NaNaNaNaNaNaNa(imapping
Tile
p1174
(dp1175
g337
g701
sg339
VS_Tree
p1176
sg341
F1
sg342
I00
sba(imapping
Tile
p1177
(dp1178
g337
g338
sg339
VS_Ground1
p1179
sg341
F0.20000000000000001
sg342
I00
sba(imapping
Tile
p1180
(dp1181
g337
g338
sg339
VS_Snow
p1182
sg341
F1
sg342
I00
sba(imapping
Tile
p1183
(dp1184
g337
g338
sg339
VS_Snow
p1185
sg341
F1
sg342
I00
sba(imapping
Tile
p1186
(dp1187
g337
g338
sg339
VS_Snow2
p1188
sg341
F1
sg342
I00
sbaa(lp1189
NaNaNaNaNaNaNa(imapping
Tile
p1190
(dp1191
g337
g701
sg339
VS_Tree2
p1192
sg341
F1
sg342
I00
sba(imapping
Tile
p1193
(dp1194
g337
g338
sg339
VS_Ground1
p1195
sg341
F0.20000000000000001
sg342
I00
sba(imapping
Tile
p1196
(dp1197
g337
g338
sg339
VS_Snow
p1198
sg341
F1
sg342
I00
sba(imapping
Tile
p1199
(dp1200
g337
g338
sg339
VS_Snow
p1201
sg341
F1
sg342
I00
sba(imapping
Tile
p1202
(dp1203
g337
g338
sg339
VS_Snow
p1204
sg341
F1
sg342
I00
sbaa(lp1205
NaNaNaNaNaNa(imapping
Tile
p1206
(dp1207
g337
g338
sg339
VS_edgeleft
p1208
sg341
F0.20000000000000001
sg342
I00
sba(imapping
Tile
p1209
(dp1210
g337
g338
sg339
VS_edgewleft1
p1211
sg341
F1
sg342
I00
sba(imapping
Tile
p1212
(dp1213
g337
g338
sg339
VS_ECright
p1214
sg341
F0.20000000000000001
sg342
I00
sba(imapping
Tile
p1215
(dp1216
g337
g338
sg339
VS_Snow
p1217
sg341
F1
sg342
I00
sba(imapping
Tile
p1218
(dp1219
g337
g338
sg339
VS_Snow
p1220
sg341
F1
sg342
I00
sba(imapping
Tile
p1221
(dp1222
g337
g338
sg339
VS_Snow
p1223
sg341
F1
sg342
I00
sbaa(lp1224
NaNaNaNaNa(imapping
Tile
p1225
(dp1226
g337
g701
sg339
VF_Shrooms2
p1227
sg341
F1
sg342
I00
sba(imapping
Tile
p1228
(dp1229
g337
g338
sg339
VS_Ground1
p1230
sg341
F0.20000000000000001
sg342
I00
sba(imapping
Tile
p1231
(dp1232
g337
g338
sg339
VS_Snow
p1233
sg341
F1
sg342
I00
sba(imapping
Tile
p1234
(dp1235
g337
g338
sg339
VS_Snow
p1236
sg341
F1
sg342
I00
sba(imapping
Tile
p1237
(dp1238
g337
g338
sg339
VS_Snow
p1239
sg341
F1
sg342
I00
sba(imapping
Tile
p1240
(dp1241
g337
g338
sg339
VS_Snow
p1242
sg341
F1
sg342
I00
sba(imapping
Tile
p1243
(dp1244
g337
g338
sg339
VS_Snow
p1245
sg341
F1
sg342
I00
sbaa(lp1246
NaNaNaNaNa(imapping
Tile
p1247
(dp1248
g337
g701
sg339
VS_Railing_1
p1249
sg341
F1
sg342
I00
sba(imapping
Tile
p1250
(dp1251
g337
g338
sg339
VS_Ground1
p1252
sg341
F0.20000000000000001
sg342
I00
sba(imapping
Tile
p1253
(dp1254
g337
g338
sg339
VS_Snow
p1255
sg341
F1
sg342
I00
sba(imapping
Tile
p1256
(dp1257
g337
g338
sg339
VS_Snow
p1258
sg341
F1
sg342
I00
sba(imapping
Tile
p1259
(dp1260
g337
g338
sg339
VS_Snow2
p1261
sg341
F1
sg342
I00
sba(imapping
Tile
p1262
(dp1263
g337
g338
sg339
VS_Snow
p1264
sg341
F1
sg342
I00
sba(imapping
Tile
p1265
(dp1266
g337
g338
sg339
VS_Snow
p1267
sg341
F1
sg342
I00
sbaa(lp1268
NaNaNaNaNa(imapping
Tile
p1269
(dp1270
g337
g701
sg339
VS_Railing_2
p1271
sg341
F1
sg342
I00
sba(imapping
Tile
p1272
(dp1273
g337
g338
sg339
VS_Ground1
p1274
sg341
F0.20000000000000001
sg342
I00
sba(imapping
Tile
p1275
(dp1276
g337
g338
sg339
VS_Snow2
p1277
sg341
F1
sg342
I00
sba(imapping
Tile
p1278
(dp1279
g337
g338
sg339
VS_Snow2
p1280
sg341
F1
sg342
I00
sba(imapping
Tile
p1281
(dp1282
g337
g338
sg339
VS_Snow
p1283
sg341
F1
sg342
I00
sba(imapping
Tile
p1284
(dp1285
g337
g338
sg339
VS_Snow
p1286
sg341
F1
sg342
I00
sba(imapping
Tile
p1287
(dp1288
g337
g338
sg339
VS_Snow2
p1289
sg341
F1
sg342
I00
sbaa(lp1290
NaNaNaNaNa(imapping
Tile
p1291
(dp1292
g337
g701
sg339
VS_Railing_R
p1293
sg341
F1
sg342
I00
sba(imapping
Tile
p1294
(dp1295
g337
g338
sg339
VS_Ground1
p1296
sg341
F0.20000000000000001
sg342
I00
sba(imapping
Tile
p1297
(dp1298
g337
g338
sg339
VS_Snow2
p1299
sg341
F1
sg342
I00
sba(imapping
Tile
p1300
(dp1301
g337
g338
sg339
VS_Snow2
p1302
sg341
F1
sg342
I00
sba(imapping
Tile
p1303
(dp1304
g337
g338
sg339
VS_Snow
p1305
sg341
F1
sg342
I00
sba(imapping
Tile
p1306
(dp1307
g337
g338
sg339
VS_Snow
p1308
sg341
F1
sg342
I00
sba(imapping
Tile
p1309
(dp1310
g337
g338
sg339
VS_Snow
p1311
sg341
F1
sg342
I00
sbaa(lp1312
NaNaNaNaNa(imapping
Tile
p1313
(dp1314
g337
g701
sg339
VS_Tree
p1315
sg341
F1
sg342
I00
sba(imapping
Tile
p1316
(dp1317
g337
g338
sg339
VS_Ground1
p1318
sg341
F0.20000000000000001
sg342
I00
sba(imapping
Tile
p1319
(dp1320
g337
g338
sg339
VS_Snow
p1321
sg341
F1
sg342
I00
sba(imapping
Tile
p1322
(dp1323
g337
g338
sg339
VS_Snow2
p1324
sg341
F1
sg342
I00
sba(imapping
Tile
p1325
(dp1326
g337
g338
sg339
VS_Snow2
p1327
sg341
F1
sg342
I00
sba(imapping
Tile
p1328
(dp1329
g337
g338
sg339
VS_Snow2
p1330
sg341
F1
sg342
I00
sba(imapping
Tile
p1331
(dp1332
g337
g338
sg339
VS_Snow2
p1333
sg341
F1
sg342
I00
sbaa(lp1334
NaNaNaNaNa(imapping
Tile
p1335
(dp1336
g337
g701
sg339
VS_Tree2
p1337
sg341
F1
sg342
I00
sba(imapping
Tile
p1338
(dp1339
g337
g338
sg339
VS_Ground1
p1340
sg341
F0.20000000000000001
sg342
I00
sba(imapping
Tile
p1341
(dp1342
g337
g338
sg339
VS_Snow2
p1343
sg341
F1
sg342
I00
sba(imapping
Tile
p1344
(dp1345
g337
g338
sg339
VS_Snow
p1346
sg341
F1
sg342
I00
sba(imapping
Tile
p1347
(dp1348
g337
g338
sg339
VS_Snow2
p1349
sg341
F1
sg342
I00
sba(imapping
Tile
p1350
(dp1351
g337
g338
sg339
VS_Snow
p1352
sg341
F1
sg342
I00
sba(imapping
Tile
p1353
(dp1354
g337
g338
sg339
VS_Snow2
p1355
sg341
F1
sg342
I00
sbaa(lp1356
NaNaNaNaNa(imapping
Tile
p1357
(dp1358
g337
g816
sg339
VS_RRamp
p1359
sg341
F0.20000000000000001
sg342
I00
sba(imapping
Tile
p1360
(dp1361
g337
g338
sg339
VS_bRRamp
p1362
sg341
F0.20000000000000001
sg342
I00
sba(imapping
Tile
p1363
(dp1364
g337
g338
sg339
VS_Snow
p1365
sg341
F1
sg342
I00
sba(imapping
Tile
p1366
(dp1367
g337
g338
sg339
VS_Snow2
p1368
sg341
F1
sg342
I00
sba(imapping
Tile
p1369
(dp1370
g337
g338
sg339
VS_Snow
p1371
sg341
F1
sg342
I00
sba(imapping
Tile
p1372
(dp1373
g337
g338
sg339
VS_Snow2
p1374
sg341
F1
sg342
I00
sba(imapping
Tile
p1375
(dp1376
g337
g338
sg339
VS_Snow
p1377
sg341
F1
sg342
I00
sbaa(lp1378
NaNaNaNa(imapping
Tile
p1379
(dp1380
g337
g701
sg339
VS_Pillar
p1381
sg341
F1
sg342
I00
sba(imapping
Tile
p1382
(dp1383
g337
g338
sg339
VS_Ground1
p1384
sg341
F0.20000000000000001
sg342
I00
sba(imapping
Tile
p1385
(dp1386
g337
g338
sg339
VS_Snow
p1387
sg341
F1
sg342
I00
sba(imapping
Tile
p1388
(dp1389
g337
g338
sg339
VS_Snow2
p1390
sg341
F1
sg342
I00
sba(imapping
Tile
p1391
(dp1392
g337
g338
sg339
VS_Snow2
p1393
sg341
F1
sg342
I00
sba(imapping
Tile
p1394
(dp1395
g337
g338
sg339
VS_Snow2
p1396
sg341
F1
sg342
I00
sba(imapping
Tile
p1397
(dp1398
g337
g338
sg339
VS_Snow2
p1399
sg341
F1
sg342
I00
sba(imapping
Tile
p1400
(dp1401
g337
g338
sg339
VS_Snow2
p1402
sg341
F1
sg342
I00
sbaa(lp1403
Na(imapping
Tile
p1404
(dp1405
g337
g701
sg339
VS_Pillartop
p1406
sg341
F1
sg342
I00
sbaNaNa(imapping
Tile
p1407
(dp1408
g337
g701
sg339
VS_Pillar
p1409
sg341
F1
sg342
I00
sba(imapping
Tile
p1410
(dp1411
g337
g338
sg339
VS_Ground1
p1412
sg341
F0.20000000000000001
sg342
I00
sba(imapping
Tile
p1413
(dp1414
g337
g338
sg339
VS_Snow
p1415
sg341
F1
sg342
I00
sba(imapping
Tile
p1416
(dp1417
g337
g338
sg339
VS_Snow2
p1418
sg341
F1
sg342
I00
sba(imapping
Tile
p1419
(dp1420
g337
g338
sg339
VS_Snow2
p1421
sg341
F1
sg342
I00
sba(imapping
Tile
p1422
(dp1423
g337
g338
sg339
VS_Snow2
p1424
sg341
F1
sg342
I00
sba(imapping
Tile
p1425
(dp1426
g337
g338
sg339
VS_Snow
p1427
sg341
F1
sg342
I00
sba(imapping
Tile
p1428
(dp1429
g337
g338
sg339
VS_Snow
p1430
sg341
F1
sg342
I00
sbaa(lp1431
NaNaNaNaNa(imapping
Tile
p1432
(dp1433
g337
g668
sg339
VS_LRamp
p1434
sg341
F0.20000000000000001
sg342
I00
sba(imapping
Tile
p1435
(dp1436
g337
g338
sg339
VS_bLRamp
p1437
sg341
F0.20000000000000001
sg342
I00
sba(imapping
Tile
p1438
(dp1439
g337
g338
sg339
VS_Snow2
p1440
sg341
F1
sg342
I00
sba(imapping
Tile
p1441
(dp1442
g337
g338
sg339
VS_Snow2
p1443
sg341
F1
sg342
I00
sba(imapping
Tile
p1444
(dp1445
g337
g338
sg339
VS_Snow2
p1446
sg341
F1
sg342
I00
sba(imapping
Tile
p1447
(dp1448
g337
g338
sg339
VS_Snow
p1449
sg341
F1
sg342
I00
sba(imapping
Tile
p1450
(dp1451
g337
g338
sg339
VS_Snow
p1452
sg341
F1
sg342
I00
sbaa(lp1453
NaNaNaNaNaNa(imapping
Tile
p1454
(dp1455
g337
g668
sg339
VS_LRamp
p1456
sg341
F0.20000000000000001
sg342
I00
sba(imapping
Tile
p1457
(dp1458
g337
g338
sg339
VS_bLRamp
p1459
sg341
F0.20000000000000001
sg342
I00
sba(imapping
Tile
p1460
(dp1461
g337
g338
sg339
VS_Snow
p1462
sg341
F1
sg342
I00
sba(imapping
Tile
p1463
(dp1464
g337
g338
sg339
VS_Snow
p1465
sg341
F1
sg342
I00
sba(imapping
Tile
p1466
(dp1467
g337
g338
sg339
VS_Snow
p1468
sg341
F1
sg342
I00
sba(imapping
Tile
p1469
(dp1470
g337
g338
sg339
VS_Snow2
p1471
sg341
F1
sg342
I00
sbaa(lp1472
NaNaNaNaNaNa(imapping
Tile
p1473
(dp1474
g337
g816
sg339
VS_RRamp
p1475
sg341
F0.20000000000000001
sg342
I00
sba(imapping
Tile
p1476
(dp1477
g337
g338
sg339
VS_bRRamp
p1478
sg341
F0.20000000000000001
sg342
I00
sba(imapping
Tile
p1479
(dp1480
g337
g338
sg339
VS_Snow
p1481
sg341
F1
sg342
I00
sba(imapping
Tile
p1482
(dp1483
g337
g338
sg339
VS_Snow
p1484
sg341
F1
sg342
I00
sba(imapping
Tile
p1485
(dp1486
g337
g338
sg339
VS_Snow2
p1487
sg341
F1
sg342
I00
sba(imapping
Tile
p1488
(dp1489
g337
g338
sg339
VS_Snow2
p1490
sg341
F1
sg342
I00
sbaa(lp1491
NaNaNaNaNa(imapping
Tile
p1492
(dp1493
g337
g816
sg339
VS_RRamp
p1494
sg341
F0.20000000000000001
sg342
I00
sba(imapping
Tile
p1495
(dp1496
g337
g338
sg339
VS_bRRamp
p1497
sg341
F0.20000000000000001
sg342
I00
sba(imapping
Tile
p1498
(dp1499
g337
g338
sg339
VS_Snow
p1500
sg341
F1
sg342
I00
sba(imapping
Tile
p1501
(dp1502
g337
g338
sg339
VS_Snow
p1503
sg341
F1
sg342
I00
sba(imapping
Tile
p1504
(dp1505
g337
g338
sg339
VS_Snow
p1506
sg341
F1
sg342
I00
sba(imapping
Tile
p1507
(dp1508
g337
g338
sg339
VS_Snow
p1509
sg341
F1
sg342
I00
sba(imapping
Tile
p1510
(dp1511
g337
g338
sg339
VS_Snow
p1512
sg341
F1
sg342
I00
sbaa(lp1513
NaNaNaNa(imapping
Tile
p1514
(dp1515
g337
g816
sg339
VS_RRamp
p1516
sg341
F0.20000000000000001
sg342
I00
sba(imapping
Tile
p1517
(dp1518
g337
g338
sg339
VS_bRRamp
p1519
sg341
F0.20000000000000001
sg342
I00
sba(imapping
Tile
p1520
(dp1521
g337
g338
sg339
VS_Snow
p1522
sg341
F1
sg342
I00
sba(imapping
Tile
p1523
(dp1524
g337
g338
sg339
VS_Snow
p1525
sg341
F1
sg342
I00
sba(imapping
Tile
p1526
(dp1527
g337
g338
sg339
VS_Snow
p1528
sg341
F1
sg342
I00
sba(imapping
Tile
p1529
(dp1530
g337
g338
sg339
VS_Snow2
p1531
sg341
F1
sg342
I00
sba(imapping
Tile
p1532
(dp1533
g337
g338
sg339
VS_Snow
p1534
sg341
F1
sg342
I00
sba(imapping
Tile
p1535
(dp1536
g337
g338
sg339
VS_Snow2
p1537
sg341
F1
sg342
I00
sbaa(lp1538
NaNaNa(imapping
Tile
p1539
(dp1540
g337
S'NONE_R'
p1541
sg339
VF_Shrooms1
p1542
sg341
F1
sg342
I00
sba(imapping
Tile
p1543
(dp1544
g337
g338
sg339
VS_Ground1
p1545
sg341
F0.20000000000000001
sg342
I00
sba(imapping
Tile
p1546
(dp1547
g337
g338
sg339
VS_Snow
p1548
sg341
F1
sg342
I00
sba(imapping
Tile
p1549
(dp1550
g337
g338
sg339
VS_Snow
p1551
sg341
F1
sg342
I00
sba(imapping
Tile
p1552
(dp1553
g337
g338
sg339
VS_Snow
p1554
sg341
F1
sg342
I00
sba(imapping
Tile
p1555
(dp1556
g337
g338
sg339
VS_Snow2
p1557
sg341
F1
sg342
I00
sba(imapping
Tile
p1558
(dp1559
g337
g338
sg339
VS_Snow2
p1560
sg341
F1
sg342
I00
sba(imapping
Tile
p1561
(dp1562
g337
g338
sg339
VS_Snow
p1563
sg341
F1
sg342
I00
sba(imapping
Tile
p1564
(dp1565
g337
g338
sg339
VS_Snow2
p1566
sg341
F1
sg342
I00
sbaa(lp1567
NaNaNaNa(imapping
Tile
p1568
(dp1569
g337
g668
sg339
VS_LRamp
p1570
sg341
F0.20000000000000001
sg342
I00
sba(imapping
Tile
p1571
(dp1572
g337
g338
sg339
VS_bLRamp
p1573
sg341
F0.20000000000000001
sg342
I00
sba(imapping
Tile
p1574
(dp1575
g337
g338
sg339
VS_Snow
p1576
sg341
F1
sg342
I00
sba(imapping
Tile
p1577
(dp1578
g337
g338
sg339
VS_Snow
p1579
sg341
F1
sg342
I00
sba(imapping
Tile
p1580
(dp1581
g337
g338
sg339
VS_Snow
p1582
sg341
F1
sg342
I00
sba(imapping
Tile
p1583
(dp1584
g337
g338
sg339
VS_Snow2
p1585
sg341
F1
sg342
I00
sba(imapping
Tile
p1586
(dp1587
g337
g338
sg339
VS_Snow2
p1588
sg341
F1
sg342
I00
sba(imapping
Tile
p1589
(dp1590
g337
g338
sg339
VS_Snow2
p1591
sg341
F1
sg342
I00
sbaa(lp1592
NaNaNaNaNa(imapping
Tile
p1593
(dp1594
g337
g668
sg339
VS_LRamp
p1595
sg341
F0.20000000000000001
sg342
I00
sba(imapping
Tile
p1596
(dp1597
g337
g338
sg339
VS_bLRamp
p1598
sg341
F0.20000000000000001
sg342
I00
sba(imapping
Tile
p1599
(dp1600
g337
g338
sg339
VS_Snow2
p1601
sg341
F1
sg342
I00
sba(imapping
Tile
p1602
(dp1603
g337
g338
sg339
VS_Snow
p1604
sg341
F1
sg342
I00
sba(imapping
Tile
p1605
(dp1606
g337
g338
sg339
VS_Snow
p1607
sg341
F1
sg342
I00
sba(imapping
Tile
p1608
(dp1609
g337
g338
sg339
VS_Snow2
p1610
sg341
F1
sg342
I00
sba(imapping
Tile
p1611
(dp1612
g337
g338
sg339
VS_Snow2
p1613
sg341
F1
sg342
I00
sbaa(lp1614
NaNaNaNaNaNa(imapping
Tile
p1615
(dp1616
g337
g668
sg339
VS_LRamp
p1617
sg341
F0.20000000000000001
sg342
I00
sba(imapping
Tile
p1618
(dp1619
g337
g338
sg339
VS_bLRamp
p1620
sg341
F0.20000000000000001
sg342
I00
sba(imapping
Tile
p1621
(dp1622
g337
g338
sg339
VS_Snow2
p1623
sg341
F1
sg342
I00
sba(imapping
Tile
p1624
(dp1625
g337
g338
sg339
VS_Snow
p1626
sg341
F1
sg342
I00
sba(imapping
Tile
p1627
(dp1628
g337
g338
sg339
VS_Snow
p1629
sg341
F1
sg342
I00
sba(imapping
Tile
p1630
(dp1631
g337
g338
sg339
VS_Snow
p1632
sg341
F1
sg342
I00
sbaa(lp1633
NaNaNaNaNaNaNa(imapping
Tile
p1634
(dp1635
g337
g668
sg339
VS_LRamp
p1636
sg341
F0.20000000000000001
sg342
I00
sba(imapping
Tile
p1637
(dp1638
g337
g338
sg339
VS_bLRamp
p1639
sg341
F0.20000000000000001
sg342
I00
sba(imapping
Tile
p1640
(dp1641
g337
g338
sg339
VS_Snow
p1642
sg341
F1
sg342
I00
sba(imapping
Tile
p1643
(dp1644
g337
g338
sg339
VS_Snow
p1645
sg341
F1
sg342
I00
sba(imapping
Tile
p1646
(dp1647
g337
g338
sg339
VS_Snow
p1648
sg341
F1
sg342
I00
sbaa(lp1649
NaNaNaNaNaNaNaNa(imapping
Tile
p1650
(dp1651
g337
g668
sg339
VS_LRamp
p1652
sg341
F0.20000000000000001
sg342
I00
sba(imapping
Tile
p1653
(dp1654
g337
g338
sg339
VS_bLRamp
p1655
sg341
F0.20000000000000001
sg342
I00
sba(imapping
Tile
p1656
(dp1657
g337
g338
sg339
VS_Snow2
p1658
sg341
F1
sg342
I00
sba(imapping
Tile
p1659
(dp1660
g337
g338
sg339
VS_Snow2
p1661
sg341
F1
sg342
I00
sbaa(lp1662
NaNaNaNaNaNaNaNaNa(imapping
Tile
p1663
(dp1664
g337
g668
sg339
VS_LRamp
p1665
sg341
F0.20000000000000001
sg342
I00
sba(imapping
Tile
p1666
(dp1667
g337
g338
sg339
VS_bLRamp
p1668
sg341
F0.20000000000000001
sg342
I00
sba(imapping
Tile
p1669
(dp1670
g337
g338
sg339
VS_Snow
p1671
sg341
F1
sg342
I00
sbaa(lp1672
NaNaNaNaNaNaNaNaNaNa(imapping
Tile
p1673
(dp1674
g337
g338
sg339
VS_Ground1
p1675
sg341
F0.20000000000000001
sg342
I00
sba(imapping
Tile
p1676
(dp1677
g337
g338
sg339
VS_Snow
p1678
sg341
F1
sg342
I00
sbaa(lp1679
NaNaNaNaNaNaNaNaNaNa(imapping
Tile
p1680
(dp1681
g337
g338
sg339
VS_edgeright
p1682
sg341
F0.20000000000000001
sg342
I00
sba(imapping
Tile
p1683
(dp1684
g337
g338
sg339
VS_edgewright1
p1685
sg341
F0.20000000000000001
sg342
I00
sbaa(lp1686
NaNaNaNaNaNaNaNaNaNaNaNaa(lp1687
NaNaNaNaNaNaNaNaNa(imapping
Tile
p1688
(dp1689
g337
g701
sg339
VS_Railing_L
p1690
sg341
F1
sg342
I00
sbaNaNaa(lp1691
NaNaNaNaNaNaNaNaNa(imapping
Tile
p1692
(dp1693
g337
g701
sg339
VS_Railing_2
p1694
sg341
F1
sg342
I00
sbaNaNaa(lp1695
NaNaNaNaNaNaNaNaNa(imapping
Tile
p1696
(dp1697
g337
g701
sg339
VS_Railing_1
p1698
sg341
F1
sg342
I00
sbaNaNaa(lp1699
NaNaNaNaNaNaNaNaNa(imapping
Tile
p1700
(dp1701
g337
g701
sg339
VS_Railing_1
p1702
sg341
F1
sg342
I00
sbaNaNaa(lp1703
NaNaNaNaNaNaNaNaNa(imapping
Tile
p1704
(dp1705
g337
g701
sg339
VS_Railing_R
p1706
sg341
F1
sg342
I00
sbaNaNaa(lp1707
NaNaNaNaNaNaNaNaNaNaNaNaa(lp1708
NaNaNaNaNaNaNaNaNaNa(imapping
Tile
p1709
(dp1710
g337
g338
sg339
VS_edgeleft
p1711
sg341
F0.20000000000000001
sg342
I00
sba(imapping
Tile
p1712
(dp1713
g337
g338
sg339
VS_edgewleft2
p1714
sg341
F1
sg342
I00
sbaa(lp1715
NaNaNaNaNaNaNaNaNaNa(imapping
Tile
p1716
(dp1717
g337
g338
sg339
VS_Ground1
p1718
sg341
F0.20000000000000001
sg342
I00
sba(imapping
Tile
p1719
(dp1720
g337
g338
sg339
VS_Snow
p1721
sg341
F1
sg342
I00
sbaa(lp1722
NaNaNaNaNaNaNaNaNa(imapping
Tile
p1723
(dp1724
g337
g816
sg339
VS_RRamp
p1725
sg341
F0.20000000000000001
sg342
I00
sba(imapping
Tile
p1726
(dp1727
g337
g338
sg339
VS_bRRamp
p1728
sg341
F0.20000000000000001
sg342
I00
sba(imapping
Tile
p1729
(dp1730
g337
g338
sg339
VS_Snow
p1731
sg341
F1
sg342
I00
sbaa(lp1732
NaNaNaNaNaNaNaNa(imapping
Tile
p1733
(dp1734
g337
g701
sg339
VS_Railing_L
p1735
sg341
F1
sg342
I00
sba(imapping
Tile
p1736
(dp1737
g337
g338
sg339
VS_Ground1
p1738
sg341
F0.20000000000000001
sg342
I00
sba(imapping
Tile
p1739
(dp1740
g337
g338
sg339
VS_Snow2
p1741
sg341
F1
sg342
I00
sba(imapping
Tile
p1742
(dp1743
g337
g338
sg339
VS_Snow
p1744
sg341
F1
sg342
I00
sbaa(lp1745
NaNaNaNaNaNaNaNa(imapping
Tile
p1746
(dp1747
g337
g701
sg339
VS_Railing_2
p1748
sg341
F1
sg342
I00
sba(imapping
Tile
p1749
(dp1750
g337
g338
sg339
VS_Ground1
p1751
sg341
F0.20000000000000001
sg342
I00
sba(imapping
Tile
p1752
(dp1753
g337
g338
sg339
VS_Snow
p1754
sg341
F1
sg342
I00
sba(imapping
Tile
p1755
(dp1756
g337
g338
sg339
VS_Snow2
p1757
sg341
F1
sg342
I00
sbaa(lp1758
NaNaNaNaNaNaNaNa(imapping
Tile
p1759
(dp1760
g337
g701
sg339
VS_Railing_R
p1761
sg341
F1
sg342
I00
sba(imapping
Tile
p1762
(dp1763
g337
g338
sg339
VS_Ground1
p1764
sg341
F0.20000000000000001
sg342
I00
sba(imapping
Tile
p1765
(dp1766
g337
g338
sg339
VS_Snow
p1767
sg341
F1
sg342
I00
sba(imapping
Tile
p1768
(dp1769
g337
g338
sg339
VS_Snow
p1770
sg341
F1
sg342
I00
sbaa(lp1771
NaNaNaNaNaNaNaNaNa(imapping
Tile
p1772
(dp1773
g337
g338
sg339
VS_Ground1
p1774
sg341
F0.20000000000000001
sg342
I00
sba(imapping
Tile
p1775
(dp1776
g337
g338
sg339
VS_Snow
p1777
sg341
F1
sg342
I00
sba(imapping
Tile
p1778
(dp1779
g337
g338
sg339
VS_Snow
p1780
sg341
F1
sg342
I00
sbaa(lp1781
NaNaNaNaNaNaNaNaNa(imapping
Tile
p1782
(dp1783
g337
g338
sg339
VS_Ground1
p1784
sg341
F0.20000000000000001
sg342
I00
sba(imapping
Tile
p1785
(dp1786
g337
g338
sg339
VS_Snow
p1787
sg341
F1
sg342
I00
sba(imapping
Tile
p1788
(dp1789
g337
g338
sg339
VS_Snow
p1790
sg341
F1
sg342
I00
sbaa(lp1791
NaNaNaNaNaNaNaNaNa(imapping
Tile
p1792
(dp1793
g337
g338
sg339
VS_Ground1
p1794
sg341
F0.20000000000000001
sg342
I00
sba(imapping
Tile
p1795
(dp1796
g337
g338
sg339
VS_Snow
p1797
sg341
F1
sg342
I00
sba(imapping
Tile
p1798
(dp1799
g337
g338
sg339
VS_Snow
p1800
sg341
F1
sg342
I00
sbaa(lp1801
NaNaNaNaNaNaNaNaNa(imapping
Tile
p1802
(dp1803
g337
g338
sg339
VS_Ground1
p1804
sg341
F0.20000000000000001
sg342
I00
sba(imapping
Tile
p1805
(dp1806
g337
g338
sg339
VS_Snow
p1807
sg341
F1
sg342
I00
sba(imapping
Tile
p1808
(dp1809
g337
g338
sg339
VS_Snow
p1810
sg341
F1
sg342
I00
sbaa(lp1811
NaNaNaNaNaNaNaNaNa(imapping
Tile
p1812
(dp1813
g337
g338
sg339
VS_Ground1
p1814
sg341
F0.20000000000000001
sg342
I00
sba(imapping
Tile
p1815
(dp1816
g337
g338
sg339
VS_Snow
p1817
sg341
F1
sg342
I00
sba(imapping
Tile
p1818
(dp1819
g337
g338
sg339
VS_Snow
p1820
sg341
F1
sg342
I00
sbaa(lp1821
NaNaNaNaNaNaNaNaNa(imapping
Tile
p1822
(dp1823
g337
g338
sg339
VS_Ground1
p1824
sg341
F0.20000000000000001
sg342
I00
sba(imapping
Tile
p1825
(dp1826
g337
g338
sg339
VS_Snow
p1827
sg341
F1
sg342
I00
sba(imapping
Tile
p1828
(dp1829
g337
g338
sg339
VS_Snow
p1830
sg341
F1
sg342
I00
sbaa(lp1831
NaNaNaNaNaNaNaNaNa(imapping
Tile
p1832
(dp1833
g337
g338
sg339
VS_Ground1
p1834
sg341
F0.20000000000000001
sg342
I00
sba(imapping
Tile
p1835
(dp1836
g337
g338
sg339
VS_Snow
p1837
sg341
F1
sg342
I00
sba(imapping
Tile
p1838
(dp1839
g337
g338
sg339
VS_Snow
p1840
sg341
F1
sg342
I00
sbaa(lp1841
NaNaNaNaNaNaNaNaNa(imapping
Tile
p1842
(dp1843
g337
g338
sg339
VS_Ground1
p1844
sg341
F0.20000000000000001
sg342
I00
sba(imapping
Tile
p1845
(dp1846
g337
g338
sg339
VS_Snow
p1847
sg341
F1
sg342
I00
sba(imapping
Tile
p1848
(dp1849
g337
g338
sg339
VS_Snow
p1850
sg341
F1
sg342
I00
sbaa(lp1851
NaNaNaNaNaNaNaNaNa(imapping
Tile
p1852
(dp1853
g337
g338
sg339
VS_Ground1
p1854
sg341
F0.20000000000000001
sg342
I00
sba(imapping
Tile
p1855
(dp1856
g337
g338
sg339
VS_Snow
p1857
sg341
F1
sg342
I00
sba(imapping
Tile
p1858
(dp1859
g337
g338
sg339
VS_Snow
p1860
sg341
F1
sg342
I00
sbaa(lp1861
NaNaNaNaNaNaNaNaNa(imapping
Tile
p1862
(dp1863
g337
g338
sg339
VS_Ground1
p1864
sg341
F0.20000000000000001
sg342
I00
sba(imapping
Tile
p1865
(dp1866
g337
g338
sg339
VS_Snow
p1867
sg341
F1
sg342
I00
sba(imapping
Tile
p1868
(dp1869
g337
g338
sg339
VS_Snow
p1870
sg341
F1
sg342
I00
sbaa(lp1871
NaNaNaNaNaNaNaNaNa(imapping
Tile
p1872
(dp1873
g337
g338
sg339
VS_Ground1
p1874
sg341
F0.20000000000000001
sg342
I00
sba(imapping
Tile
p1875
(dp1876
g337
g338
sg339
VS_Snow
p1877
sg341
F1
sg342
I00
sba(imapping
Tile
p1878
(dp1879
g337
g338
sg339
VS_Snow
p1880
sg341
F1
sg342
I00
sbaa(lp1881
NaNaNaNaNaNaNaNaNa(imapping
Tile
p1882
(dp1883
g337
g338
sg339
VS_Ground1
p1884
sg341
F0.20000000000000001
sg342
I00
sba(imapping
Tile
p1885
(dp1886
g337
g338
sg339
VS_Snow
p1887
sg341
F1
sg342
I00
sba(imapping
Tile
p1888
(dp1889
g337
g338
sg339
VS_Snow
p1890
sg341
F1
sg342
I00
sbaa(lp1891
NaNaNaNaNaNaNaNaNa(imapping
Tile
p1892
(dp1893
g337
g338
sg339
VS_Ground1
p1894
sg341
F0.20000000000000001
sg342
I00
sba(imapping
Tile
p1895
(dp1896
g337
g338
sg339
VS_Snow
p1897
sg341
F1
sg342
I00
sba(imapping
Tile
p1898
(dp1899
g337
g338
sg339
VS_Snow
p1900
sg341
F1
sg342
I00
sbaa(lp1901
NaNaNaNaNaNaNaNaNa(imapping
Tile
p1902
(dp1903
g337
g338
sg339
VS_Ground1
p1904
sg341
F0.20000000000000001
sg342
I00
sba(imapping
Tile
p1905
(dp1906
g337
g338
sg339
VS_Snow
p1907
sg341
F1
sg342
I00
sba(imapping
Tile
p1908
(dp1909
g337
g338
sg339
VS_Snow
p1910
sg341
F1
sg342
I00
sbaa(lp1911
NaNaNaNaNaNaNaNaNa(imapping
Tile
p1912
(dp1913
g337
g338
sg339
VS_Ground1
p1914
sg341
F0.20000000000000001
sg342
I00
sba(imapping
Tile
p1915
(dp1916
g337
g338
sg339
VS_Snow
p1917
sg341
F1
sg342
I00
sba(imapping
Tile
p1918
(dp1919
g337
g338
sg339
VS_Snow
p1920
sg341
F1
sg342
I00
sbaa(lp1921
NaNaNaNaNaNaNaNaNa(imapping
Tile
p1922
(dp1923
g337
g338
sg339
VS_Ground1
p1924
sg341
F0.20000000000000001
sg342
I00
sba(imapping
Tile
p1925
(dp1926
g337
g338
sg339
VS_Snow
p1927
sg341
F1
sg342
I00
sba(imapping
Tile
p1928
(dp1929
g337
g338
sg339
VS_Snow
p1930
sg341
F1
sg342
I00
sbaa(lp1931
NaNaNaNaNaNaNaNaNa(imapping
Tile
p1932
(dp1933
g337
g338
sg339
VS_Ground1
p1934
sg341
F0.20000000000000001
sg342
I00
sba(imapping
Tile
p1935
(dp1936
g337
g338
sg339
VS_Snow
p1937
sg341
F1
sg342
I00
sba(imapping
Tile
p1938
(dp1939
g337
g338
sg339
VS_Snow
p1940
sg341
F1
sg342
I00
sbaasS'bgmusic'
p1941
VSnodom.ogg
p1942
sS'theme'
p1943
VSnow
p1944
sS'endef'
p1945
(dp1946
VBoss_Radkelu
p1947
Vboss_radkelu
p1948
sVCSpider
p1949
Vcspider
p1950
sVSnowOgre
p1951
Vsnowogre
p1952
sVWasp
p1953
Vwasp
p1954
sVPoisPod
p1955
Vpoispod
p1956
sVSpider
p1957
Vspider
p1958
sVSnowBat
p1959
Vsnowbat
p1960
sVWorm
p1961
Vworm
p1962
sVGiantJelly
p1963
Vgiantjelly
p1964
sVPod
p1965
Vpod
p1966
sVGiantWorm
p1967
Vgiantworm
p1968
ssS'tiledef'
p1969
(dp1970
VS_bLRamp
p1971
Vsnow_blramp.png
p1972
sViC_Ice
p1973
Vcaveice.png
p1974
sVF_Dirt_R2
p1975
Vdirtr_edge2.png
p1976
sVF_Dirt_R1
p1977
Vdirtr_edge1.png
p1978
sVS_Railing_1
p1979
Vsnow_railing1.png
p1980
sVS_Railing_2
p1981
Vsnow_railing2.png
p1982
sVC_Suit of Armour
p1983
Vsuit_armour.png
p1984
sVS_UCleft
p1985
Vsnow_undercorner_left.png
p1986
sVF_Right_Halframp1
p1987
VR_HR1.png
p1988
sVF_Right_Halframp2
p1989
VR_HR2.png
p1990
sVF_GrassRedge
p1991
Vgrassr_edge.png
p1992
sVS_ECleft
p1993
Vsnow_edgecorner_left.png
p1994
sViC_wr2
p1995
Vcavewr2.png
p1996
sVF_Tuft1
p1997
Vtuft1.png
p1998
sVF_Tuft2
p1999
Vtuft2.png
p2000
sVS_Tree
p2001
Vsnow_tree.png
p2002
sVF_Grass
p2003
Vgrass.png
p2004
sVS_Railing_L
p2005
Vsnow_railing_left.png
p2006
sVC_Castle HRR
p2007
Vcstl_hr_r.png
p2008
sVS_RRamp
p2009
Vsnow_rramp.png
p2010
sVC_Castle HRL
p2011
Vcstl_hr_l.png
p2012
sVS_Pillar
p2013
Vsnow_pillar.png
p2014
sVS_Railing_R
p2015
Vsnow_railing_right.png
p2016
sVS_Tree2
p2017
Vsnow_tree2.png
p2018
sVS_Ground1
p2019
Vsnow_ground1.png
p2020
sVF_Stump
p2021
Vtreestump.png
p2022
sVC_Castle Ground 2
p2023
Vcstl_ground2.png
p2024
sVC_Castle Ground 3
p2025
Vcstl_ground3.png
p2026
sVC_Castle Ground 1
p2027
Vcstl_ground1.png
p2028
sVS_Snow2
p2029
Vsnow_snow2.png
p2030
sVF_Grass_Alt_5
p2031
Vgrassc5.png
p2032
sViC_jl
p2033
Vcavejl.png
p2034
sVS_bRRamp
p2035
Vsnow_brramp.png
p2036
sViC_TopL
p2037
Vcavetl.png
p2038
sViC_Floor 1
p2039
Vcavefloor1.png
p2040
sViC_Floor 3
p2041
Vcavefloor3.png
p2042
sViC_Floor 2
p2043
Vcavefloor2.png
p2044
sViC_TopR
p2045
Vcavetr.png
p2046
sViC_jr
p2047
Vcavejr.png
p2048
sVC_Castle Floor 2
p2049
Vcstl_floor2.png
p2050
sVS_Snow
p2051
Vsnow_snow.png
p2052
sVF_Grass_Alt_2
p2053
Vgrassc2.png
p2054
sVF_ExitSign
p2055
Vexitsign.png
p2056
sVF_Grass->Dirttop
p2057
Vgrassmdirt.png
p2058
sVS_UCright
p2059
Vsnow_undercorner_right.png
p2060
sVS_Pillartop
p2061
Vsnow_pillartop.png
p2062
sViC_wr
p2063
Vcavewr.png
p2064
sVF_Dirttop->Grass
p2065
Vdirtmgrass.png
p2066
sVS_ECright
p2067
Vsnow_edgecorner_right.png
p2068
sVC_Castle HRmL
p2069
Vcstl_hr_m_l.png
p2070
sVC_Castle Wall L
p2071
Vcstl_wleft.png
p2072
sVC_Castle Wall R
p2073
Vcstl_wright.png
p2074
sVC_Castle HRmR
p2075
Vcstl_hr_m_r.png
p2076
sVF_Ice
p2077
Vtile5.png
p2078
sViC_wl
p2079
Vcavewl.png
p2080
sVC_Castle Floor 4
p2081
Vcstl_floor4.png
p2082
sVF_Grass_Alt_4
p2083
Vgrassc4.png
p2084
sVF_Grass_Alt_1
p2085
Vgrassc1.png
p2086
sVC_Castle Floor 1
p2087
Vcstl_floor1.png
p2088
sVF_Grass_Alt_3
p2089
Vgrassc3.png
p2090
sVC_Castle Floor 3
p2091
Vcstl_floor3.png
p2092
sVS_edgewleft1
p2093
Vsnow_edgewall_left1.png
p2094
sVS_edgewleft2
p2095
Vsnow_edgewall_left2.png
p2096
sVS_UCJright
p2097
Vsnow_undercorner_join_right.png
p2098
sVS_LRamp
p2099
Vsnow_lramp.png
p2100
sVC_Castle Floor Edge R
p2101
Vcstl_floor_edge_right.png
p2102
sVF_Dirt_L1
p2103
Vdirtl_edge1.png
p2104
sVF_Dirt_L2
p2105
Vdirtl_edge2.png
p2106
sVC_Castle Floor Edge L
p2107
Vcstl_floor_edge_left.png
p2108
sVF_Left_Halframp2
p2109
VL_HR2.png
p2110
sVF_Left_Halframp1
p2111
VL_HR1.png
p2112
sVF_Shrooms2
p2113
Vshrooms2.png
p2114
sVF_Shrooms3
p2115
Vshrooms3.png
p2116
sVF_Shrooms1
p2117
Vshrooms1.png
p2118
sVF_RampJoinL
p2119
Vramp_mid_dirt_l.png
p2120
sVC_Castle Wall->Floor R
p2121
Vcstl_wfright.png
p2122
sVF_RampJoinR
p2123
Vramp_mid_dirt_r.png
p2124
sVF_GrassLedge
p2125
Vgrassl_edge.png
p2126
sVS_Stones
p2127
Vsnow_stones.png
p2128
sVS_edgeright
p2129
Vsnow_edge_right.png
p2130
sVS_edgewright2
p2131
Vsnow_edgewall_right2.png
p2132
sVS_edgewright1
p2133
Vsnow_edgewall_right1.png
p2134
sVF_Dirtb
p2135
Vdirtb.png
p2136
sVF_Right_Ramp
p2137
VR_R.png
p2138
sVF_HalframpJoinL
p2139
Vhalframp_mid_dirt_l.png
p2140
sVF_Dirt_BL
p2141
Vdirtl_bedge.png
p2142
sVF_HalframpJoinR
p2143
Vhalframp_mid_dirt_r.png
p2144
sVF_Dirt_BR
p2145
Vdirtr_bedge.png
p2146
sVF_Dirtb2
p2147
Vdirtb2.png
p2148
sVF_Left_Ramp
p2149
VL_R.png
p2150
sVC_Castle Wall->Floor L
p2151
Vcstl_wfleft.png
p2152
sVS_UCJleft
p2153
Vsnow_undercorner_join_left.png
p2154
sVF_Dirt
p2155
Vdirt.png
p2156
sVF_Grass->DirtL
p2157
Vgrass_dirt_l.png
p2158
sVS_edgeleft
p2159
Vsnow_edge_left.png
p2160
sVF_Dirttop
p2161
Vdirttop.png
p2162
sVF_Dirt_Alt_4
p2163
Vdirtc4.png
p2164
sVF_Dirt_Alt_3
p2165
Vdirtc3.png
p2166
sVF_Dirt_Alt_2
p2167
Vdirtc2.png
p2168
sVF_Dirt_Alt_1
p2169
Vdirtc1.png
p2170
sVF_Grass->DirtR
p2171
Vgrass_dirt_r.png
p2172
sViC_wl2
p2173
Vcavewl2.png
p2174
ssb.