(imapping
Map
p1
(dp2
S'enemy'
p3
(lp4
(lp5
NaNaNaNaNaNaNaNaNaNaNaNaa(lp6
NaNaNaNaNaNaNaNaNaNaNaNaa(lp7
NaNaNaNaNaNaNaNaNaNaNaNaa(lp8
NaNaNaNaNaNaNaNaNaNaNaNaa(lp9
NaNaNaNaNaNaNaNaNaNaNaNaa(lp10
NaNaNaNaNaNaNaNaNaNaNaNaa(lp11
NaNaNaNaNaNaNaNaNaNaNaNaa(lp12
NaNaNaNaNaNaNaNaNaNaNaNaa(lp13
NaNaNaNaNaNaNaNaNaNaNaNaa(lp14
NaNaNaNaNaNaNaNaNaNaNaNaa(lp15
NaNaNaNaNaNaNaNaNaNaNaNaa(lp16
NaNaNaNaNaNaNaNaNaNaNaNaa(lp17
NaNaNaNaNaNaNaNaNaNaNaNaa(lp18
NaNaNaNaNaNaNaNaNaNaNaNaa(lp19
NaNaNaNaNaNaNaNaVWasp
p20
aNaNaNaa(lp21
NaNaNaNaNaNaNaNaNaNaNaNaa(lp22
NaNaNaNaNaNaNaNaNaNaNaNaa(lp23
NaNaNaNaNaNaNaNaNaNaNaNaa(lp24
NaNaNaNaNaNaNaNaNaNaNaNaa(lp25
NaNaNaNaNaNaNaNaNaNaNaNaa(lp26
NaNaNaNaNaNaNaNaNaNaNaNaa(lp27
NaNaNaNaNaNaNaNaNaNaNaNaa(lp28
NaNaNaNaNaVWorm
p29
aNaNaNaNaNaNaa(lp30
NaNaNaNaNaNaNaNaNaNaNaNaa(lp31
NaNaNaNaNaNaNaNaNaNaNaNaa(lp32
NaNaNaNaNaNaNaNaNaNaNaNaa(lp33
NaNaNaNaNaNaNaNaNaNaNaNaa(lp34
NaNaNaNaNaNaNaNaNaNaNaNaa(lp35
NaNaNaNaNaNaNaNaNaNaNaNaa(lp36
NaNaNaNaNaNaNaNaNaNaNaNaa(lp37
NaNaNaNaNaNaNaNaNaNaNaNaa(lp38
NaNaNaNaNaNaNaNaNaNaNaNaa(lp39
NaNaNaNaNaNaNaNaNaNaNaNaa(lp40
NaNaNaNaNaNaNaNaNaNaNaNaa(lp41
NaNaNaNaNaNaNaNaNaNaNaNaa(lp42
NaNaNaNaNaNaNaNaNaNaNaNaa(lp43
NaNaNaNaNaNaNaNaNaNaNaNaa(lp44
NaNaNaNaNaNaNaNaNaNaNaNaa(lp45
NaNaNaNaNaNaNaNaNaNaNaNaa(lp46
NaNaNaNaNaNaNaNaNaNaNaNaa(lp47
NaNaNaNaNaNaNaVSnowBat
p48
aNaNaNaNaa(lp49
NaNaNaNaNaNaNaNaNaNaNaNaa(lp50
NaNaNaNaNaNaNaNaNaNaNaNaa(lp51
NaNaNaNaNaNaNaNaNaNaNaNaa(lp52
NaNaNaNaNaNaNaNaNaNaNaNaa(lp53
NaNaNaNaNaNaNaNaNaNaNaNaa(lp54
NaNaNaNaNaNaNaNaNaNaNaNaa(lp55
NaNaNaNaNaNaNaNaNaNaNaNaa(lp56
NaNaNaNaNaNaNaNaNaNaNaNaa(lp57
NaNaNaNaNaNaNaNaNaNaNaNaa(lp58
NaNaNaNaNaNaNaNaNaNaNaNaa(lp59
NaNaNaNaNaNaNaNaNaNaNaNaa(lp60
NaNaNaNaNaNaNaNaNaNaNaNaa(lp61
NaNaNaNaNaNaNaNaNaNaNaNaa(lp62
NaNaNaNaNaNaNaNaNaNaNaNaa(lp63
NaNaNaNaNaNaNaNaNaNaNaNaa(lp64
NaNaNaNaNaNaNaNaNaNaNaNaa(lp65
NaNaNaNaNaNaNaNaNaNaNaNaa(lp66
NaNaNaNaNaNaNaNaNaNaNaNaa(lp67
NaNaNaNaNaNaNaNaNaNaNaNaa(lp68
NaNaNaNaNaNaNaNaNaNaNaNaa(lp69
NaNaNaNaNaNaNaNaNaNaNaNaa(lp70
NaNaNaNaNaNaNaNaNaVWasp
p71
aNaNaa(lp72
NaNaNaNaNaNaNaNaNaNaNaNaa(lp73
NaNaNaNaNaNaNaNaNaNaNaNaa(lp74
NaNaNaNaNaNaNaNaNaNaNaNaa(lp75
NaNaNaNaNaNaNaNaNaNaNaNaa(lp76
NaNaNaNaNaNaNaNaNaNaNaNaa(lp77
NaNaNaNaNaNaNaNaNaNaNaNaa(lp78
NaNaNaNaNaNaNaNaNaNaNaNaa(lp79
NaNaNaNaNaNaNaNaNaNaNaNaa(lp80
NaNaNaNaNaNaNaNaNaNaNaNaa(lp81
NaNaNaNaNaNaNaNaNaNaNaNaa(lp82
NaNaNaNaNaNaNaNaNaNaNaNaa(lp83
NaNaNaNaNaNaNaNaNaNaNaNaa(lp84
NaNaNaNaNaNaNaNaNaNaNaNaa(lp85
NaNaNaNaNaNaNaNaNaNaNaNaa(lp86
NaNaNaNaNaNaNaNaNaNaNaNaa(lp87
NaNaNaNaNaNaNaNaNaNaNaNaa(lp88
NaNaNaNaNaNaNaNaNaNaNaNaa(lp89
NaNaNaNaNaNaNaNaNaNaNaNaa(lp90
NaNaNaNaNaNaNaNaNaNaNaNaa(lp91
NaNaNaNaNaNaNaNaNaNaNaNaa(lp92
NaNaNaNaNaNaNaNaNaNaNaNaa(lp93
NaNaNaNaNaNaNaNaNaNaNaNaa(lp94
NaNaNaNaNaNaNaNaNaNaNaNaa(lp95
NaNaNaNaNaNaNaNaNaNaNaNaa(lp96
NaNaNaNaNaNaNaNaNaNaNaNaa(lp97
NaNaNaNaNaNaNaNaNaNaNaNaa(lp98
NaNaNaNaNaNaNaNaNaNaNaNaa(lp99
NaNaNaNaNaNaNaNaVWorm
p100
aNaNaNaa(lp101
NaNaNaNaNaNaNaNaNaNaNaNaa(lp102
NaNaNaNaNaNaNaNaNaNaNaNaa(lp103
NaNaNaNaNaNaNaNaNaNaNaNaa(lp104
NaNaNaNaNaNaNaNaNaNaNaNaa(lp105
NaNaNaNaNaNaNaNaNaNaNaNaa(lp106
NaNaNaNaNaNaNaNaNaNaNaNaa(lp107
NaNaNaNaNaNaNaNaNaNaNaNaa(lp108
NaNaNaNaNaNaNaNaNaNaNaNaa(lp109
NaNaNaNaNaNaNaNaNaNaNaNaa(lp110
NaNaNaNaNaNaNaNaNaNaNaNaa(lp111
NaNaNaNaNaNaNaNaNaNaNaNaa(lp112
NaNaNaNaNaNaNaNaNaNaNaNaa(lp113
NaNaNaNaNaNaNaNaNaNaNaNaa(lp114
NaNaNaNaNaNaNaNaNaNaNaNaa(lp115
NaNaNaNaNaNaNaNaNaNaNaNaa(lp116
NaNaNaNaNaNaNaNaNaNaNaNaa(lp117
NaNaNaNaNaNaNaNaNaNaNaNaa(lp118
NaNaNaNaNaNaNaNaNaNaNaNaa(lp119
NaNaNaNaNaNaNaNaNaNaNaNaa(lp120
NaNaNaNaNaNaNaNaNaNaNaNaa(lp121
NaNaNaNaNaNaNaNaNaNaNaNaa(lp122
NaNaNaNaNaNaNaNaNaNaNaNaa(lp123
NaNaNaNaNaNaNaNaNaNaNaNaa(lp124
NaNaNaNaNaNaNaNaNaNaNaNaa(lp125
NaNaNaNaNaNaNaNaNaNaNaNaa(lp126
NaNaNaNaNaNaNaNaNaNaNaNaa(lp127
NaNaNaNaNaNaNaNaNaNaNaNaa(lp128
NaNaNaNaNaNaNaNaNaNaNaNaa(lp129
NaNaNaNaNaNaNaNaNaNaNaNaa(lp130
NaNaNaNaNaNaNaNaNaNaNaNaa(lp131
NaNaNaNaNaNaNaNaNaNaNaNaa(lp132
NaNaNaNaNaNaNaNaNaNaNaNaa(lp133
NaNaNaNaNaNaNaNaNaNaNaNaa(lp134
NaNaNaNaNaNaNaNaNaNaNaNaa(lp135
NaNaNaNaNaNaNaNaNaNaNaNaa(lp136
NaNaNaNaNaNaNaNaNaNaNaNaa(lp137
NaNaNaNaNaNaNaNaNaNaNaNaasS'objdef'
p138
(dp139
VButterfly
p140
VButterfly.png
p141
sVLevel_End
p142
VEnd.png
p143
sVShield
p144
VShield.png
p145
sVPlayer_Start
p146
VStart.png
p147
sVLever_Snow
p148
VLever1.png
p149
sVTorchref
p150
VTorchref.png
p151
sVWalltorch
p152
VWalltorch.png
p153
sVFirepit
p154
VPit.png
p155
sVButterflyC
p156
VButterflyC.png
p157
sVButterflyB
p158
VButterflyB.png
p159
sVSword
p160
VSword.png
p161
sVTreasureBoxC
p162
VTreasureC_Closed.png
p163
sVTreasureBoxB
p164
VTreasureB_Closed.png
p165
sVTreasureBox
p166
VTreasure_Closed.png
p167
sVFallingRock
p168
VRock.png
p169
sVObelisk_Snow
p170
VObelisk_Snow.png
p171
ssS'obj'
p172
(lp173
(lp174
NaNaNaNaNaNaNaNaNaNaNaNaa(lp175
NaNaNaNaNaNaNaVPlayer_Start
p176
aNaNaNaNaa(lp177
NaNaNaNaNaNaNaNaNaNaNaNaa(lp178
NaNaNaNaNaNaNaNaNaNaNaNaa(lp179
NaNaNaNaNaNaNaNaNaNaNaNaa(lp180
NaNaNaNaNaNaNaVTreasureBoxC
p181
aNaNaNaNaa(lp182
NaNaNaNaNaNaNaNaNaNaNaNaa(lp183
NaNaNaNaNaNaNaNaNaNaNaNaa(lp184
NaNaNaNaNaNaNaNaNaNaNaNaa(lp185
NaNaNaNaNaNaNaNaNaNaNaNaa(lp186
NaNaNaNaNaNaNaNaNaNaNaNaa(lp187
NaNaNaNaNaNaNaNaNaNaNaNaa(lp188
NaNaNaNaNaNaNaNaNaNaNaNaa(lp189
NaNaNaNaNaNaNaNaNaNaNaNaa(lp190
NaNaNaNaNaNaNaNaNaNaNaNaa(lp191
NaNaNaNaNaNaNaNaNaNaNaNaa(lp192
NaNaNaNaNaNaNaNaNaNaNaNaa(lp193
NaNaNaNaNaNaNaNaNaNaNaNaa(lp194
NaNaNaNaNaNaNaNaNaNaNaNaa(lp195
NaNaNaNaNaNaNaNaNaNaNaNaa(lp196
NaNaNaNaNaNaNaNaNaNaNaNaa(lp197
NaNaNaNaNaNaNaNaNaNaNaNaa(lp198
NaNaNaNaNaNaNaNaNaNaNaNaa(lp199
NaNaNaNaNaNaNaNaNaNaNaNaa(lp200
NaNaNaNaNaNaNaNaNaNaNaNaa(lp201
NaNaNaNaNaNaNaNaNaNaNaNaa(lp202
NaNaNaNaNaNaNaNaNaNaNaNaa(lp203
NaNaNaNaNaNaNaNaNaNaNaNaa(lp204
NaNaNaNaNaVLever_Snow
p205
aNaNaNaNaNaNaa(lp206
NaNaNaNaNaNaNaNaNaNaNaNaa(lp207
NaNaNaNaNaNaNaNaNaNaNaNaa(lp208
NaNaNaNaNaNaNaNaNaNaNaNaa(lp209
NaNaNaNaNaNaNaNaNaNaNaNaa(lp210
NaNaNaNaNaNaVFirepit
p211
aNaNaNaNaNaa(lp212
NaNaNaNaNaNaNaNaNaNaNaNaa(lp213
NaNaNaNaNaNaNaNaNaNaNaNaa(lp214
NaNaNaNaNaNaNaNaNaNaNaNaa(lp215
NaNaNaNaNaNaNaNaNaNaNaNaa(lp216
NaNaNaNaNaNaNaNaNaNaNaNaa(lp217
NaNaNaNaNaNaNaNaNaNaNaNaa(lp218
NaNaNaNaNaNaNaNaNaVLever_Snow
p219
aNaNaa(lp220
NaNaNaNaNaNaNaNaNaNaNaNaa(lp221
NaNaNaNaNaNaNaNaNaNaNaNaa(lp222
NaNaNaNaNaNaNaNaNaNaNaNaa(lp223
NaNaNaNaNaNaNaNaNaNaNaNaa(lp224
NaNaNaNaNaNaVFirepit
p225
aNaNaNaNaNaa(lp226
NaNaNaNaNaNaVObelisk_Snow
p227
aNaNaNaNaNaa(lp228
NaNaNaNaNaNaNaNaNaNaNaNaa(lp229
NaNaNaNaNaNaNaNaNaNaNaNaa(lp230
NaNaNaNaVButterfly
p231
aNaNaNaNaNaNaNaa(lp232
NaNaNaNaNaNaNaNaNaNaNaNaa(lp233
NaNaNaNaNaNaNaNaNaNaNaNaa(lp234
NaNaNaNaNaNaNaNaNaNaNaNaa(lp235
NaNaNaNaNaNaVTreasureBoxC
p236
aNaNaNaNaNaa(lp237
NaNaNaNaNaNaNaNaNaNaNaNaa(lp238
NaNaNaNaNaNaNaNaNaNaNaNaa(lp239
NaNaNaNaNaNaNaNaNaNaNaNaa(lp240
NaNaNaNaNaNaNaNaNaNaNaNaa(lp241
NaNaNaNaNaNaNaNaNaNaNaNaa(lp242
NaNaNaNaNaNaNaNaNaNaNaNaa(lp243
NaNaNaNaNaNaNaNaNaNaNaNaa(lp244
NaNaNaNaNaNaNaNaNaNaNaNaa(lp245
NaNaNaNaNaNaNaNaNaNaNaNaa(lp246
NaNaNaNaNaNaNaNaNaNaNaNaa(lp247
NaNaNaNaNaNaNaNaNaNaNaNaa(lp248
NaNaNaNaNaNaNaNaNaNaNaNaa(lp249
NaNaNaNaNaNaNaNaNaNaNaNaa(lp250
NaNaNaNaNaNaNaNaNaNaNaNaa(lp251
NaNaNaNaNaNaNaNaNaNaNaNaa(lp252
NaNaNaNaNaNaNaNaNaNaNaNaa(lp253
NaNaNaNaNaNaNaNaNaNaNaNaa(lp254
NaNaNaNaNaNaNaNaNaNaNaNaa(lp255
NaNaNaNaNaNaNaNaNaNaNaNaa(lp256
NaNaNaNaNaNaNaNaNaNaNaNaa(lp257
NaNaNaNaNaNaNaNaNaNaNaNaa(lp258
NaNaNaNaNaNaNaNaNaNaNaNaa(lp259
NaNaNaNaNaNaNaNaNaNaNaNaa(lp260
NaNaNaNaNaNaNaNaNaNaNaNaa(lp261
NaNaNaNaNaNaNaNaNaNaNaNaa(lp262
NaNaNaNaNaNaNaNaNaNaNaNaa(lp263
NaNaNaNaNaNaNaNaNaNaNaNaa(lp264
NaNaNaNaNaNaNaNaNaNaNaNaa(lp265
NaNaNaNaNaNaNaNaNaNaNaNaa(lp266
NaNaNaNaNaNaNaNaNaNaNaNaa(lp267
NaNaNaNaNaNaNaNaNaNaNaNaa(lp268
NaNaNaNaNaNaNaNaNaNaNaNaa(lp269
NaNaNaNaNaNaNaNaNaNaNaNaa(lp270
NaNaNaNaNaNaNaNaNaNaNaNaa(lp271
NaNaNaNaNaNaNaNaNaNaNaNaa(lp272
NaNaNaNaNaNaNaNaNaNaNaNaa(lp273
NaNaNaNaNaNaNaNaNaNaNaNaa(lp274
NaNaNaNaNaNaNaNaNaNaNaNaa(lp275
NaNaNaNaNaNaNaNaNaNaNaNaa(lp276
NaNaNaNaNaNaNaNaNaNaNaNaa(lp277
NaNaNaNaNaNaNaNaNaNaNaNaa(lp278
NaNaNaNaNaNaNaNaNaNaNaNaa(lp279
NaNaNaNaNaNaNaNaNaNaNaNaa(lp280
NaNaNaNaNaNaNaNaNaNaNaNaa(lp281
NaNaNaNaNaNaNaNaNaNaNaNaa(lp282
NaNaNaNaNaNaNaNaNaNaNaNaa(lp283
NaNaNaNaNaNaNaNaNaNaNaNaa(lp284
NaNaNaNaVLevel_End
p285
aNaNaNaNaNaNaNaa(lp286
NaNaNaNaNaNaNaNaNaNaNaNaa(lp287
NaNaNaNaNaNaNaNaNaNaNaNaa(lp288
NaNaNaNaNaNaNaNaNaNaNaNaa(lp289
NaNaNaNaNaNaNaNaNaNaNaNaa(lp290
NaNaNaNaNaNaNaNaNaNaNaNaa(lp291
NaNaNaNaNaNaNaNaNaNaNaNaa(lp292
NaNaNaNaNaNaNaNaNaNaNaNaa(lp293
NaNaNaNaNaNaNaNaNaNaNaNaa(lp294
NaNaNaNaNaNaNaNaNaNaNaNaa(lp295
NaNaNaNaNaNaNaNaNaNaNaNaa(lp296
NaNaNaNaNaNaNaNaNaNaNaNaa(lp297
NaNaNaNaNaNaNaNaNaNaNaNaa(lp298
NaNaNaNaNaNaNaNaNaNaNaNaa(lp299
NaNaNaNaNaNaNaNaNaNaNaNaa(lp300
NaNaNaNaNaNaNaNaNaNaNaNaa(lp301
NaNaNaNaNaNaNaNaNaNaNaNaa(lp302
NaNaNaNaNaNaNaNaNaNaNaNaa(lp303
NaNaNaNaNaNaNaNaNaNaNaNaa(lp304
NaNaNaNaNaNaNaNaNaNaNaNaa(lp305
NaNaNaNaNaNaNaNaNaNaNaNaa(lp306
NaNaNaNaNaNaNaNaNaNaNaNaa(lp307
NaNaNaNaNaNaNaNaNaNaNaNaa(lp308
NaNaNaNaNaNaNaNaNaNaNaNaa(lp309
NaNaNaNaNaNaNaNaNaNaNaNaa(lp310
NaNaNaNaNaNaNaNaNaNaNaNaa(lp311
NaNaNaNaNaNaNaNaNaNaNaNaasS'name'
p312
Vsnodom1
p313
sS'map'
p314
(lp315
(lp316
NaNaNa(imapping
Tile
p317
(dp318
S'collidetype'
p319
S'NONE'
p320
sS'type'
p321
VS_Railing_R
p322
sS'friction'
p323
F1
sS'overhead'
p324
I00
sba(imapping
Tile
p325
(dp326
g319
S'BOX'
p327
sg321
VS_edgeright
p328
sg323
F1
sg324
I00
sba(imapping
Tile
p329
(dp330
g319
g327
sg321
VS_edgewright2
p331
sg323
F1
sg324
I00
sba(imapping
Tile
p332
(dp333
g319
g327
sg321
VS_edgewright1
p334
sg323
F1
sg324
I00
sba(imapping
Tile
p335
(dp336
g319
g327
sg321
VS_edgewright2
p337
sg323
F1
sg324
I00
sba(imapping
Tile
p338
(dp339
g319
g327
sg321
VS_ECleft
p340
sg323
F1
sg324
I00
sba(imapping
Tile
p341
(dp342
g319
g327
sg321
VS_Snow2
p343
sg323
F1
sg324
I00
sba(imapping
Tile
p344
(dp345
g319
g327
sg321
VS_Snow2
p346
sg323
F1
sg324
I00
sba(imapping
Tile
p347
(dp348
g319
g327
sg321
VS_Snow
p349
sg323
F1
sg324
I00
sbaa(lp350
NaNaNaNaNaNaNaNa(imapping
Tile
p351
(dp352
g319
g327
sg321
VS_Ground1
p353
sg323
F0.20000000000000001
sg324
I00
sba(imapping
Tile
p354
(dp355
g319
g327
sg321
VS_Snow
p356
sg323
F1
sg324
I00
sba(imapping
Tile
p357
(dp358
g319
g327
sg321
VS_Snow2
p359
sg323
F1
sg324
I00
sba(imapping
Tile
p360
(dp361
g319
g327
sg321
VS_Snow
p362
sg323
F1
sg324
I00
sbaa(lp363
NaNaNaNaNaNaNaNa(imapping
Tile
p364
(dp365
g319
g327
sg321
VS_Ground1
p366
sg323
F0.20000000000000001
sg324
I00
sba(imapping
Tile
p367
(dp368
g319
g327
sg321
VS_Snow2
p369
sg323
F1
sg324
I00
sba(imapping
Tile
p370
(dp371
g319
g327
sg321
VS_Snow
p372
sg323
F1
sg324
I00
sba(imapping
Tile
p373
(dp374
g319
g327
sg321
VS_Snow2
p375
sg323
F1
sg324
I00
sbaa(lp376
NaNaNaNaNaNaNa(imapping
Tile
p377
(dp378
g319
g320
sg321
VS_Tree
p379
sg323
F1
sg324
I00
sba(imapping
Tile
p380
(dp381
g319
g327
sg321
VS_Ground1
p382
sg323
F0.20000000000000001
sg324
I00
sba(imapping
Tile
p383
(dp384
g319
g327
sg321
VS_Snow2
p385
sg323
F1
sg324
I00
sba(imapping
Tile
p386
(dp387
g319
g327
sg321
VS_Snow2
p388
sg323
F1
sg324
I00
sba(imapping
Tile
p389
(dp390
g319
g327
sg321
VS_Snow2
p391
sg323
F1
sg324
I00
sbaa(lp392
NaNaNaNaNaNaNaNa(imapping
Tile
p393
(dp394
g319
g327
sg321
VS_Ground1
p395
sg323
F0.20000000000000001
sg324
I00
sba(imapping
Tile
p396
(dp397
g319
g327
sg321
VS_Snow2
p398
sg323
F1
sg324
I00
sba(imapping
Tile
p399
(dp400
g319
g327
sg321
VS_Snow2
p401
sg323
F1
sg324
I00
sba(imapping
Tile
p402
(dp403
g319
g327
sg321
VS_Snow2
p404
sg323
F1
sg324
I00
sbaa(lp405
NaNaNaNaNaNaNaNa(imapping
Tile
p406
(dp407
g319
g327
sg321
VS_Ground1
p408
sg323
F0.20000000000000001
sg324
I00
sba(imapping
Tile
p409
(dp410
g319
g327
sg321
VS_Snow
p411
sg323
F1
sg324
I00
sba(imapping
Tile
p412
(dp413
g319
g327
sg321
VS_Snow2
p414
sg323
F1
sg324
I00
sba(imapping
Tile
p415
(dp416
g319
g327
sg321
VS_Snow2
p417
sg323
F1
sg324
I00
sbaa(lp418
NaNaNaNaNaNaNaNa(imapping
Tile
p419
(dp420
g319
g327
sg321
VS_Ground1
p421
sg323
F0.20000000000000001
sg324
I00
sba(imapping
Tile
p422
(dp423
g319
g327
sg321
VS_Snow
p424
sg323
F1
sg324
I00
sba(imapping
Tile
p425
(dp426
g319
g327
sg321
VS_Snow
p427
sg323
F1
sg324
I00
sba(imapping
Tile
p428
(dp429
g319
g327
sg321
VS_Snow
p430
sg323
F1
sg324
I00
sbaa(lp431
NaNaNaNaNaNaNaNa(imapping
Tile
p432
(dp433
g319
S'LEFT_INCLINATION'
p434
sg321
VS_LRamp
p435
sg323
F0.20000000000000001
sg324
I00
sba(imapping
Tile
p436
(dp437
g319
g327
sg321
VS_bLRamp
p438
sg323
F1
sg324
I00
sba(imapping
Tile
p439
(dp440
g319
g327
sg321
VS_Snow
p441
sg323
F1
sg324
I00
sba(imapping
Tile
p442
(dp443
g319
g327
sg321
VS_Snow2
p444
sg323
F1
sg324
I00
sbaa(lp445
NaNaNaNaNaNaNaNaNa(imapping
Tile
p446
(dp447
g319
g327
sg321
VS_Ground1
p448
sg323
F0.20000000000000001
sg324
I00
sba(imapping
Tile
p449
(dp450
g319
g327
sg321
VS_Snow
p451
sg323
F1
sg324
I00
sba(imapping
Tile
p452
(dp453
g319
g327
sg321
VS_Snow2
p454
sg323
F1
sg324
I00
sbaa(lp455
NaNaNaNaNaNaNaNaNa(imapping
Tile
p456
(dp457
g319
g327
sg321
VS_Ground1
p458
sg323
F0.20000000000000001
sg324
I00
sba(imapping
Tile
p459
(dp460
g319
g327
sg321
VS_Snow
p461
sg323
F1
sg324
I00
sba(imapping
Tile
p462
(dp463
g319
g327
sg321
VS_Snow2
p464
sg323
F1
sg324
I00
sbaa(lp465
NaNaNaNaNaNaNaNaNa(imapping
Tile
p466
(dp467
g319
g434
sg321
VS_LRamp
p468
sg323
F0.20000000000000001
sg324
I00
sba(imapping
Tile
p469
(dp470
g319
g327
sg321
VS_bLRamp
p471
sg323
F1
sg324
I00
sba(imapping
Tile
p472
(dp473
g319
g327
sg321
VS_Snow
p474
sg323
F1
sg324
I00
sbaa(lp475
NaNaNaNaNaNaNaNaNa(imapping
Tile
p476
(dp477
g319
g320
sg321
VS_Tree2
p478
sg323
F1
sg324
I00
sba(imapping
Tile
p479
(dp480
g319
g327
sg321
VS_Ground1
p481
sg323
F0.20000000000000001
sg324
I00
sba(imapping
Tile
p482
(dp483
g319
g327
sg321
VS_Snow
p484
sg323
F1
sg324
I00
sbaa(lp485
NaNaNaNaNaNaNaNaNaNa(imapping
Tile
p486
(dp487
g319
g327
sg321
VS_Ground1
p488
sg323
F0.20000000000000001
sg324
I00
sba(imapping
Tile
p489
(dp490
g319
g327
sg321
VS_Snow
p491
sg323
F1
sg324
I00
sbaa(lp492
NaNaNaNaNaNaNaNaNaNa(imapping
Tile
p493
(dp494
g319
g434
sg321
VS_LRamp
p495
sg323
F0.20000000000000001
sg324
I00
sba(imapping
Tile
p496
(dp497
g319
g327
sg321
VS_bLRamp
p498
sg323
F1
sg324
I00
sbaa(lp499
NaNaNaNaNaNaNaNaNaNaNa(imapping
Tile
p500
(dp501
g319
g327
sg321
VS_Ground1
p502
sg323
F0.20000000000000001
sg324
I00
sbaa(lp503
NaNaNaNaNaNaNaNaNaNaNa(imapping
Tile
p504
(dp505
g319
g327
sg321
VS_Ground1
p506
sg323
F0.20000000000000001
sg324
I00
sbaa(lp507
NaNaNaNaNaNaNa(imapping
Tile
p508
(dp509
g319
g320
sg321
VS_Railing_L
p510
sg323
F1
sg324
I00
sba(imapping
Tile
p511
(dp512
g319
g327
sg321
VS_edgeleft
p513
sg323
F1
sg324
I00
sba(imapping
Tile
p514
(dp515
g319
g327
sg321
VS_edgewleft1
p516
sg323
F1
sg324
I00
sba(imapping
Tile
p517
(dp518
g319
g327
sg321
VS_edgewleft1
p519
sg323
F1
sg324
I00
sba(imapping
Tile
p520
(dp521
g319
g327
sg321
VS_bRRamp
p522
sg323
F1
sg324
I00
sbaa(lp523
NaNaNaNaNaNaNa(imapping
Tile
p524
(dp525
g319
g320
sg321
VS_Railing_R
p526
sg323
F1
sg324
I00
sba(imapping
Tile
p527
(dp528
g319
g327
sg321
VS_Ground1
p529
sg323
F0.20000000000000001
sg324
I00
sba(imapping
Tile
p530
(dp531
g319
g327
sg321
VS_Snow
p532
sg323
F1
sg324
I00
sba(imapping
Tile
p533
(dp534
g319
g327
sg321
VS_Snow
p535
sg323
F1
sg324
I00
sba(imapping
Tile
p536
(dp537
g319
g327
sg321
VS_Snow
p538
sg323
F1
sg324
I00
sbaa(lp539
NaNaNaNaNaNaNaNa(imapping
Tile
p540
(dp541
g319
g434
sg321
VS_LRamp
p542
sg323
F0.20000000000000001
sg324
I00
sba(imapping
Tile
p543
(dp544
g319
g327
sg321
VS_bLRamp
p545
sg323
F1
sg324
I00
sba(imapping
Tile
p546
(dp547
g319
g327
sg321
VS_Snow2
p548
sg323
F1
sg324
I00
sba(imapping
Tile
p549
(dp550
g319
g327
sg321
VS_Snow2
p551
sg323
F1
sg324
I00
sbaa(lp552
NaNaNaNaNaNaNaNaNa(imapping
Tile
p553
(dp554
g319
g327
sg321
VS_Ground1
p555
sg323
F0.20000000000000001
sg324
I00
sba(imapping
Tile
p556
(dp557
g319
g327
sg321
VS_Snow
p558
sg323
F1
sg324
I00
sba(imapping
Tile
p559
(dp560
g319
g327
sg321
VS_Snow2
p561
sg323
F1
sg324
I00
sbaa(lp562
NaNaNaNaNaNaNaNaNa(imapping
Tile
p563
(dp564
g319
g327
sg321
VS_Ground1
p565
sg323
F0.20000000000000001
sg324
I00
sba(imapping
Tile
p566
(dp567
g319
g327
sg321
VS_Snow
p568
sg323
F1
sg324
I00
sba(imapping
Tile
p569
(dp570
g319
g327
sg321
VS_Snow2
p571
sg323
F1
sg324
I00
sbaa(lp572
NaNaNaNaNaNa(imapping
Tile
p573
(dp574
g319
g320
sg321
VF_Shrooms2
p575
sg323
F1
sg324
I00
sba(imapping
Tile
p576
(dp577
g319
g327
sg321
VS_edgeleft
p578
sg323
F1
sg324
I00
sba(imapping
Tile
p579
(dp580
g319
g327
sg321
VS_edgewleft2
p581
sg323
F1
sg324
I00
sba(imapping
Tile
p582
(dp583
g319
g327
sg321
VS_ECright
p584
sg323
F1
sg324
I00
sba(imapping
Tile
p585
(dp586
g319
g327
sg321
VS_Snow
p587
sg323
F1
sg324
I00
sba(imapping
Tile
p588
(dp589
g319
g327
sg321
VS_Snow
p590
sg323
F1
sg324
I00
sbaa(lp591
NaNaNaNaNa(imapping
Tile
p592
(dp593
g319
g320
sg321
VS_Tree
p594
sg323
F1
sg324
I00
sba(imapping
Tile
p595
(dp596
g319
g327
sg321
VS_edgeleft
p597
sg323
F1
sg324
I00
sba(imapping
Tile
p598
(dp599
g319
g327
sg321
VS_ECright
p600
sg323
F1
sg324
I00
sba(imapping
Tile
p601
(dp602
g319
g327
sg321
VS_Snow
p603
sg323
F1
sg324
I00
sba(imapping
Tile
p604
(dp605
g319
g327
sg321
VS_UCJright
p606
sg323
F1
sg324
I00
sba(imapping
Tile
p607
(dp608
g319
g327
sg321
VS_edgewright2
p609
sg323
F1
sg324
I00
sba(imapping
Tile
p610
(dp611
g319
g327
sg321
VS_edgewright1
p612
sg323
F1
sg324
I00
sbaa(lp613
NaNaNaNa(imapping
Tile
p614
(dp615
g319
g320
sg321
VS_Tree2
p616
sg323
F1
sg324
I00
sba(imapping
Tile
p617
(dp618
g319
g327
sg321
VS_edgeleft
p619
sg323
F1
sg324
I00
sba(imapping
Tile
p620
(dp621
g319
g327
sg321
VS_ECright
p622
sg323
F1
sg324
I00
sba(imapping
Tile
p623
(dp624
g319
g327
sg321
VS_Snow
p625
sg323
F1
sg324
I00
sba(imapping
Tile
p626
(dp627
g319
g327
sg321
VS_UCJright
p628
sg323
F1
sg324
I00
sba(imapping
Tile
p629
(dp630
g319
g327
sg321
VS_UCright
p631
sg323
F1
sg324
I00
sbaNaNaa(lp632
NaNaNaNaNa(imapping
Tile
p633
(dp634
g319
g327
sg321
VS_edgeright
p635
sg323
F1
sg324
I00
sba(imapping
Tile
p636
(dp637
g319
g327
sg321
VS_edgewright2
p638
sg323
F1
sg324
I00
sba(imapping
Tile
p639
(dp640
g319
g327
sg321
VS_edgewright1
p641
sg323
F1
sg324
I00
sba(imapping
Tile
p642
(dp643
g319
g327
sg321
VS_UCright
p644
sg323
F1
sg324
I00
sbaNaNaNaa(lp645
NaNaNaNaNaNaNaNaNaNaNaNaa(lp646
NaNaNaNaNaNa(imapping
Tile
p647
(dp648
g319
g327
sg321
VS_edgeleft
p649
sg323
F1
sg324
I00
sba(imapping
Tile
p650
(dp651
g319
g327
sg321
VS_edgewleft2
p652
sg323
F1
sg324
I00
sba(imapping
Tile
p653
(dp654
g319
g327
sg321
VS_edgewleft2
p655
sg323
F1
sg324
I00
sba(imapping
Tile
p656
(dp657
g319
g327
sg321
VS_edgewleft1
p658
sg323
F1
sg324
I00
sba(imapping
Tile
p659
(dp660
g319
g327
sg321
VS_UCleft
p661
sg323
F1
sg324
I00
sbaNaa(lp662
NaNaNaNaNaNa(imapping
Tile
p663
(dp664
g319
g327
sg321
VS_Ground1
p665
sg323
F0.20000000000000001
sg324
I00
sba(imapping
Tile
p666
(dp667
g319
g327
sg321
VS_Snow
p668
sg323
F1
sg324
I00
sba(imapping
Tile
p669
(dp670
g319
g327
sg321
VS_Snow2
p671
sg323
F1
sg324
I00
sba(imapping
Tile
p672
(dp673
g319
g327
sg321
VS_Snow2
p674
sg323
F1
sg324
I00
sba(imapping
Tile
p675
(dp676
g319
g327
sg321
VS_UCJleft
p677
sg323
F1
sg324
I00
sba(imapping
Tile
p678
(dp679
g319
g327
sg321
VS_UCleft
p680
sg323
F1
sg324
I00
sbaa(lp681
NaNaNaNaNaNa(imapping
Tile
p682
(dp683
g319
g327
sg321
VS_Ground1
p684
sg323
F0.20000000000000001
sg324
I00
sba(imapping
Tile
p685
(dp686
g319
g327
sg321
VS_Snow
p687
sg323
F1
sg324
I00
sba(imapping
Tile
p688
(dp689
g319
g327
sg321
VS_Snow2
p690
sg323
F1
sg324
I00
sba(imapping
Tile
p691
(dp692
g319
g327
sg321
VS_Snow2
p693
sg323
F1
sg324
I00
sba(imapping
Tile
p694
(dp695
g319
g327
sg321
VS_Snow2
p696
sg323
F1
sg324
I00
sba(imapping
Tile
p697
(dp698
g319
g327
sg321
VS_UCJleft
p699
sg323
F1
sg324
I00
sbaa(lp700
NaNaNaNaNaNa(imapping
Tile
p701
(dp702
g319
g434
sg321
VS_LRamp
p703
sg323
F0.20000000000000001
sg324
I00
sba(imapping
Tile
p704
(dp705
g319
g327
sg321
VS_bLRamp
p706
sg323
F1
sg324
I00
sba(imapping
Tile
p707
(dp708
g319
g327
sg321
VS_Snow
p709
sg323
F1
sg324
I00
sba(imapping
Tile
p710
(dp711
g319
g327
sg321
VS_Snow
p712
sg323
F1
sg324
I00
sba(imapping
Tile
p713
(dp714
g319
g327
sg321
VS_Snow
p715
sg323
F1
sg324
I00
sba(imapping
Tile
p716
(dp717
g319
g327
sg321
VS_Snow
p718
sg323
F1
sg324
I00
sbaa(lp719
NaNaNaNaNaNaNa(imapping
Tile
p720
(dp721
g319
g327
sg321
VS_edgeright
p722
sg323
F1
sg324
I00
sba(imapping
Tile
p723
(dp724
g319
g327
sg321
VS_edgewright1
p725
sg323
F1
sg324
I00
sba(imapping
Tile
p726
(dp727
g319
g327
sg321
VS_edgewright2
p728
sg323
F1
sg324
I00
sba(imapping
Tile
p729
(dp730
g319
g327
sg321
VS_edgewright1
p731
sg323
F1
sg324
I00
sba(imapping
Tile
p732
(dp733
g319
g327
sg321
VS_edgewright2
p734
sg323
F1
sg324
I00
sbaa(lp735
NaNaNaNaNaNaNaNaNaNaNaNaa(lp736
NaNaNaNaNaNaNa(imapping
Tile
p737
(dp738
g319
g327
sg321
VS_edgeleft
p739
sg323
F1
sg324
I00
sba(imapping
Tile
p740
(dp741
g319
g327
sg321
VS_edgewleft1
p742
sg323
F1
sg324
I00
sba(imapping
Tile
p743
(dp744
g319
g327
sg321
VS_edgewleft2
p745
sg323
F1
sg324
I00
sba(imapping
Tile
p746
(dp747
g319
g327
sg321
VS_edgewleft1
p748
sg323
F1
sg324
I00
sba(imapping
Tile
p749
(dp750
g319
g327
sg321
VS_edgewleft2
p751
sg323
F1
sg324
I00
sbaa(lp752
NaNaNaNaNaNaNa(imapping
Tile
p753
(dp754
g319
g327
sg321
VS_Ground1
p755
sg323
F0.20000000000000001
sg324
I00
sba(imapping
Tile
p756
(dp757
g319
g327
sg321
VS_Snow
p758
sg323
F1
sg324
I00
sba(imapping
Tile
p759
(dp760
g319
g327
sg321
VS_Snow2
p761
sg323
F1
sg324
I00
sba(imapping
Tile
p762
(dp763
g319
g327
sg321
VS_Snow
p764
sg323
F1
sg324
I00
sba(imapping
Tile
p765
(dp766
g319
g327
sg321
VS_Snow2
p767
sg323
F1
sg324
I00
sbaa(lp768
NaNaNaNaNaNaNa(imapping
Tile
p769
(dp770
g319
g327
sg321
VS_edgeright
p771
sg323
F1
sg324
I00
sba(imapping
Tile
p772
(dp773
g319
g327
sg321
VS_edgewright1
p774
sg323
F1
sg324
I00
sba(imapping
Tile
p775
(dp776
g319
g327
sg321
VS_edgewright2
p777
sg323
F1
sg324
I00
sba(imapping
Tile
p778
(dp779
g319
g327
sg321
VS_edgewright2
p780
sg323
F1
sg324
I00
sba(imapping
Tile
p781
(dp782
g319
g327
sg321
VS_edgewright1
p783
sg323
F1
sg324
I00
sbaa(lp784
NaNaNaNaNaNaNaNaNaNaNaNaa(lp785
NaNaNaNaNaNaNaNaNaNaNaNaa(lp786
NaNaNaNaNaNaNaNaNa(imapping
Tile
p787
(dp788
g319
g327
sg321
VS_edgeleft
p789
sg323
F1
sg324
I00
sba(imapping
Tile
p790
(dp791
g319
g327
sg321
VS_edgewleft1
p792
sg323
F1
sg324
I00
sba(imapping
Tile
p793
(dp794
g319
g327
sg321
VS_edgewleft2
p795
sg323
F1
sg324
I00
sbaa(lp796
NaNaNaNaNaNaNaNaNa(imapping
Tile
p797
(dp798
g319
g434
sg321
VS_LRamp
p799
sg323
F0.20000000000000001
sg324
I00
sba(imapping
Tile
p800
(dp801
g319
g327
sg321
VS_bLRamp
p802
sg323
F1
sg324
I00
sba(imapping
Tile
p803
(dp804
g319
g327
sg321
VS_Snow
p805
sg323
F1
sg324
I00
sbaa(lp806
NaNaNaNaNaNaNaNaNa(imapping
Tile
p807
(dp808
g319
g320
sg321
VS_Railing_L
p809
sg323
F1
sg324
I00
sba(imapping
Tile
p810
(dp811
g319
g327
sg321
VS_Ground1
p812
sg323
F0.20000000000000001
sg324
I00
sba(imapping
Tile
p813
(dp814
g319
g327
sg321
VS_Snow
p815
sg323
F1
sg324
I00
sbaa(lp816
NaNaNaNaNaNaNaNaNa(imapping
Tile
p817
(dp818
g319
g320
sg321
VS_Railing_2
p819
sg323
F1
sg324
I00
sba(imapping
Tile
p820
(dp821
g319
g327
sg321
VS_Ground1
p822
sg323
F0.20000000000000001
sg324
I00
sba(imapping
Tile
p823
(dp824
g319
g327
sg321
VS_Snow2
p825
sg323
F1
sg324
I00
sbaa(lp826
NaNaNaNaNaNaNaNaNa(imapping
Tile
p827
(dp828
g319
g320
sg321
VS_Tree
p829
sg323
F1
sg324
I00
sba(imapping
Tile
p830
(dp831
g319
g327
sg321
VS_Ground1
p832
sg323
F0.20000000000000001
sg324
I00
sba(imapping
Tile
p833
(dp834
g319
g327
sg321
VS_Snow2
p835
sg323
F1
sg324
I00
sbaa(lp836
NaNaNaNaNaNaNaNaNa(imapping
Tile
p837
(dp838
g319
S'RIGHT_INCLINATION'
p839
sg321
VS_RRamp
p840
sg323
F1
sg324
I00
sba(imapping
Tile
p841
(dp842
g319
g327
sg321
VS_bRRamp
p843
sg323
F1
sg324
I00
sba(imapping
Tile
p844
(dp845
g319
g327
sg321
VS_Snow2
p846
sg323
F1
sg324
I00
sbaa(lp847
NaNaNaNaNaNaNaNa(imapping
Tile
p848
(dp849
g319
g839
sg321
VS_RRamp
p850
sg323
F1
sg324
I00
sba(imapping
Tile
p851
(dp852
g319
g327
sg321
VS_bRRamp
p853
sg323
F1
sg324
I00
sba(imapping
Tile
p854
(dp855
g319
g327
sg321
VS_Snow
p856
sg323
F1
sg324
I00
sba(imapping
Tile
p857
(dp858
g319
g327
sg321
VS_Snow2
p859
sg323
F1
sg324
I00
sbaa(lp860
NaNaNaNaNaNaNa(imapping
Tile
p861
(dp862
g319
g839
sg321
VS_RRamp
p863
sg323
F1
sg324
I00
sba(imapping
Tile
p864
(dp865
g319
g327
sg321
VS_bRRamp
p866
sg323
F1
sg324
I00
sba(imapping
Tile
p867
(dp868
g319
g327
sg321
VS_Snow
p869
sg323
F1
sg324
I00
sba(imapping
Tile
p870
(dp871
g319
g327
sg321
VS_Snow2
p872
sg323
F1
sg324
I00
sba(imapping
Tile
p873
(dp874
g319
g327
sg321
VS_Snow
p875
sg323
F1
sg324
I00
sbaa(lp876
NaNaNaNaNaNa(imapping
Tile
p877
(dp878
g319
g320
sg321
VS_Railing_L
p879
sg323
F1
sg324
I00
sba(imapping
Tile
p880
(dp881
g319
g327
sg321
VS_Ground1
p882
sg323
F0.20000000000000001
sg324
I00
sba(imapping
Tile
p883
(dp884
g319
g327
sg321
VS_Snow
p885
sg323
F1
sg324
I00
sba(imapping
Tile
p886
(dp887
g319
g327
sg321
VS_Snow2
p888
sg323
F1
sg324
I00
sba(imapping
Tile
p889
(dp890
g319
g327
sg321
VS_Snow
p891
sg323
F1
sg324
I00
sba(imapping
Tile
p892
(dp893
g319
g327
sg321
VS_Snow
p894
sg323
F1
sg324
I00
sbaa(lp895
NaNaNaNaNaNa(imapping
Tile
p896
(dp897
g319
g320
sg321
VS_Railing_2
p898
sg323
F1
sg324
I00
sba(imapping
Tile
p899
(dp900
g319
g327
sg321
VS_Ground1
p901
sg323
F0.20000000000000001
sg324
I00
sba(imapping
Tile
p902
(dp903
g319
g327
sg321
VS_Snow
p904
sg323
F1
sg324
I00
sba(imapping
Tile
p905
(dp906
g319
g327
sg321
VS_Snow2
p907
sg323
F1
sg324
I00
sba(imapping
Tile
p908
(dp909
g319
g327
sg321
VS_Snow2
p910
sg323
F1
sg324
I00
sba(imapping
Tile
p911
(dp912
g319
g327
sg321
VS_Snow2
p913
sg323
F1
sg324
I00
sbaa(lp914
NaNaNaNaNaNa(imapping
Tile
p915
(dp916
g319
g320
sg321
VS_Railing_2
p917
sg323
F1
sg324
I00
sba(imapping
Tile
p918
(dp919
g319
g327
sg321
VS_Ground1
p920
sg323
F0.20000000000000001
sg324
I00
sba(imapping
Tile
p921
(dp922
g319
g327
sg321
VS_Snow
p923
sg323
F1
sg324
I00
sba(imapping
Tile
p924
(dp925
g319
g327
sg321
VS_Snow
p926
sg323
F1
sg324
I00
sba(imapping
Tile
p927
(dp928
g319
g327
sg321
VS_Snow2
p929
sg323
F1
sg324
I00
sba(imapping
Tile
p930
(dp931
g319
g327
sg321
VS_Snow
p932
sg323
F1
sg324
I00
sbaa(lp933
NaNaNaNaNaNa(imapping
Tile
p934
(dp935
g319
g320
sg321
VS_Tree
p936
sg323
F1
sg324
I00
sba(imapping
Tile
p937
(dp938
g319
g327
sg321
VS_Ground1
p939
sg323
F0.20000000000000001
sg324
I00
sba(imapping
Tile
p940
(dp941
g319
g327
sg321
VS_Snow
p942
sg323
F1
sg324
I00
sba(imapping
Tile
p943
(dp944
g319
g327
sg321
VS_Snow2
p945
sg323
F1
sg324
I00
sba(imapping
Tile
p946
(dp947
g319
g327
sg321
VS_Snow2
p948
sg323
F1
sg324
I00
sba(imapping
Tile
p949
(dp950
g319
g327
sg321
VS_Snow2
p951
sg323
F1
sg324
I00
sbaa(lp952
NaNaNaNaNaNa(imapping
Tile
p953
(dp954
g319
g320
sg321
VS_Tree2
p955
sg323
F1
sg324
I00
sba(imapping
Tile
p956
(dp957
g319
g327
sg321
VS_Ground1
p958
sg323
F0.20000000000000001
sg324
I00
sba(imapping
Tile
p959
(dp960
g319
g327
sg321
VS_Snow2
p961
sg323
F1
sg324
I00
sba(imapping
Tile
p962
(dp963
g319
g327
sg321
VS_Snow
p964
sg323
F1
sg324
I00
sba(imapping
Tile
p965
(dp966
g319
g327
sg321
VS_Snow2
p967
sg323
F1
sg324
I00
sba(imapping
Tile
p968
(dp969
g319
g327
sg321
VS_Snow2
p970
sg323
F1
sg324
I00
sbaa(lp971
NaNaNaNaNaNa(imapping
Tile
p972
(dp973
g319
g320
sg321
VS_Tree
p974
sg323
F1
sg324
I00
sba(imapping
Tile
p975
(dp976
g319
g327
sg321
VS_Ground1
p977
sg323
F0.20000000000000001
sg324
I00
sba(imapping
Tile
p978
(dp979
g319
g327
sg321
VS_Snow2
p980
sg323
F1
sg324
I00
sba(imapping
Tile
p981
(dp982
g319
g327
sg321
VS_Snow2
p983
sg323
F1
sg324
I00
sba(imapping
Tile
p984
(dp985
g319
g327
sg321
VS_Snow
p986
sg323
F1
sg324
I00
sba(imapping
Tile
p987
(dp988
g319
g327
sg321
VS_Snow
p989
sg323
F1
sg324
I00
sbaa(lp990
NaNaNaNaNaNa(imapping
Tile
p991
(dp992
g319
g320
sg321
VS_Tree2
p993
sg323
F1
sg324
I00
sba(imapping
Tile
p994
(dp995
g319
g327
sg321
VS_Ground1
p996
sg323
F0.20000000000000001
sg324
I00
sba(imapping
Tile
p997
(dp998
g319
g327
sg321
VS_Snow
p999
sg323
F1
sg324
I00
sba(imapping
Tile
p1000
(dp1001
g319
g327
sg321
VS_Snow2
p1002
sg323
F1
sg324
I00
sba(imapping
Tile
p1003
(dp1004
g319
g327
sg321
VS_Snow2
p1005
sg323
F1
sg324
I00
sba(imapping
Tile
p1006
(dp1007
g319
g327
sg321
VS_Snow
p1008
sg323
F1
sg324
I00
sbaa(lp1009
NaNaNaNaNaNa(imapping
Tile
p1010
(dp1011
g319
g320
sg321
VS_Tree
p1012
sg323
F1
sg324
I00
sba(imapping
Tile
p1013
(dp1014
g319
g327
sg321
VS_Ground1
p1015
sg323
F0.20000000000000001
sg324
I00
sba(imapping
Tile
p1016
(dp1017
g319
g327
sg321
VS_Snow
p1018
sg323
F1
sg324
I00
sba(imapping
Tile
p1019
(dp1020
g319
g327
sg321
VS_Snow
p1021
sg323
F1
sg324
I00
sba(imapping
Tile
p1022
(dp1023
g319
g327
sg321
VS_Snow
p1024
sg323
F1
sg324
I00
sba(imapping
Tile
p1025
(dp1026
g319
g327
sg321
VS_Snow2
p1027
sg323
F1
sg324
I00
sbaa(lp1028
NaNaNaNaNaNa(imapping
Tile
p1029
(dp1030
g319
g320
sg321
VS_Railing_1
p1031
sg323
F1
sg324
I00
sba(imapping
Tile
p1032
(dp1033
g319
g327
sg321
VS_Ground1
p1034
sg323
F0.20000000000000001
sg324
I00
sba(imapping
Tile
p1035
(dp1036
g319
g327
sg321
VS_Snow
p1037
sg323
F1
sg324
I00
sba(imapping
Tile
p1038
(dp1039
g319
g327
sg321
VS_Snow
p1040
sg323
F1
sg324
I00
sba(imapping
Tile
p1041
(dp1042
g319
g327
sg321
VS_Snow
p1043
sg323
F1
sg324
I00
sba(imapping
Tile
p1044
(dp1045
g319
g327
sg321
VS_Snow
p1046
sg323
F1
sg324
I00
sbaa(lp1047
NaNaNaNaNaNa(imapping
Tile
p1048
(dp1049
g319
g320
sg321
VS_Railing_2
p1050
sg323
F1
sg324
I00
sba(imapping
Tile
p1051
(dp1052
g319
g327
sg321
VS_Ground1
p1053
sg323
F0.20000000000000001
sg324
I00
sba(imapping
Tile
p1054
(dp1055
g319
g327
sg321
VS_Snow
p1056
sg323
F1
sg324
I00
sba(imapping
Tile
p1057
(dp1058
g319
g327
sg321
VS_Snow2
p1059
sg323
F1
sg324
I00
sba(imapping
Tile
p1060
(dp1061
g319
g327
sg321
VS_Snow2
p1062
sg323
F1
sg324
I00
sba(imapping
Tile
p1063
(dp1064
g319
g327
sg321
VS_Snow
p1065
sg323
F1
sg324
I00
sbaa(lp1066
NaNaNaNaNaNa(imapping
Tile
p1067
(dp1068
g319
g320
sg321
VS_Railing_R
p1069
sg323
F1
sg324
I00
sba(imapping
Tile
p1070
(dp1071
g319
g327
sg321
VS_edgeright
p1072
sg323
F1
sg324
I00
sba(imapping
Tile
p1073
(dp1074
g319
g327
sg321
VS_edgewright2
p1075
sg323
F1
sg324
I00
sba(imapping
Tile
p1076
(dp1077
g319
g327
sg321
VS_edgewright1
p1078
sg323
F1
sg324
I00
sba(imapping
Tile
p1079
(dp1080
g319
g327
sg321
VS_edgewright2
p1081
sg323
F1
sg324
I00
sba(imapping
Tile
p1082
(dp1083
g319
g327
sg321
VS_edgewright1
p1084
sg323
F1
sg324
I00
sbaa(lp1085
NaNaNaNaNaNaNaNaNaNaNaNaa(lp1086
NaNaNaNaNaNaNaNaNaNaNaNaa(lp1087
NaNaNaNaNaNaNaNaNaNaNa(imapping
Tile
p1088
(dp1089
g319
g327
sg321
VS_edgeleft
p1090
sg323
F1
sg324
I00
sbaa(lp1091
NaNaNaNaNaNaNaNaNaNaNa(imapping
Tile
p1092
(dp1093
g319
g327
sg321
VS_Ground1
p1094
sg323
F0.20000000000000001
sg324
I00
sbaa(lp1095
NaNaNaNaNaNaNaNaNaNaNa(imapping
Tile
p1096
(dp1097
g319
g327
sg321
VS_edgeright
p1098
sg323
F1
sg324
I00
sbaa(lp1099
NaNaNaNaNaNaNaNaNaNaNaNaa(lp1100
NaNaNaNaNaNaNaNaNaNaNaNaa(lp1101
NaNaNaNaNaNaNaNaNaNaNa(imapping
Tile
p1102
(dp1103
g319
g327
sg321
VS_edgeleft
p1104
sg323
F1
sg324
I00
sbaa(lp1105
NaNaNaNaNaNaNaNaNaNa(imapping
Tile
p1106
(dp1107
g319
g839
sg321
VS_RRamp
p1108
sg323
F1
sg324
I00
sba(imapping
Tile
p1109
(dp1110
g319
g327
sg321
VS_bRRamp
p1111
sg323
F1
sg324
I00
sbaa(lp1112
NaNaNaNaNaNaNaNaNaNa(imapping
Tile
p1113
(dp1114
g319
g327
sg321
VS_edgeright
p1115
sg323
F1
sg324
I00
sba(imapping
Tile
p1116
(dp1117
g319
g327
sg321
VS_edgewright2
p1118
sg323
F1
sg324
I00
sbaa(lp1119
NaNaNaNaNaNaNaNaNaNaNaNaa(lp1120
NaNaNaNaNaNaNaNaNa(imapping
Tile
p1121
(dp1122
g319
g327
sg321
VS_edgeleft
p1123
sg323
F1
sg324
I00
sba(imapping
Tile
p1124
(dp1125
g319
g327
sg321
VS_edgewleft2
p1126
sg323
F1
sg324
I00
sba(imapping
Tile
p1127
(dp1128
g319
g327
sg321
VS_edgewleft1
p1129
sg323
F1
sg324
I00
sbaa(lp1130
NaNaNaNaNaNaNaNaNa(imapping
Tile
p1131
(dp1132
g319
g434
sg321
VS_LRamp
p1133
sg323
F0.20000000000000001
sg324
I00
sba(imapping
Tile
p1134
(dp1135
g319
g327
sg321
VS_bLRamp
p1136
sg323
F1
sg324
I00
sba(imapping
Tile
p1137
(dp1138
g319
g327
sg321
VS_Snow
p1139
sg323
F1
sg324
I00
sbaa(lp1140
NaNaNaNaNaNaNaNaNaNa(imapping
Tile
p1141
(dp1142
g319
g327
sg321
VS_edgeright
p1143
sg323
F1
sg324
I00
sba(imapping
Tile
p1144
(dp1145
g319
g327
sg321
VS_edgewright1
p1146
sg323
F1
sg324
I00
sbaa(lp1147
NaNaNaNaNaNaNaNaNaNaNaNaa(lp1148
NaNaNaNaNaNaNaNa(imapping
Tile
p1149
(dp1150
g319
g320
sg321
VS_Railing_L
p1151
sg323
F1
sg324
I00
sba(imapping
Tile
p1152
(dp1153
g319
g327
sg321
VS_edgeleft
p1154
sg323
F1
sg324
I00
sba(imapping
Tile
p1155
(dp1156
g319
g327
sg321
VS_edgewleft2
p1157
sg323
F1
sg324
I00
sba(imapping
Tile
p1158
(dp1159
g319
g327
sg321
VS_edgewleft1
p1160
sg323
F1
sg324
I00
sbaa(lp1161
NaNaNaNaNaNaNaNa(imapping
Tile
p1162
(dp1163
g319
g839
sg321
VS_RRamp
p1164
sg323
F1
sg324
I00
sba(imapping
Tile
p1165
(dp1166
g319
g327
sg321
VS_bRRamp
p1167
sg323
F1
sg324
I00
sba(imapping
Tile
p1168
(dp1169
g319
g327
sg321
VS_Snow
p1170
sg323
F1
sg324
I00
sba(imapping
Tile
p1171
(dp1172
g319
g327
sg321
VS_Snow
p1173
sg323
F1
sg324
I00
sbaa(lp1174
NaNaNaNaNaNaNaNa(imapping
Tile
p1175
(dp1176
g319
g327
sg321
VS_Ground1
p1177
sg323
F0.20000000000000001
sg324
I00
sba(imapping
Tile
p1178
(dp1179
g319
g327
sg321
VS_Snow
p1180
sg323
F1
sg324
I00
sba(imapping
Tile
p1181
(dp1182
g319
g327
sg321
VS_Snow
p1183
sg323
F1
sg324
I00
sba(imapping
Tile
p1184
(dp1185
g319
g327
sg321
VS_Snow
p1186
sg323
F1
sg324
I00
sbaa(lp1187
NaNaNaNaNaNaNaNa(imapping
Tile
p1188
(dp1189
g319
g327
sg321
VS_Ground1
p1190
sg323
F0.20000000000000001
sg324
I00
sba(imapping
Tile
p1191
(dp1192
g319
g327
sg321
VS_Snow
p1193
sg323
F1
sg324
I00
sba(imapping
Tile
p1194
(dp1195
g319
g327
sg321
VS_Snow
p1196
sg323
F1
sg324
I00
sba(imapping
Tile
p1197
(dp1198
g319
g327
sg321
VS_Snow
p1199
sg323
F1
sg324
I00
sbaa(lp1200
NaNaNaNaNaNaNaNa(imapping
Tile
p1201
(dp1202
g319
g434
sg321
VS_LRamp
p1203
sg323
F0.20000000000000001
sg324
I00
sba(imapping
Tile
p1204
(dp1205
g319
g327
sg321
VS_bLRamp
p1206
sg323
F1
sg324
I00
sba(imapping
Tile
p1207
(dp1208
g319
g327
sg321
VS_Snow
p1209
sg323
F1
sg324
I00
sba(imapping
Tile
p1210
(dp1211
g319
g327
sg321
VS_Snow
p1212
sg323
F1
sg324
I00
sbaa(lp1213
NaNaNaNaNaNaNaNaNa(imapping
Tile
p1214
(dp1215
g319
g434
sg321
VS_LRamp
p1216
sg323
F0.20000000000000001
sg324
I00
sba(imapping
Tile
p1217
(dp1218
g319
g327
sg321
VS_bLRamp
p1219
sg323
F1
sg324
I00
sba(imapping
Tile
p1220
(dp1221
g319
g327
sg321
VS_Snow
p1222
sg323
F1
sg324
I00
sbaa(lp1223
NaNaNaNaNaNaNaNaNa(imapping
Tile
p1224
(dp1225
g319
g320
sg321
VF_Shrooms2
p1226
sg323
F1
sg324
I00
sba(imapping
Tile
p1227
(dp1228
g319
g327
sg321
VS_Ground1
p1229
sg323
F0.20000000000000001
sg324
I00
sba(imapping
Tile
p1230
(dp1231
g319
g327
sg321
VS_Snow
p1232
sg323
F1
sg324
I00
sbaa(lp1233
NaNaNaNaNaNaNaNaNa(imapping
Tile
p1234
(dp1235
g319
g839
sg321
VS_RRamp
p1236
sg323
F1
sg324
I00
sba(imapping
Tile
p1237
(dp1238
g319
g327
sg321
VS_bRRamp
p1239
sg323
F1
sg324
I00
sba(imapping
Tile
p1240
(dp1241
g319
g327
sg321
VS_Snow
p1242
sg323
F1
sg324
I00
sbaa(lp1243
NaNaNaNaNaNaNaNaNa(imapping
Tile
p1244
(dp1245
g319
g327
sg321
VS_edgeright
p1246
sg323
F1
sg324
I00
sba(imapping
Tile
p1247
(dp1248
g319
g327
sg321
VS_edgewright2
p1249
sg323
F1
sg324
I00
sba(imapping
Tile
p1250
(dp1251
g319
g327
sg321
VS_edgewright1
p1252
sg323
F1
sg324
I00
sbaa(lp1253
NaNaNaNaNaNaNaNaNaNaNaNaa(lp1254
NaNaNaNaNaNaNaNaNa(imapping
Tile
p1255
(dp1256
g319
g327
sg321
VS_edgeleft
p1257
sg323
F1
sg324
I00
sba(imapping
Tile
p1258
(dp1259
g319
g327
sg321
VS_edgewleft2
p1260
sg323
F1
sg324
I00
sba(imapping
Tile
p1261
(dp1262
g319
g327
sg321
VS_edgewleft1
p1263
sg323
F1
sg324
I00
sbaa(lp1264
NaNaNaNaNaNaNaNaNa(imapping
Tile
p1265
(dp1266
g319
g327
sg321
VS_Ground1
p1267
sg323
F0.20000000000000001
sg324
I00
sba(imapping
Tile
p1268
(dp1269
g319
g327
sg321
VS_Snow
p1270
sg323
F1
sg324
I00
sba(imapping
Tile
p1271
(dp1272
g319
g327
sg321
VS_Snow
p1273
sg323
F1
sg324
I00
sbaa(lp1274
NaNaNaNaNaNaNaNaNa(imapping
Tile
p1275
(dp1276
g319
g327
sg321
VS_Ground1
p1277
sg323
F0.20000000000000001
sg324
I00
sba(imapping
Tile
p1278
(dp1279
g319
g327
sg321
VS_Snow
p1280
sg323
F1
sg324
I00
sba(imapping
Tile
p1281
(dp1282
g319
g327
sg321
VS_Snow
p1283
sg323
F1
sg324
I00
sbaa(lp1284
NaNaNaNaNaNaNaNa(imapping
Tile
p1285
(dp1286
g319
g320
sg321
VS_Pillar
p1287
sg323
F1
sg324
I00
sba(imapping
Tile
p1288
(dp1289
g319
g327
sg321
VS_Ground1
p1290
sg323
F0.20000000000000001
sg324
I00
sba(imapping
Tile
p1291
(dp1292
g319
g327
sg321
VS_Snow
p1293
sg323
F1
sg324
I00
sba(imapping
Tile
p1294
(dp1295
g319
g327
sg321
VS_Snow
p1296
sg323
F1
sg324
I00
sbaa(lp1297
NaNaNaNaNaNaNaNa(imapping
Tile
p1298
(dp1299
g319
g320
sg321
VS_Stones
p1300
sg323
F1
sg324
I00
sba(imapping
Tile
p1301
(dp1302
g319
g327
sg321
VS_Ground1
p1303
sg323
F0.20000000000000001
sg324
I00
sba(imapping
Tile
p1304
(dp1305
g319
g327
sg321
VS_Snow
p1306
sg323
F1
sg324
I00
sba(imapping
Tile
p1307
(dp1308
g319
g327
sg321
VS_Snow
p1309
sg323
F1
sg324
I00
sbaa(lp1310
NaNaNaNaNa(imapping
Tile
p1311
(dp1312
g319
g320
sg321
VS_Pillartop
p1313
sg323
F1
sg324
I00
sbaNaNa(imapping
Tile
p1314
(dp1315
g319
g320
sg321
VS_Tree2
p1316
sg323
F1
sg324
I00
sba(imapping
Tile
p1317
(dp1318
g319
g327
sg321
VS_Ground1
p1319
sg323
F0.20000000000000001
sg324
I00
sba(imapping
Tile
p1320
(dp1321
g319
g327
sg321
VS_Snow
p1322
sg323
F1
sg324
I00
sba(imapping
Tile
p1323
(dp1324
g319
g327
sg321
VS_Snow
p1325
sg323
F1
sg324
I00
sbaa(lp1326
NaNaNaNaNaNaNaNa(imapping
Tile
p1327
(dp1328
g319
g320
sg321
VS_Pillar
p1329
sg323
F1
sg324
I00
sba(imapping
Tile
p1330
(dp1331
g319
g327
sg321
VS_Ground1
p1332
sg323
F0.20000000000000001
sg324
I00
sba(imapping
Tile
p1333
(dp1334
g319
g327
sg321
VS_Snow
p1335
sg323
F1
sg324
I00
sba(imapping
Tile
p1336
(dp1337
g319
g327
sg321
VS_Snow
p1338
sg323
F1
sg324
I00
sbaa(lp1339
NaNaNaNaNaNaNaNa(imapping
Tile
p1340
(dp1341
g319
g320
sg321
VS_Railing_L
p1342
sg323
F1
sg324
I00
sba(imapping
Tile
p1343
(dp1344
g319
g327
sg321
VS_Ground1
p1345
sg323
F0.20000000000000001
sg324
I00
sba(imapping
Tile
p1346
(dp1347
g319
g327
sg321
VS_Snow
p1348
sg323
F1
sg324
I00
sba(imapping
Tile
p1349
(dp1350
g319
g327
sg321
VS_Snow
p1351
sg323
F1
sg324
I00
sbaa(lp1352
NaNaNaNaNaNaNaNa(imapping
Tile
p1353
(dp1354
g319
g320
sg321
VS_Railing_2
p1355
sg323
F1
sg324
I00
sba(imapping
Tile
p1356
(dp1357
g319
g327
sg321
VS_Ground1
p1358
sg323
F0.20000000000000001
sg324
I00
sba(imapping
Tile
p1359
(dp1360
g319
g327
sg321
VS_Snow
p1361
sg323
F1
sg324
I00
sba(imapping
Tile
p1362
(dp1363
g319
g327
sg321
VS_Snow
p1364
sg323
F1
sg324
I00
sbaa(lp1365
NaNaNaNaNaNaNaNa(imapping
Tile
p1366
(dp1367
g319
g320
sg321
VS_Railing_R
p1368
sg323
F1
sg324
I00
sba(imapping
Tile
p1369
(dp1370
g319
g327
sg321
VS_Ground1
p1371
sg323
F0.20000000000000001
sg324
I00
sba(imapping
Tile
p1372
(dp1373
g319
g327
sg321
VS_Snow
p1374
sg323
F1
sg324
I00
sba(imapping
Tile
p1375
(dp1376
g319
g327
sg321
VS_Snow
p1377
sg323
F1
sg324
I00
sbaa(lp1378
NaNaNaNaNaNaNaNa(imapping
Tile
p1379
(dp1380
g319
g320
sg321
VS_Tree2
p1381
sg323
F1
sg324
I00
sba(imapping
Tile
p1382
(dp1383
g319
g327
sg321
VS_Ground1
p1384
sg323
F0.20000000000000001
sg324
I00
sba(imapping
Tile
p1385
(dp1386
g319
g327
sg321
VS_Snow
p1387
sg323
F1
sg324
I00
sba(imapping
Tile
p1388
(dp1389
g319
g327
sg321
VS_Snow
p1390
sg323
F1
sg324
I00
sbaa(lp1391
NaNaNaNaNaNaNaNa(imapping
Tile
p1392
(dp1393
g319
g839
sg321
VS_RRamp
p1394
sg323
F1
sg324
I00
sba(imapping
Tile
p1395
(dp1396
g319
g327
sg321
VS_ECright
p1397
sg323
F1
sg324
I00
sba(imapping
Tile
p1398
(dp1399
g319
g327
sg321
VS_Snow
p1400
sg323
F1
sg324
I00
sba(imapping
Tile
p1401
(dp1402
g319
g327
sg321
VS_Snow
p1403
sg323
F1
sg324
I00
sbaa(lp1404
NaNaNaNaNaNaNa(imapping
Tile
p1405
(dp1406
g319
g839
sg321
VS_RRamp
p1407
sg323
F1
sg324
I00
sba(imapping
Tile
p1408
(dp1409
g319
g327
sg321
VS_ECright
p1410
sg323
F1
sg324
I00
sba(imapping
Tile
p1411
(dp1412
g319
g327
sg321
VS_Snow
p1413
sg323
F1
sg324
I00
sba(imapping
Tile
p1414
(dp1415
g319
g327
sg321
VS_Snow
p1416
sg323
F1
sg324
I00
sba(imapping
Tile
p1417
(dp1418
g319
g327
sg321
VS_Snow
p1419
sg323
F1
sg324
I00
sbaa(lp1420
NaNaNaNaNaNaNa(imapping
Tile
p1421
(dp1422
g319
g327
sg321
VS_Ground1
p1423
sg323
F0.20000000000000001
sg324
I00
sba(imapping
Tile
p1424
(dp1425
g319
g327
sg321
VS_Snow
p1426
sg323
F1
sg324
I00
sba(imapping
Tile
p1427
(dp1428
g319
g327
sg321
VS_Snow
p1429
sg323
F1
sg324
I00
sba(imapping
Tile
p1430
(dp1431
g319
g327
sg321
VS_Snow
p1432
sg323
F1
sg324
I00
sba(imapping
Tile
p1433
(dp1434
g319
g327
sg321
VS_Snow
p1435
sg323
F1
sg324
I00
sbaa(lp1436
NaNaNaNaNaNa(imapping
Tile
p1437
(dp1438
g319
g320
sg321
VS_Tree2
p1439
sg323
F1
sg324
I00
sba(imapping
Tile
p1440
(dp1441
g319
g327
sg321
VS_Ground1
p1442
sg323
F0.20000000000000001
sg324
I00
sba(imapping
Tile
p1443
(dp1444
g319
g327
sg321
VS_Snow
p1445
sg323
F1
sg324
I00
sba(imapping
Tile
p1446
(dp1447
g319
g327
sg321
VS_Snow
p1448
sg323
F1
sg324
I00
sba(imapping
Tile
p1449
(dp1450
g319
g327
sg321
VS_Snow
p1451
sg323
F1
sg324
I00
sba(imapping
Tile
p1452
(dp1453
g319
g327
sg321
VS_Snow
p1454
sg323
F1
sg324
I00
sbaa(lp1455
NaNaNaNaNaNa(imapping
Tile
p1456
(dp1457
g319
g839
sg321
VS_RRamp
p1458
sg323
F1
sg324
I00
sba(imapping
Tile
p1459
(dp1460
g319
g327
sg321
VS_ECright
p1461
sg323
F1
sg324
I00
sba(imapping
Tile
p1462
(dp1463
g319
g327
sg321
VS_Snow
p1464
sg323
F1
sg324
I00
sba(imapping
Tile
p1465
(dp1466
g319
g327
sg321
VS_Snow
p1467
sg323
F1
sg324
I00
sba(imapping
Tile
p1468
(dp1469
g319
g327
sg321
VS_Snow
p1470
sg323
F1
sg324
I00
sba(imapping
Tile
p1471
(dp1472
g319
g327
sg321
VS_Snow
p1473
sg323
F1
sg324
I00
sbaa(lp1474
NaNaNaNaNaNa(imapping
Tile
p1475
(dp1476
g319
g327
sg321
VS_Ground1
p1477
sg323
F0.20000000000000001
sg324
I00
sba(imapping
Tile
p1478
(dp1479
g319
g327
sg321
VS_Snow
p1480
sg323
F1
sg324
I00
sba(imapping
Tile
p1481
(dp1482
g319
g327
sg321
VS_Snow
p1483
sg323
F1
sg324
I00
sba(imapping
Tile
p1484
(dp1485
g319
g327
sg321
VS_Snow
p1486
sg323
F1
sg324
I00
sba(imapping
Tile
p1487
(dp1488
g319
g327
sg321
VS_Snow
p1489
sg323
F1
sg324
I00
sba(imapping
Tile
p1490
(dp1491
g319
g327
sg321
VS_Snow
p1492
sg323
F1
sg324
I00
sbaa(lp1493
NaNaNaNaNa(imapping
Tile
p1494
(dp1495
g319
g320
sg321
VF_Shrooms2
p1496
sg323
F1
sg324
I00
sba(imapping
Tile
p1497
(dp1498
g319
g327
sg321
VS_Ground1
p1499
sg323
F0.20000000000000001
sg324
I00
sba(imapping
Tile
p1500
(dp1501
g319
g327
sg321
VS_Snow
p1502
sg323
F1
sg324
I00
sba(imapping
Tile
p1503
(dp1504
g319
g327
sg321
VS_Snow
p1505
sg323
F1
sg324
I00
sba(imapping
Tile
p1506
(dp1507
g319
g327
sg321
VS_Snow
p1508
sg323
F1
sg324
I00
sba(imapping
Tile
p1509
(dp1510
g319
g327
sg321
VS_Snow
p1511
sg323
F1
sg324
I00
sba(imapping
Tile
p1512
(dp1513
g319
g327
sg321
VS_Snow
p1514
sg323
F1
sg324
I00
sbaa(lp1515
NaNaNaNaNa(imapping
Tile
p1516
(dp1517
g319
g320
sg321
VS_Tree2
p1518
sg323
F1
sg324
I00
sba(imapping
Tile
p1519
(dp1520
g319
g327
sg321
VS_Ground1
p1521
sg323
F0.20000000000000001
sg324
I00
sba(imapping
Tile
p1522
(dp1523
g319
g327
sg321
VS_Snow
p1524
sg323
F1
sg324
I00
sba(imapping
Tile
p1525
(dp1526
g319
g327
sg321
VS_Snow
p1527
sg323
F1
sg324
I00
sba(imapping
Tile
p1528
(dp1529
g319
g327
sg321
VS_Snow
p1530
sg323
F1
sg324
I00
sba(imapping
Tile
p1531
(dp1532
g319
g327
sg321
VS_Snow
p1533
sg323
F1
sg324
I00
sba(imapping
Tile
p1534
(dp1535
g319
g327
sg321
VS_Snow
p1536
sg323
F1
sg324
I00
sbaa(lp1537
NaNaNaNaNa(imapping
Tile
p1538
(dp1539
g319
g839
sg321
VS_RRamp
p1540
sg323
F1
sg324
I00
sba(imapping
Tile
p1541
(dp1542
g319
g327
sg321
VS_ECright
p1543
sg323
F1
sg324
I00
sba(imapping
Tile
p1544
(dp1545
g319
g327
sg321
VS_Snow
p1546
sg323
F1
sg324
I00
sba(imapping
Tile
p1547
(dp1548
g319
g327
sg321
VS_Snow
p1549
sg323
F1
sg324
I00
sba(imapping
Tile
p1550
(dp1551
g319
g327
sg321
VS_Snow
p1552
sg323
F1
sg324
I00
sba(imapping
Tile
p1553
(dp1554
g319
g327
sg321
VS_Snow
p1555
sg323
F1
sg324
I00
sba(imapping
Tile
p1556
(dp1557
g319
g327
sg321
VS_Snow
p1558
sg323
F1
sg324
I00
sbaa(lp1559
NaNaNaNaNa(imapping
Tile
p1560
(dp1561
g319
g327
sg321
VS_Ground1
p1562
sg323
F0.20000000000000001
sg324
I00
sba(imapping
Tile
p1563
(dp1564
g319
g327
sg321
VS_Snow
p1565
sg323
F1
sg324
I00
sba(imapping
Tile
p1566
(dp1567
g319
g327
sg321
VS_Snow
p1568
sg323
F1
sg324
I00
sba(imapping
Tile
p1569
(dp1570
g319
g327
sg321
VS_Snow
p1571
sg323
F1
sg324
I00
sba(imapping
Tile
p1572
(dp1573
g319
g327
sg321
VS_Snow
p1574
sg323
F1
sg324
I00
sba(imapping
Tile
p1575
(dp1576
g319
g327
sg321
VS_Snow
p1577
sg323
F1
sg324
I00
sba(imapping
Tile
p1578
(dp1579
g319
g327
sg321
VS_Snow
p1580
sg323
F1
sg324
I00
sbaa(lp1581
NaNaNaNa(imapping
Tile
p1582
(dp1583
g319
g320
sg321
VF_Shrooms2
p1584
sg323
F1
sg324
I00
sba(imapping
Tile
p1585
(dp1586
g319
g327
sg321
VS_Ground1
p1587
sg323
F0.20000000000000001
sg324
I00
sba(imapping
Tile
p1588
(dp1589
g319
g327
sg321
VS_Snow
p1590
sg323
F1
sg324
I00
sba(imapping
Tile
p1591
(dp1592
g319
g327
sg321
VS_Snow
p1593
sg323
F1
sg324
I00
sba(imapping
Tile
p1594
(dp1595
g319
g327
sg321
VS_Snow
p1596
sg323
F1
sg324
I00
sba(imapping
Tile
p1597
(dp1598
g319
g327
sg321
VS_Snow
p1599
sg323
F1
sg324
I00
sba(imapping
Tile
p1600
(dp1601
g319
g327
sg321
VS_Snow
p1602
sg323
F1
sg324
I00
sba(imapping
Tile
p1603
(dp1604
g319
g327
sg321
VS_Snow
p1605
sg323
F1
sg324
I00
sbaa(lp1606
NaNaNaNa(imapping
Tile
p1607
(dp1608
g319
g320
sg321
VS_Stones
p1609
sg323
F1
sg324
I00
sba(imapping
Tile
p1610
(dp1611
g319
g327
sg321
VS_Ground1
p1612
sg323
F0.20000000000000001
sg324
I00
sba(imapping
Tile
p1613
(dp1614
g319
g327
sg321
VS_Snow
p1615
sg323
F1
sg324
I00
sba(imapping
Tile
p1616
(dp1617
g319
g327
sg321
VS_Snow
p1618
sg323
F1
sg324
I00
sba(imapping
Tile
p1619
(dp1620
g319
g327
sg321
VS_Snow
p1621
sg323
F1
sg324
I00
sba(imapping
Tile
p1622
(dp1623
g319
g327
sg321
VS_Snow
p1624
sg323
F1
sg324
I00
sba(imapping
Tile
p1625
(dp1626
g319
g327
sg321
VS_Snow
p1627
sg323
F1
sg324
I00
sba(imapping
Tile
p1628
(dp1629
g319
g327
sg321
VS_Snow
p1630
sg323
F1
sg324
I00
sbaa(lp1631
NaNaNaNa(imapping
Tile
p1632
(dp1633
g319
g320
sg321
VS_Pillar
p1634
sg323
F1
sg324
I00
sba(imapping
Tile
p1635
(dp1636
g319
g327
sg321
VS_Ground1
p1637
sg323
F0.20000000000000001
sg324
I00
sba(imapping
Tile
p1638
(dp1639
g319
g327
sg321
VS_Snow
p1640
sg323
F1
sg324
I00
sba(imapping
Tile
p1641
(dp1642
g319
g327
sg321
VS_Snow
p1643
sg323
F1
sg324
I00
sba(imapping
Tile
p1644
(dp1645
g319
g327
sg321
VS_Snow
p1646
sg323
F1
sg324
I00
sba(imapping
Tile
p1647
(dp1648
g319
g327
sg321
VS_Snow
p1649
sg323
F1
sg324
I00
sba(imapping
Tile
p1650
(dp1651
g319
g327
sg321
VS_Snow
p1652
sg323
F1
sg324
I00
sba(imapping
Tile
p1653
(dp1654
g319
g327
sg321
VS_Snow
p1655
sg323
F1
sg324
I00
sbaa(lp1656
NaNaNaNa(imapping
Tile
p1657
(dp1658
g319
g320
sg321
VS_Pillar
p1659
sg323
F1
sg324
I00
sba(imapping
Tile
p1660
(dp1661
g319
g327
sg321
VS_Ground1
p1662
sg323
F0.20000000000000001
sg324
I00
sba(imapping
Tile
p1663
(dp1664
g319
g327
sg321
VS_Snow
p1665
sg323
F1
sg324
I00
sba(imapping
Tile
p1666
(dp1667
g319
g327
sg321
VS_Snow
p1668
sg323
F1
sg324
I00
sba(imapping
Tile
p1669
(dp1670
g319
g327
sg321
VS_Snow
p1671
sg323
F1
sg324
I00
sba(imapping
Tile
p1672
(dp1673
g319
g327
sg321
VS_Snow
p1674
sg323
F1
sg324
I00
sba(imapping
Tile
p1675
(dp1676
g319
g327
sg321
VS_Snow
p1677
sg323
F1
sg324
I00
sba(imapping
Tile
p1678
(dp1679
g319
g327
sg321
VS_Snow
p1680
sg323
F1
sg324
I00
sbaa(lp1681
Na(imapping
Tile
p1682
(dp1683
g319
g320
sg321
VS_Pillartop
p1684
sg323
F1
sg324
I00
sbaNaNa(imapping
Tile
p1685
(dp1686
g319
g320
sg321
VS_Pillar
p1687
sg323
F1
sg324
I00
sba(imapping
Tile
p1688
(dp1689
g319
g327
sg321
VS_Ground1
p1690
sg323
F0.20000000000000001
sg324
I00
sba(imapping
Tile
p1691
(dp1692
g319
g327
sg321
VS_Snow
p1693
sg323
F1
sg324
I00
sba(imapping
Tile
p1694
(dp1695
g319
g327
sg321
VS_Snow
p1696
sg323
F1
sg324
I00
sba(imapping
Tile
p1697
(dp1698
g319
g327
sg321
VS_Snow
p1699
sg323
F1
sg324
I00
sba(imapping
Tile
p1700
(dp1701
g319
g327
sg321
VS_Snow
p1702
sg323
F1
sg324
I00
sba(imapping
Tile
p1703
(dp1704
g319
g327
sg321
VS_Snow
p1705
sg323
F1
sg324
I00
sba(imapping
Tile
p1706
(dp1707
g319
g327
sg321
VS_Snow
p1708
sg323
F1
sg324
I00
sbaa(lp1709
NaNaNaNa(imapping
Tile
p1710
(dp1711
g319
g320
sg321
VS_Pillar
p1712
sg323
F1
sg324
I00
sba(imapping
Tile
p1713
(dp1714
g319
g327
sg321
VS_Ground1
p1715
sg323
F0.20000000000000001
sg324
I00
sba(imapping
Tile
p1716
(dp1717
g319
g327
sg321
VS_Snow
p1718
sg323
F1
sg324
I00
sba(imapping
Tile
p1719
(dp1720
g319
g327
sg321
VS_Snow
p1721
sg323
F1
sg324
I00
sba(imapping
Tile
p1722
(dp1723
g319
g327
sg321
VS_Snow
p1724
sg323
F1
sg324
I00
sba(imapping
Tile
p1725
(dp1726
g319
g327
sg321
VS_Snow
p1727
sg323
F1
sg324
I00
sba(imapping
Tile
p1728
(dp1729
g319
g327
sg321
VS_Snow
p1730
sg323
F1
sg324
I00
sba(imapping
Tile
p1731
(dp1732
g319
g327
sg321
VS_Snow
p1733
sg323
F1
sg324
I00
sbaa(lp1734
NaNaNaNaNa(imapping
Tile
p1735
(dp1736
g319
g327
sg321
VS_Ground1
p1737
sg323
F0.20000000000000001
sg324
I00
sba(imapping
Tile
p1738
(dp1739
g319
g327
sg321
VS_Snow
p1740
sg323
F1
sg324
I00
sba(imapping
Tile
p1741
(dp1742
g319
g327
sg321
VS_Snow
p1743
sg323
F1
sg324
I00
sba(imapping
Tile
p1744
(dp1745
g319
g327
sg321
VS_Snow
p1746
sg323
F1
sg324
I00
sba(imapping
Tile
p1747
(dp1748
g319
g327
sg321
VS_Snow
p1749
sg323
F1
sg324
I00
sba(imapping
Tile
p1750
(dp1751
g319
g327
sg321
VS_Snow
p1752
sg323
F1
sg324
I00
sba(imapping
Tile
p1753
(dp1754
g319
g327
sg321
VS_Snow
p1755
sg323
F1
sg324
I00
sbaa(lp1756
NaNaNaNaNa(imapping
Tile
p1757
(dp1758
g319
g327
sg321
VS_Ground1
p1759
sg323
F0.20000000000000001
sg324
I00
sba(imapping
Tile
p1760
(dp1761
g319
g327
sg321
VS_Snow
p1762
sg323
F1
sg324
I00
sba(imapping
Tile
p1763
(dp1764
g319
g327
sg321
VS_Snow
p1765
sg323
F1
sg324
I00
sba(imapping
Tile
p1766
(dp1767
g319
g327
sg321
VS_Snow
p1768
sg323
F1
sg324
I00
sba(imapping
Tile
p1769
(dp1770
g319
g327
sg321
VS_Snow
p1771
sg323
F1
sg324
I00
sba(imapping
Tile
p1772
(dp1773
g319
g327
sg321
VS_Snow
p1774
sg323
F1
sg324
I00
sba(imapping
Tile
p1775
(dp1776
g319
g327
sg321
VS_Snow
p1777
sg323
F1
sg324
I00
sbaa(lp1778
NaNaNaNaNa(imapping
Tile
p1779
(dp1780
g319
g327
sg321
VS_Ground1
p1781
sg323
F0.20000000000000001
sg324
I00
sba(imapping
Tile
p1782
(dp1783
g319
g327
sg321
VS_Snow
p1784
sg323
F1
sg324
I00
sba(imapping
Tile
p1785
(dp1786
g319
g327
sg321
VS_Snow
p1787
sg323
F1
sg324
I00
sba(imapping
Tile
p1788
(dp1789
g319
g327
sg321
VS_Snow
p1790
sg323
F1
sg324
I00
sba(imapping
Tile
p1791
(dp1792
g319
g327
sg321
VS_Snow
p1793
sg323
F1
sg324
I00
sba(imapping
Tile
p1794
(dp1795
g319
g327
sg321
VS_Snow
p1796
sg323
F1
sg324
I00
sba(imapping
Tile
p1797
(dp1798
g319
g327
sg321
VS_Snow
p1799
sg323
F1
sg324
I00
sbaa(lp1800
NaNaNaNaNa(imapping
Tile
p1801
(dp1802
g319
g327
sg321
VS_Ground1
p1803
sg323
F0.20000000000000001
sg324
I00
sba(imapping
Tile
p1804
(dp1805
g319
g327
sg321
VS_Snow
p1806
sg323
F1
sg324
I00
sba(imapping
Tile
p1807
(dp1808
g319
g327
sg321
VS_Snow
p1809
sg323
F1
sg324
I00
sba(imapping
Tile
p1810
(dp1811
g319
g327
sg321
VS_Snow
p1812
sg323
F1
sg324
I00
sba(imapping
Tile
p1813
(dp1814
g319
g327
sg321
VS_Snow
p1815
sg323
F1
sg324
I00
sba(imapping
Tile
p1816
(dp1817
g319
g327
sg321
VS_Snow
p1818
sg323
F1
sg324
I00
sba(imapping
Tile
p1819
(dp1820
g319
g327
sg321
VS_Snow
p1821
sg323
F1
sg324
I00
sbaa(lp1822
NaNaNaNaNa(imapping
Tile
p1823
(dp1824
g319
g327
sg321
VS_Ground1
p1825
sg323
F0.20000000000000001
sg324
I00
sba(imapping
Tile
p1826
(dp1827
g319
g327
sg321
VS_Snow
p1828
sg323
F1
sg324
I00
sba(imapping
Tile
p1829
(dp1830
g319
g327
sg321
VS_Snow
p1831
sg323
F1
sg324
I00
sba(imapping
Tile
p1832
(dp1833
g319
g327
sg321
VS_Snow
p1834
sg323
F1
sg324
I00
sba(imapping
Tile
p1835
(dp1836
g319
g327
sg321
VS_Snow
p1837
sg323
F1
sg324
I00
sba(imapping
Tile
p1838
(dp1839
g319
g327
sg321
VS_Snow
p1840
sg323
F1
sg324
I00
sba(imapping
Tile
p1841
(dp1842
g319
g327
sg321
VS_Snow
p1843
sg323
F1
sg324
I00
sbaa(lp1844
NaNaNaNaNa(imapping
Tile
p1845
(dp1846
g319
g327
sg321
VS_Ground1
p1847
sg323
F0.20000000000000001
sg324
I00
sba(imapping
Tile
p1848
(dp1849
g319
g327
sg321
VS_Snow
p1850
sg323
F1
sg324
I00
sba(imapping
Tile
p1851
(dp1852
g319
g327
sg321
VS_Snow
p1853
sg323
F1
sg324
I00
sba(imapping
Tile
p1854
(dp1855
g319
g327
sg321
VS_Snow
p1856
sg323
F1
sg324
I00
sba(imapping
Tile
p1857
(dp1858
g319
g327
sg321
VS_Snow
p1859
sg323
F1
sg324
I00
sba(imapping
Tile
p1860
(dp1861
g319
g327
sg321
VS_Snow
p1862
sg323
F1
sg324
I00
sba(imapping
Tile
p1863
(dp1864
g319
g327
sg321
VS_Snow
p1865
sg323
F1
sg324
I00
sbaa(lp1866
NaNaNaNaNa(imapping
Tile
p1867
(dp1868
g319
g327
sg321
VS_Ground1
p1869
sg323
F0.20000000000000001
sg324
I00
sba(imapping
Tile
p1870
(dp1871
g319
g327
sg321
VS_Snow
p1872
sg323
F1
sg324
I00
sba(imapping
Tile
p1873
(dp1874
g319
g327
sg321
VS_Snow
p1875
sg323
F1
sg324
I00
sba(imapping
Tile
p1876
(dp1877
g319
g327
sg321
VS_Snow
p1878
sg323
F1
sg324
I00
sba(imapping
Tile
p1879
(dp1880
g319
g327
sg321
VS_Snow
p1881
sg323
F1
sg324
I00
sba(imapping
Tile
p1882
(dp1883
g319
g327
sg321
VS_Snow
p1884
sg323
F1
sg324
I00
sba(imapping
Tile
p1885
(dp1886
g319
g327
sg321
VS_Snow
p1887
sg323
F1
sg324
I00
sbaa(lp1888
NaNaNaNaNa(imapping
Tile
p1889
(dp1890
g319
g327
sg321
VS_Ground1
p1891
sg323
F0.20000000000000001
sg324
I00
sba(imapping
Tile
p1892
(dp1893
g319
g327
sg321
VS_Snow
p1894
sg323
F1
sg324
I00
sba(imapping
Tile
p1895
(dp1896
g319
g327
sg321
VS_Snow
p1897
sg323
F1
sg324
I00
sba(imapping
Tile
p1898
(dp1899
g319
g327
sg321
VS_Snow
p1900
sg323
F1
sg324
I00
sba(imapping
Tile
p1901
(dp1902
g319
g327
sg321
VS_Snow
p1903
sg323
F1
sg324
I00
sba(imapping
Tile
p1904
(dp1905
g319
g327
sg321
VS_Snow
p1906
sg323
F1
sg324
I00
sba(imapping
Tile
p1907
(dp1908
g319
g327
sg321
VS_Snow
p1909
sg323
F1
sg324
I00
sbaa(lp1910
NaNaNaNaNa(imapping
Tile
p1911
(dp1912
g319
g327
sg321
VS_Ground1
p1913
sg323
F0.20000000000000001
sg324
I00
sba(imapping
Tile
p1914
(dp1915
g319
g327
sg321
VS_Snow
p1916
sg323
F1
sg324
I00
sba(imapping
Tile
p1917
(dp1918
g319
g327
sg321
VS_Snow
p1919
sg323
F1
sg324
I00
sba(imapping
Tile
p1920
(dp1921
g319
g327
sg321
VS_Snow
p1922
sg323
F1
sg324
I00
sba(imapping
Tile
p1923
(dp1924
g319
g327
sg321
VS_Snow
p1925
sg323
F1
sg324
I00
sba(imapping
Tile
p1926
(dp1927
g319
g327
sg321
VS_Snow
p1928
sg323
F1
sg324
I00
sba(imapping
Tile
p1929
(dp1930
g319
g327
sg321
VS_Snow
p1931
sg323
F1
sg324
I00
sbaa(lp1932
NaNaNaNaNa(imapping
Tile
p1933
(dp1934
g319
g327
sg321
VS_Ground1
p1935
sg323
F0.20000000000000001
sg324
I00
sba(imapping
Tile
p1936
(dp1937
g319
g327
sg321
VS_Snow
p1938
sg323
F1
sg324
I00
sba(imapping
Tile
p1939
(dp1940
g319
g327
sg321
VS_Snow
p1941
sg323
F1
sg324
I00
sba(imapping
Tile
p1942
(dp1943
g319
g327
sg321
VS_Snow
p1944
sg323
F1
sg324
I00
sba(imapping
Tile
p1945
(dp1946
g319
g327
sg321
VS_Snow
p1947
sg323
F1
sg324
I00
sba(imapping
Tile
p1948
(dp1949
g319
g327
sg321
VS_Snow
p1950
sg323
F1
sg324
I00
sba(imapping
Tile
p1951
(dp1952
g319
g327
sg321
VS_Snow
p1953
sg323
F1
sg324
I00
sbaa(lp1954
NaNaNaNaNa(imapping
Tile
p1955
(dp1956
g319
g327
sg321
VS_Ground1
p1957
sg323
F0.20000000000000001
sg324
I00
sba(imapping
Tile
p1958
(dp1959
g319
g327
sg321
VS_Snow
p1960
sg323
F1
sg324
I00
sba(imapping
Tile
p1961
(dp1962
g319
g327
sg321
VS_Snow
p1963
sg323
F1
sg324
I00
sba(imapping
Tile
p1964
(dp1965
g319
g327
sg321
VS_Snow
p1966
sg323
F1
sg324
I00
sba(imapping
Tile
p1967
(dp1968
g319
g327
sg321
VS_Snow
p1969
sg323
F1
sg324
I00
sba(imapping
Tile
p1970
(dp1971
g319
g327
sg321
VS_Snow
p1972
sg323
F1
sg324
I00
sba(imapping
Tile
p1973
(dp1974
g319
g327
sg321
VS_Snow
p1975
sg323
F1
sg324
I00
sbaa(lp1976
NaNaNaNaNa(imapping
Tile
p1977
(dp1978
g319
g327
sg321
VS_Ground1
p1979
sg323
F0.20000000000000001
sg324
I00
sba(imapping
Tile
p1980
(dp1981
g319
g327
sg321
VS_Snow
p1982
sg323
F1
sg324
I00
sba(imapping
Tile
p1983
(dp1984
g319
g327
sg321
VS_Snow
p1985
sg323
F1
sg324
I00
sba(imapping
Tile
p1986
(dp1987
g319
g327
sg321
VS_Snow
p1988
sg323
F1
sg324
I00
sba(imapping
Tile
p1989
(dp1990
g319
g327
sg321
VS_Snow
p1991
sg323
F1
sg324
I00
sba(imapping
Tile
p1992
(dp1993
g319
g327
sg321
VS_Snow
p1994
sg323
F1
sg324
I00
sba(imapping
Tile
p1995
(dp1996
g319
g327
sg321
VS_Snow
p1997
sg323
F1
sg324
I00
sbaa(lp1998
NaNaNaNaNa(imapping
Tile
p1999
(dp2000
g319
g327
sg321
VS_Ground1
p2001
sg323
F0.20000000000000001
sg324
I00
sba(imapping
Tile
p2002
(dp2003
g319
g327
sg321
VS_Snow
p2004
sg323
F1
sg324
I00
sba(imapping
Tile
p2005
(dp2006
g319
g327
sg321
VS_Snow
p2007
sg323
F1
sg324
I00
sba(imapping
Tile
p2008
(dp2009
g319
g327
sg321
VS_Snow
p2010
sg323
F1
sg324
I00
sba(imapping
Tile
p2011
(dp2012
g319
g327
sg321
VS_Snow
p2013
sg323
F1
sg324
I00
sba(imapping
Tile
p2014
(dp2015
g319
g327
sg321
VS_Snow
p2016
sg323
F1
sg324
I00
sba(imapping
Tile
p2017
(dp2018
g319
g327
sg321
VS_Snow
p2019
sg323
F1
sg324
I00
sbaa(lp2020
NaNaNaNaNa(imapping
Tile
p2021
(dp2022
g319
g327
sg321
VS_Ground1
p2023
sg323
F0.20000000000000001
sg324
I00
sba(imapping
Tile
p2024
(dp2025
g319
g327
sg321
VS_Snow
p2026
sg323
F1
sg324
I00
sba(imapping
Tile
p2027
(dp2028
g319
g327
sg321
VS_Snow
p2029
sg323
F1
sg324
I00
sba(imapping
Tile
p2030
(dp2031
g319
g327
sg321
VS_Snow
p2032
sg323
F1
sg324
I00
sba(imapping
Tile
p2033
(dp2034
g319
g327
sg321
VS_Snow
p2035
sg323
F1
sg324
I00
sba(imapping
Tile
p2036
(dp2037
g319
g327
sg321
VS_Snow
p2038
sg323
F1
sg324
I00
sba(imapping
Tile
p2039
(dp2040
g319
g327
sg321
VS_Snow
p2041
sg323
F1
sg324
I00
sbaa(lp2042
NaNaNaNaNa(imapping
Tile
p2043
(dp2044
g319
g327
sg321
VS_Ground1
p2045
sg323
F0.20000000000000001
sg324
I00
sba(imapping
Tile
p2046
(dp2047
g319
g327
sg321
VS_Snow
p2048
sg323
F1
sg324
I00
sba(imapping
Tile
p2049
(dp2050
g319
g327
sg321
VS_Snow
p2051
sg323
F1
sg324
I00
sba(imapping
Tile
p2052
(dp2053
g319
g327
sg321
VS_Snow
p2054
sg323
F1
sg324
I00
sba(imapping
Tile
p2055
(dp2056
g319
g327
sg321
VS_Snow
p2057
sg323
F1
sg324
I00
sba(imapping
Tile
p2058
(dp2059
g319
g327
sg321
VS_Snow
p2060
sg323
F1
sg324
I00
sba(imapping
Tile
p2061
(dp2062
g319
g327
sg321
VS_Snow
p2063
sg323
F1
sg324
I00
sbaa(lp2064
NaNaNaNaNa(imapping
Tile
p2065
(dp2066
g319
g327
sg321
VS_Ground1
p2067
sg323
F0.20000000000000001
sg324
I00
sba(imapping
Tile
p2068
(dp2069
g319
g327
sg321
VS_Snow
p2070
sg323
F1
sg324
I00
sba(imapping
Tile
p2071
(dp2072
g319
g327
sg321
VS_Snow
p2073
sg323
F1
sg324
I00
sba(imapping
Tile
p2074
(dp2075
g319
g327
sg321
VS_Snow
p2076
sg323
F1
sg324
I00
sba(imapping
Tile
p2077
(dp2078
g319
g327
sg321
VS_Snow
p2079
sg323
F1
sg324
I00
sba(imapping
Tile
p2080
(dp2081
g319
g327
sg321
VS_Snow
p2082
sg323
F1
sg324
I00
sba(imapping
Tile
p2083
(dp2084
g319
g327
sg321
VS_Snow
p2085
sg323
F1
sg324
I00
sbaa(lp2086
NaNaNaNaNa(imapping
Tile
p2087
(dp2088
g319
g327
sg321
VS_Ground1
p2089
sg323
F0.20000000000000001
sg324
I00
sba(imapping
Tile
p2090
(dp2091
g319
g327
sg321
VS_Snow
p2092
sg323
F1
sg324
I00
sba(imapping
Tile
p2093
(dp2094
g319
g327
sg321
VS_Snow
p2095
sg323
F1
sg324
I00
sba(imapping
Tile
p2096
(dp2097
g319
g327
sg321
VS_Snow
p2098
sg323
F1
sg324
I00
sba(imapping
Tile
p2099
(dp2100
g319
g327
sg321
VS_Snow
p2101
sg323
F1
sg324
I00
sba(imapping
Tile
p2102
(dp2103
g319
g327
sg321
VS_Snow
p2104
sg323
F1
sg324
I00
sba(imapping
Tile
p2105
(dp2106
g319
g327
sg321
VS_Snow
p2107
sg323
F1
sg324
I00
sbaa(lp2108
NaNaNaNaNa(imapping
Tile
p2109
(dp2110
g319
g327
sg321
VS_Ground1
p2111
sg323
F0.20000000000000001
sg324
I00
sba(imapping
Tile
p2112
(dp2113
g319
g327
sg321
VS_Snow
p2114
sg323
F1
sg324
I00
sba(imapping
Tile
p2115
(dp2116
g319
g327
sg321
VS_Snow
p2117
sg323
F1
sg324
I00
sba(imapping
Tile
p2118
(dp2119
g319
g327
sg321
VS_Snow
p2120
sg323
F1
sg324
I00
sba(imapping
Tile
p2121
(dp2122
g319
g327
sg321
VS_Snow
p2123
sg323
F1
sg324
I00
sba(imapping
Tile
p2124
(dp2125
g319
g327
sg321
VS_Snow
p2126
sg323
F1
sg324
I00
sba(imapping
Tile
p2127
(dp2128
g319
g327
sg321
VS_Snow
p2129
sg323
F1
sg324
I00
sbaa(lp2130
NaNaNaNaNa(imapping
Tile
p2131
(dp2132
g319
g327
sg321
VS_Ground1
p2133
sg323
F0.20000000000000001
sg324
I00
sba(imapping
Tile
p2134
(dp2135
g319
g327
sg321
VS_Snow
p2136
sg323
F1
sg324
I00
sba(imapping
Tile
p2137
(dp2138
g319
g327
sg321
VS_Snow
p2139
sg323
F1
sg324
I00
sba(imapping
Tile
p2140
(dp2141
g319
g327
sg321
VS_Snow
p2142
sg323
F1
sg324
I00
sba(imapping
Tile
p2143
(dp2144
g319
g327
sg321
VS_Snow
p2145
sg323
F1
sg324
I00
sba(imapping
Tile
p2146
(dp2147
g319
g327
sg321
VS_Snow
p2148
sg323
F1
sg324
I00
sba(imapping
Tile
p2149
(dp2150
g319
g327
sg321
VS_Snow
p2151
sg323
F1
sg324
I00
sbaa(lp2152
NaNaNaNaNa(imapping
Tile
p2153
(dp2154
g319
g327
sg321
VS_Ground1
p2155
sg323
F0.20000000000000001
sg324
I00
sba(imapping
Tile
p2156
(dp2157
g319
g327
sg321
VS_Snow
p2158
sg323
F1
sg324
I00
sba(imapping
Tile
p2159
(dp2160
g319
g327
sg321
VS_Snow
p2161
sg323
F1
sg324
I00
sba(imapping
Tile
p2162
(dp2163
g319
g327
sg321
VS_Snow
p2164
sg323
F1
sg324
I00
sba(imapping
Tile
p2165
(dp2166
g319
g327
sg321
VS_Snow
p2167
sg323
F1
sg324
I00
sba(imapping
Tile
p2168
(dp2169
g319
g327
sg321
VS_Snow
p2170
sg323
F1
sg324
I00
sba(imapping
Tile
p2171
(dp2172
g319
g327
sg321
VS_Snow
p2173
sg323
F1
sg324
I00
sbaasS'bgmusic'
p2174
VSnodom.ogg
p2175
sS'theme'
p2176
VSnow
p2177
sS'endef'
p2178
(dp2179
VCSpider
p2180
Vcspider
p2181
sVSnowOgre
p2182
Vsnowogre
p2183
sVWasp
p2184
Vwasp
p2185
sVPoisPod
p2186
Vpoispod
p2187
sVSpider
p2188
Vspider
p2189
sVSnowBat
p2190
Vsnowbat
p2191
sVWorm
p2192
Vworm
p2193
sVGiantJelly
p2194
Vgiantjelly
p2195
sVPod
p2196
Vpod
p2197
sVGiantWorm
p2198
Vgiantworm
p2199
ssS'tiledef'
p2200
(dp2201
VS_bLRamp
p2202
Vsnow_blramp.png
p2203
sVF_Dirt_R2
p2204
Vdirtr_edge2.png
p2205
sVF_Dirt_R1
p2206
Vdirtr_edge1.png
p2207
sVS_Railing_1
p2208
Vsnow_railing1.png
p2209
sVS_Railing_2
p2210
Vsnow_railing2.png
p2211
sVC_Suit of Armour
p2212
Vsuit_armour.png
p2213
sVS_UCleft
p2214
Vsnow_undercorner_left.png
p2215
sVF_Right_Halframp1
p2216
VR_HR1.png
p2217
sVF_Right_Halframp2
p2218
VR_HR2.png
p2219
sVF_GrassRedge
p2220
Vgrassr_edge.png
p2221
sVS_ECleft
p2222
Vsnow_edgecorner_left.png
p2223
sVF_Tuft1
p2224
Vtuft1.png
p2225
sVF_Tuft2
p2226
Vtuft2.png
p2227
sVS_Tree
p2228
Vsnow_tree.png
p2229
sVF_Grass
p2230
Vgrass.png
p2231
sVC_Castle Wall->Floor R
p2232
Vcstl_wfright.png
p2233
sVS_Railing_L
p2234
Vsnow_railing_left.png
p2235
sVC_Castle HRR
p2236
Vcstl_hr_r.png
p2237
sVS_RRamp
p2238
Vsnow_rramp.png
p2239
sVC_Castle HRL
p2240
Vcstl_hr_l.png
p2241
sVS_Pillar
p2242
Vsnow_pillar.png
p2243
sVS_Railing_R
p2244
Vsnow_railing_right.png
p2245
sVS_Ground1
p2246
Vsnow_ground1.png
p2247
sVF_Stump
p2248
Vtreestump.png
p2249
sVC_Castle Ground 2
p2250
Vcstl_ground2.png
p2251
sVC_Castle Ground 3
p2252
Vcstl_ground3.png
p2253
sVC_Castle Ground 1
p2254
Vcstl_ground1.png
p2255
sVS_Snow2
p2256
Vsnow_snow2.png
p2257
sVF_Grass_Alt_5
p2258
Vgrassc5.png
p2259
sVS_bRRamp
p2260
Vsnow_brramp.png
p2261
sVC_Castle Floor 2
p2262
Vcstl_floor2.png
p2263
sVS_Snow
p2264
Vsnow_snow.png
p2265
sVF_Grass_Alt_2
p2266
Vgrassc2.png
p2267
sVF_ExitSign
p2268
Vexitsign.png
p2269
sVF_Grass->Dirttop
p2270
Vgrassmdirt.png
p2271
sVS_UCright
p2272
Vsnow_undercorner_right.png
p2273
sVS_Pillartop
p2274
Vsnow_pillartop.png
p2275
sVF_Dirttop->Grass
p2276
Vdirtmgrass.png
p2277
sVS_ECright
p2278
Vsnow_edgecorner_right.png
p2279
sVC_Castle HRmL
p2280
Vcstl_hr_m_l.png
p2281
sVC_Castle Wall L
p2282
Vcstl_wleft.png
p2283
sVC_Castle Wall R
p2284
Vcstl_wright.png
p2285
sVC_Castle HRmR
p2286
Vcstl_hr_m_r.png
p2287
sVF_Ice
p2288
Vtile5.png
p2289
sVC_Castle Floor 4
p2290
Vcstl_floor4.png
p2291
sVF_Grass_Alt_4
p2292
Vgrassc4.png
p2293
sVF_Grass_Alt_1
p2294
Vgrassc1.png
p2295
sVC_Castle Floor 1
p2296
Vcstl_floor1.png
p2297
sVF_Grass_Alt_3
p2298
Vgrassc3.png
p2299
sVC_Castle Floor 3
p2300
Vcstl_floor3.png
p2301
sVS_edgewleft1
p2302
Vsnow_edgewall_left1.png
p2303
sVS_edgewleft2
p2304
Vsnow_edgewall_left2.png
p2305
sVS_UCJright
p2306
Vsnow_undercorner_join_right.png
p2307
sVS_LRamp
p2308
Vsnow_lramp.png
p2309
sVC_Castle Floor Edge R
p2310
Vcstl_floor_edge_right.png
p2311
sVF_Dirt_L1
p2312
Vdirtl_edge1.png
p2313
sVF_Dirt_L2
p2314
Vdirtl_edge2.png
p2315
sVC_Castle Floor Edge L
p2316
Vcstl_floor_edge_left.png
p2317
sVF_Left_Halframp2
p2318
VL_HR2.png
p2319
sVF_Left_Halframp1
p2320
VL_HR1.png
p2321
sVF_Shrooms2
p2322
Vshrooms2.png
p2323
sVF_Shrooms3
p2324
Vshrooms3.png
p2325
sVF_Shrooms1
p2326
Vshrooms1.png
p2327
sVF_RampJoinL
p2328
Vramp_mid_dirt_l.png
p2329
sVS_Tree2
p2330
Vsnow_tree2.png
p2331
sVF_RampJoinR
p2332
Vramp_mid_dirt_r.png
p2333
sVF_GrassLedge
p2334
Vgrassl_edge.png
p2335
sVS_Stones
p2336
Vsnow_stones.png
p2337
sVS_edgeright
p2338
Vsnow_edge_right.png
p2339
sVS_edgewright2
p2340
Vsnow_edgewall_right2.png
p2341
sVS_edgewright1
p2342
Vsnow_edgewall_right1.png
p2343
sVF_Dirtb
p2344
Vdirtb.png
p2345
sVF_Right_Ramp
p2346
VR_R.png
p2347
sVF_HalframpJoinL
p2348
Vhalframp_mid_dirt_l.png
p2349
sVF_Dirt_BL
p2350
Vdirtl_bedge.png
p2351
sVF_HalframpJoinR
p2352
Vhalframp_mid_dirt_r.png
p2353
sVF_Dirt_BR
p2354
Vdirtr_bedge.png
p2355
sVF_Dirtb2
p2356
Vdirtb2.png
p2357
sVF_Left_Ramp
p2358
VL_R.png
p2359
sVC_Castle Wall->Floor L
p2360
Vcstl_wfleft.png
p2361
sVF_Dirt
p2362
Vdirt.png
p2363
sVF_Grass->DirtL
p2364
Vgrass_dirt_l.png
p2365
sVS_edgeleft
p2366
Vsnow_edge_left.png
p2367
sVF_Dirttop
p2368
Vdirttop.png
p2369
sVF_Dirt_Alt_4
p2370
Vdirtc4.png
p2371
sVF_Dirt_Alt_3
p2372
Vdirtc3.png
p2373
sVF_Dirt_Alt_2
p2374
Vdirtc2.png
p2375
sVF_Dirt_Alt_1
p2376
Vdirtc1.png
p2377
sVF_Grass->DirtR
p2378
Vgrass_dirt_r.png
p2379
sVS_UCJleft
p2380
Vsnow_undercorner_join_left.png
p2381
ssb.