(imapping
Map
p1
(dp2
S'enemy'
p3
(lp4
(lp5
NaNaNaNaNaNaNaNaNaNaNaNaa(lp6
NaNaNaNaNaNaNaNaNaNaNaNaa(lp7
NaNaNaNaNaNaNaNaNaNaNaNaa(lp8
NaNaNaNaNaNaNaNaNaNaNaNaa(lp9
NaNaNaNaNaNaNaNaNaNaNaNaa(lp10
NaNaNaNaNaNaNaNaNaNaNaNaa(lp11
NaNaNaNaNaNaNaNaVWasp
p12
aNaNaNaa(lp13
NaNaNaNaNaNaNaNaNaNaNaNaa(lp14
NaNaNaNaNaNaNaNaNaNaNaNaa(lp15
NaNaNaNaNaNaNaNaNaNaNaNaa(lp16
NaNaNaNaNaNaNaNaNaNaNaNaa(lp17
NaNaNaNaNaNaNaNaVWasp
p18
aNaNaNaa(lp19
NaNaNaNaNaNaNaNaNaNaNaNaa(lp20
NaNaNaNaNaNaNaNaNaNaNaNaa(lp21
NaNaNaNaNaNaNaNaNaVWorm
p22
aNaNaa(lp23
NaNaNaNaNaNaNaNaNaNaNaNaa(lp24
NaNaNaNaNaNaNaNaNaNaNaNaa(lp25
NaNaNaNaNaNaNaNaNaNaNaNaa(lp26
NaNaNaNaNaNaNaNaNaNaNaNaa(lp27
NaNaNaNaNaNaNaNaNaNaNaNaa(lp28
NaNaNaNaNaNaNaNaNaNaNaNaa(lp29
NaNaNaNaNaNaNaNaNaNaNaNaa(lp30
NaNaNaNaNaNaNaNaNaNaNaNaa(lp31
NaNaNaNaNaNaNaNaNaNaNaNaa(lp32
NaNaNaNaNaNaNaNaNaNaNaNaa(lp33
NaNaNaNaNaNaNaNaNaNaNaNaa(lp34
NaNaNaNaNaNaNaNaNaNaNaNaa(lp35
NaNaNaNaNaNaNaNaNaNaNaNaa(lp36
NaNaNaNaNaNaNaNaNaNaNaNaa(lp37
NaNaNaNaNaNaNaNaNaNaNaNaa(lp38
NaNaNaNaNaNaNaNaNaNaNaNaa(lp39
NaNaNaNaNaNaNaNaNaNaNaNaa(lp40
NaNaNaNaNaNaNaNaNaNaNaNaa(lp41
NaNaNaNaVSnowBat
p42
aNaNaNaNaNaNaNaa(lp43
NaNaNaNaNaNaNaNaNaNaNaNaa(lp44
NaNaNaNaNaNaNaNaVCSpider
p45
aNaNaNaa(lp46
NaNaNaNaNaNaNaNaNaNaNaNaa(lp47
NaNaNaNaNaNaNaNaNaNaNaNaa(lp48
NaNaNaNaNaNaNaNaNaNaNaNaa(lp49
NaNaNaNaNaNaNaNaNaNaNaNaa(lp50
NaNaNaNaNaNaNaNaNaNaNaNaa(lp51
NaNaNaNaNaNaNaNaNaNaNaNaa(lp52
NaNaNaNaNaNaNaNaNaNaNaNaa(lp53
NaNaNaNaNaNaNaNaNaNaNaNaa(lp54
NaNaNaNaNaNaNaNaNaNaNaNaa(lp55
NaNaNaNaNaNaNaNaNaNaNaNaa(lp56
NaNaNaNaNaNaNaNaNaNaNaNaa(lp57
NaNaNaNaNaNaNaNaNaNaNaNaa(lp58
NaNaNaNaNaNaNaNaNaNaNaNaa(lp59
NaNaNaNaNaNaNaNaNaNaNaNaa(lp60
NaNaNaNaNaNaNaNaNaNaNaNaa(lp61
NaNaNaNaNaNaNaNaNaNaNaNaa(lp62
NaNaNaNaNaNaNaNaNaNaNaNaa(lp63
NaNaNaNaNaNaNaNaNaNaNaNaa(lp64
NaNaNaNaNaNaNaNaNaNaNaNaa(lp65
NaNaNaNaNaNaNaVWasp
p66
aNaNaNaNaa(lp67
NaNaNaNaNaNaNaNaNaNaNaNaa(lp68
NaNaNaNaNaNaNaNaNaNaNaNaa(lp69
NaNaNaNaNaNaNaNaNaNaVWorm
p70
aNaa(lp71
NaNaNaNaNaNaNaNaNaNaNaNaa(lp72
NaNaNaNaNaNaNaNaNaNaNaNaa(lp73
NaNaNaNaNaNaNaNaNaNaNaNaa(lp74
NaNaNaNaNaNaNaNaNaNaNaNaa(lp75
NaNaNaNaNaNaNaNaNaNaNaNaa(lp76
NaNaNaNaNaNaNaNaVWasp
p77
aNaNaNaa(lp78
NaNaNaNaNaNaNaNaNaNaNaNaa(lp79
NaNaNaNaNaNaNaNaNaNaNaNaa(lp80
NaNaNaNaNaNaNaNaNaNaNaNaa(lp81
NaNaNaNaNaNaNaNaNaNaNaNaa(lp82
NaNaNaNaNaNaNaNaNaNaNaNaa(lp83
NaNaNaNaNaNaNaNaNaNaNaNaa(lp84
NaNaNaNaNaNaNaNaNaNaNaNaa(lp85
NaNaNaNaNaNaNaNaNaNaNaNaa(lp86
NaNaNaNaNaNaNaNaNaVWasp
p87
aNaNaa(lp88
NaNaNaNaNaNaNaNaNaNaNaNaa(lp89
NaNaNaNaNaNaNaNaNaNaNaNaa(lp90
NaNaNaNaNaNaNaNaNaNaNaNaa(lp91
NaNaNaNaNaNaNaNaNaNaNaNaa(lp92
NaNaNaNaNaNaNaNaNaNaNaNaa(lp93
NaNaNaNaNaNaNaNaNaNaNaNaa(lp94
NaNaNaNaNaNaNaNaNaNaNaNaa(lp95
NaNaVWasp
p96
aNaNaNaNaNaNaNaNaNaa(lp97
NaNaNaNaNaNaNaNaNaNaNaNaa(lp98
NaNaNaNaNaNaNaNaNaNaNaNaa(lp99
NaNaNaNaNaNaNaNaNaNaNaNaa(lp100
NaNaNaNaNaNaNaNaNaNaNaNaa(lp101
NaNaNaNaNaNaNaNaNaNaNaNaa(lp102
NaNaNaNaNaNaNaNaNaNaNaNaa(lp103
NaNaNaNaNaNaNaNaNaNaNaNaa(lp104
NaNaNaNaNaNaNaNaNaNaNaNaa(lp105
NaNaNaNaNaNaNaNaNaNaNaNaa(lp106
NaNaNaNaNaNaNaNaNaNaNaNaa(lp107
NaNaNaNaNaNaNaNaNaNaNaNaa(lp108
NaNaNaNaNaNaNaNaNaNaVWasp
p109
aNaa(lp110
NaNaNaNaNaNaNaNaNaNaNaNaa(lp111
NaNaNaNaNaNaNaNaNaNaNaNaa(lp112
NaNaNaNaNaNaNaNaNaNaNaNaa(lp113
NaNaNaNaNaNaNaNaNaNaNaNaa(lp114
NaNaNaNaNaNaNaNaNaNaNaNaa(lp115
NaNaNaNaNaNaNaNaNaNaNaNaa(lp116
NaNaNaNaNaNaNaNaNaNaNaNaa(lp117
NaNaNaNaNaNaNaNaNaNaNaNaa(lp118
NaNaNaNaNaNaNaNaNaNaNaNaa(lp119
NaNaNaNaNaNaNaNaNaNaNaNaa(lp120
NaNaNaNaNaNaNaNaNaNaNaNaa(lp121
NaNaNaNaNaNaNaNaNaNaNaNaa(lp122
NaNaNaNaNaNaNaNaNaNaNaNaa(lp123
NaNaNaNaNaNaNaNaNaNaNaNaa(lp124
NaNaNaNaNaNaNaNaNaNaNaNaa(lp125
NaNaNaNaNaNaNaNaNaNaNaNaa(lp126
NaNaNaNaNaNaNaNaNaNaNaNaa(lp127
NaNaNaNaNaNaNaNaNaNaNaNaa(lp128
NaNaNaNaNaNaNaNaNaNaNaNaa(lp129
NaNaNaNaNaNaNaNaNaNaNaNaa(lp130
NaNaNaNaNaNaNaNaNaNaNaNaa(lp131
NaNaNaNaNaNaNaNaNaNaNaNaa(lp132
NaNaNaNaNaNaNaNaNaNaNaNaa(lp133
NaNaNaNaNaNaNaNaNaNaNaNaa(lp134
NaNaNaNaNaNaNaNaNaNaNaNaa(lp135
NaNaNaNaNaNaNaNaNaNaNaNaa(lp136
NaNaNaNaNaNaNaNaNaNaNaNaa(lp137
NaNaNaNaNaNaNaNaNaNaNaNaa(lp138
NaNaNaNaNaNaNaNaNaNaNaNaa(lp139
NaNaNaNaNaNaNaNaNaNaNaNaa(lp140
NaNaNaNaNaNaNaNaNaNaNaNaa(lp141
NaNaNaNaNaNaNaNaNaNaNaNaa(lp142
NaNaNaNaNaNaNaNaNaNaNaNaa(lp143
NaNaNaNaNaNaNaNaNaNaNaNaasS'objdef'
p144
(dp145
VButterfly
p146
VButterfly.png
p147
sVLevel_End
p148
VEnd.png
p149
sVShield
p150
VShield.png
p151
sVPlayer_Start
p152
VStart.png
p153
sVLever_Snow
p154
VLever1.png
p155
sVTorchref
p156
VTorchref.png
p157
sVWalltorch
p158
VWalltorch.png
p159
sVFirepit
p160
VPit.png
p161
sVButterflyC
p162
VButterflyC.png
p163
sVButterflyB
p164
VButterflyB.png
p165
sVSword
p166
VSword.png
p167
sVTreasureBoxC
p168
VTreasureC_Closed.png
p169
sVTreasureBoxB
p170
VTreasureB_Closed.png
p171
sVTreasureBox
p172
VTreasure_Closed.png
p173
sVFallingRock
p174
VRock.png
p175
sVObelisk_Snow
p176
VObelisk_Snow.png
p177
ssS'obj'
p178
(lp179
(lp180
NaNaNaNaNaNaNaNaNaNaNaNaa(lp181
NaNaNaNaNaNaNaNaNaNaNaNaa(lp182
NaNaNaNaNaNaNaNaNaNaNaNaa(lp183
NaNaNaNaNaNaNaNaNaVPlayer_Start
p184
aNaNaa(lp185
NaNaNaNaNaNaNaNaNaNaNaNaa(lp186
NaNaNaNaNaNaNaNaNaNaNaNaa(lp187
NaNaNaNaNaNaNaNaNaNaNaNaa(lp188
NaNaNaNaNaNaNaNaNaNaNaNaa(lp189
NaNaNaNaNaNaNaNaNaNaNaNaa(lp190
NaNaNaNaNaNaNaNaNaNaNaNaa(lp191
NaNaNaNaNaNaNaNaNaNaNaNaa(lp192
NaNaNaNaNaNaNaNaNaNaNaNaa(lp193
NaNaNaNaNaNaNaNaNaNaNaNaa(lp194
NaNaNaNaNaNaNaNaNaVTreasureBoxC
p195
aNaNaa(lp196
NaNaNaNaNaNaNaNaNaNaNaNaa(lp197
NaNaNaNaNaNaNaNaNaNaNaNaa(lp198
NaNaNaNaNaNaNaNaNaNaNaNaa(lp199
NaNaNaNaNaNaNaNaNaNaNaNaa(lp200
NaNaNaNaNaNaNaNaNaNaNaNaa(lp201
NaNaNaNaNaNaNaNaNaNaNaNaa(lp202
NaNaNaNaNaNaNaNaNaNaNaNaa(lp203
NaNaNaNaNaNaNaNaNaNaNaNaa(lp204
NaNaNaNaNaNaNaNaNaNaNaNaa(lp205
NaNaNaNaNaNaNaNaNaVTreasureBoxC
p206
aNaNaa(lp207
NaNaNaNaNaNaNaNaNaNaNaNaa(lp208
NaNaNaNaNaNaNaNaNaVTreasureBoxC
p209
aNaNaa(lp210
NaNaNaNaNaNaNaNaNaNaNaNaa(lp211
NaNaNaNaNaNaNaNaNaNaNaNaa(lp212
NaNaNaNaNaNaNaNaNaNaNaNaa(lp213
NaNaNaNaNaNaNaNaNaNaNaNaa(lp214
NaNaNaNaNaNaNaNaNaNaNaNaa(lp215
NaNaNaNaNaNaNaNaNaNaNaNaa(lp216
NaNaNaNaNaNaNaNaNaNaNaNaa(lp217
NaNaNaNaNaNaNaNaNaNaNaNaa(lp218
NaNaNaNaNaNaNaNaNaNaNaNaa(lp219
NaNaNaNaNaNaNaNaNaNaNaNaa(lp220
NaNaNaNaNaNaNaNaNaNaNaNaa(lp221
NaNaNaNaNaNaNaNaNaNaNaNaa(lp222
NaNaNaNaNaNaNaNaNaNaNaNaa(lp223
NaNaNaNaNaNaNaNaVTreasureBoxC
p224
aNaNaNaa(lp225
NaNaNaNaNaNaNaNaNaNaNaNaa(lp226
NaNaNaNaNaNaNaNaNaNaNaNaa(lp227
NaNaNaNaNaNaNaNaNaNaNaNaa(lp228
NaNaNaNaNaNaNaNaNaNaNaNaa(lp229
NaNaNaNaNaNaNaNaNaNaNaNaa(lp230
NaNaNaNaNaNaNaNaNaNaNaNaa(lp231
NaNaNaNaNaNaNaNaNaNaNaNaa(lp232
NaNaNaNaNaNaNaNaNaNaNaNaa(lp233
NaNaNaNaNaNaNaNaNaNaNaNaa(lp234
NaNaNaNaNaNaNaNaNaNaNaNaa(lp235
NaNaNaNaNaNaNaNaNaNaNaNaa(lp236
NaNaNaNaNaNaNaNaNaNaNaNaa(lp237
NaNaNaNaNaNaNaNaNaNaNaNaa(lp238
NaNaNaNaNaNaNaNaNaNaNaNaa(lp239
NaNaNaNaNaNaNaNaNaNaNaNaa(lp240
NaNaNaNaNaNaNaNaNaNaNaNaa(lp241
NaNaNaNaNaNaNaNaNaNaNaNaa(lp242
NaNaNaNaNaNaNaNaNaNaNaNaa(lp243
NaNaNaNaNaNaNaNaNaNaVFirepit
p244
aNaa(lp245
NaNaNaNaNaNaNaNaNaNaNaNaa(lp246
NaNaNaNaNaNaNaNaNaNaVLever_Snow
p247
aNaa(lp248
NaNaNaNaVLever_Snow
p249
aNaNaNaNaNaNaNaa(lp250
NaNaNaNaNaNaNaNaNaNaVFirepit
p251
aNaa(lp252
NaNaNaNaNaNaNaNaNaNaNaNaa(lp253
NaNaNaNaNaNaNaNaNaVLever_Snow
p254
aNaNaa(lp255
NaNaNaNaNaNaNaNaNaNaNaNaa(lp256
NaNaNaVFirepit
p257
aNaNaNaNaNaNaNaNaa(lp258
NaNaNaVTreasureBoxC
p259
aNaNaNaNaNaNaNaNaa(lp260
NaNaNaVFirepit
p261
aNaNaNaNaNaNaNaNaa(lp262
NaNaNaNaNaNaNaNaNaNaNaNaa(lp263
NaNaNaNaNaNaNaNaNaNaNaNaa(lp264
NaNaNaNaNaNaNaNaNaNaNaNaa(lp265
NaNaNaNaNaNaNaNaNaNaNaNaa(lp266
NaNaNaNaNaNaNaNaNaNaNaNaa(lp267
NaNaNaVObelisk_Snow
p268
aNaNaNaNaNaNaNaNaa(lp269
NaNaNaVTreasureBoxC
p270
aNaNaNaNaNaNaNaNaa(lp271
NaNaNaNaNaNaNaNaNaNaNaNaa(lp272
NaNaNaNaNaNaNaNaNaVTreasureBoxC
p273
aNaNaa(lp274
NaNaNaNaNaNaNaNaNaNaNaNaa(lp275
NaNaNaNaNaNaNaNaNaNaNaNaa(lp276
NaNaNaNaNaNaNaNaNaNaNaNaa(lp277
NaNaNaNaNaNaNaNaNaNaNaNaa(lp278
NaNaNaNaNaNaNaNaNaNaNaNaa(lp279
NaNaNaNaNaNaNaNaNaNaNaNaa(lp280
NaNaNaNaNaNaNaNaNaNaNaNaa(lp281
NaNaNaNaNaNaNaNaNaNaNaNaa(lp282
NaNaNaNaNaNaNaNaNaNaNaNaa(lp283
NaNaNaNaNaNaNaNaNaNaNaNaa(lp284
NaNaNaNaNaNaNaNaNaNaNaNaa(lp285
NaNaNaNaNaNaNaNaNaNaNaNaa(lp286
NaNaNaNaNaNaNaNaNaNaNaNaa(lp287
NaNaNaNaNaNaNaNaNaNaNaNaa(lp288
NaNaNaNaNaNaNaNaNaNaNaNaa(lp289
NaNaNaNaNaNaNaNaNaNaNaNaa(lp290
NaNaNaNaNaNaNaNaNaNaNaNaa(lp291
NaNaNaNaNaNaNaNaNaNaNaNaa(lp292
NaNaNaNaNaNaNaNaNaNaNaNaa(lp293
NaNaNaNaNaNaNaNaNaNaNaNaa(lp294
NaNaNaNaNaNaNaNaNaNaNaNaa(lp295
NaNaNaNaNaNaNaNaNaNaNaNaa(lp296
NaNaNaNaNaNaNaNaNaNaNaNaa(lp297
NaNaNaNaNaNaNaNaNaNaNaNaa(lp298
NaNaNaNaNaNaNaNaNaNaNaNaa(lp299
NaNaNaNaNaNaNaNaNaNaNaNaa(lp300
NaNaNaNaNaNaNaNaNaNaNaNaa(lp301
NaNaNaNaNaNaNaNaNaNaNaNaa(lp302
NaNaNaNaNaNaVLevel_End
p303
aNaNaNaNaNaa(lp304
NaNaNaNaNaNaNaNaNaNaNaNaa(lp305
NaNaNaNaNaNaNaNaNaNaNaNaa(lp306
NaNaNaNaNaNaNaNaNaNaNaNaa(lp307
NaNaNaNaNaNaNaNaNaNaNaNaa(lp308
NaNaNaNaNaNaNaNaNaNaNaNaa(lp309
NaNaNaNaNaNaNaNaNaNaNaNaa(lp310
NaNaNaNaNaNaNaNaNaNaNaNaa(lp311
NaNaNaNaNaNaNaNaNaNaNaNaa(lp312
NaNaNaNaNaNaNaNaNaNaNaNaa(lp313
NaNaNaNaNaNaNaNaNaNaNaNaa(lp314
NaNaNaNaNaNaNaNaNaNaNaNaa(lp315
NaNaNaNaNaNaNaNaNaNaNaNaa(lp316
NaNaNaNaNaNaNaNaNaNaNaNaa(lp317
NaNaNaNaNaNaNaNaNaNaNaNaa(lp318
NaNaNaNaNaNaNaNaNaNaNaNaa(lp319
NaNaNaNaNaNaNaNaNaNaNaNaa(lp320
NaNaNaNaNaNaNaNaNaNaNaNaa(lp321
NaNaNaNaNaNaNaNaNaNaNaNaa(lp322
NaNaNaNaNaNaNaNaNaNaNaNaa(lp323
NaNaNaNaNaNaNaNaNaNaNaNaa(lp324
NaNaNaNaNaNaNaNaNaNaNaNaasS'name'
p325
Vsnodom2
p326
sS'map'
p327
(lp328
(lp329
NaNaNaNaNaNa(imapping
Tile
p330
(dp331
S'collidetype'
p332
S'LEFT_INCLINATION'
p333
sS'type'
p334
VS_LRamp
p335
sS'friction'
p336
F0.20000000000000001
sS'overhead'
p337
I00
sba(imapping
Tile
p338
(dp339
g332
S'BOX'
p340
sg334
VS_bLRamp
p341
sg336
F1
sg337
I00
sba(imapping
Tile
p342
(dp343
g332
g340
sg334
VS_Snow2
p344
sg336
F1
sg337
I00
sba(imapping
Tile
p345
(dp346
g332
g340
sg334
VS_Snow
p347
sg336
F1
sg337
I00
sba(imapping
Tile
p348
(dp349
g332
g340
sg334
VS_Snow
p350
sg336
F1
sg337
I00
sba(imapping
Tile
p351
(dp352
g332
g340
sg334
VS_Snow2
p353
sg336
F1
sg337
I00
sbaa(lp354
NaNaNaNaNaNa(imapping
Tile
p355
(dp356
g332
S'NONE_R'
p357
sg334
VF_Shrooms3
p358
sg336
F1
sg337
I00
sba(imapping
Tile
p359
(dp360
g332
g340
sg334
VS_edgeright
p361
sg336
F1
sg337
I00
sba(imapping
Tile
p362
(dp363
g332
g340
sg334
VS_edgewright1
p364
sg336
F1
sg337
I00
sba(imapping
Tile
p365
(dp366
g332
g340
sg334
VS_edgewright1
p367
sg336
F1
sg337
I00
sba(imapping
Tile
p368
(dp369
g332
g340
sg334
VS_edgewright2
p370
sg336
F1
sg337
I00
sba(imapping
Tile
p371
(dp372
g332
g340
sg334
VS_edgewright2
p373
sg336
F1
sg337
I00
sbaa(lp374
NaNaNaNaNaNaNaNaNa(imapping
Tile
p375
(dp376
g332
S'NONE'
p377
sg334
VS_Tree2
p378
sg336
F1
sg337
I00
sba(imapping
Tile
p379
(dp380
g332
g340
sg334
VS_edgeleft
p381
sg336
F1
sg337
I00
sba(imapping
Tile
p382
(dp383
g332
g340
sg334
VS_edgewleft2
p384
sg336
F1
sg337
I00
sbaa(lp385
NaNaNaNaNaNaNaNaNaNa(imapping
Tile
p386
(dp387
g332
g340
sg334
VS_Ground1
p388
sg336
F0.20000000000000001
sg337
I00
sba(imapping
Tile
p389
(dp390
g332
g340
sg334
VS_Snow2
p391
sg336
F1
sg337
I00
sbaa(lp392
NaNaNaNaNaNaNaNaNaNa(imapping
Tile
p393
(dp394
g332
g340
sg334
VS_Ground1
p395
sg336
F0.20000000000000001
sg337
I00
sba(imapping
Tile
p396
(dp397
g332
g340
sg334
VS_Snow
p398
sg336
F1
sg337
I00
sbaa(lp399
NaNaNaNaNaNaNaNaNa(imapping
Tile
p400
(dp401
g332
g377
sg334
VS_Tree
p402
sg336
F1
sg337
I00
sba(imapping
Tile
p403
(dp404
g332
g340
sg334
VS_Ground1
p405
sg336
F0.20000000000000001
sg337
I00
sba(imapping
Tile
p406
(dp407
g332
g340
sg334
VS_Snow
p408
sg336
F1
sg337
I00
sbaa(lp409
NaNaNaNaNaNaNaNaNaNa(imapping
Tile
p410
(dp411
g332
g340
sg334
VS_Ground1
p412
sg336
F0.20000000000000001
sg337
I00
sba(imapping
Tile
p413
(dp414
g332
g340
sg334
VS_Snow2
p415
sg336
F1
sg337
I00
sbaa(lp416
NaNaNaNaNaNaNaNaNa(imapping
Tile
p417
(dp418
g332
g377
sg334
VS_Railing_1
p419
sg336
F1
sg337
I00
sba(imapping
Tile
p420
(dp421
g332
g340
sg334
VS_Ground1
p422
sg336
F0.20000000000000001
sg337
I00
sba(imapping
Tile
p423
(dp424
g332
g340
sg334
VS_Snow
p425
sg336
F1
sg337
I00
sbaa(lp426
NaNaNaNaNaNaNaNaNa(imapping
Tile
p427
(dp428
g332
g377
sg334
VS_Railing_2
p429
sg336
F1
sg337
I00
sba(imapping
Tile
p430
(dp431
g332
g340
sg334
VS_Ground1
p432
sg336
F0.20000000000000001
sg337
I00
sba(imapping
Tile
p433
(dp434
g332
g340
sg334
VS_Snow
p435
sg336
F1
sg337
I00
sbaa(lp436
NaNaNaNaNaNaNaNaNa(imapping
Tile
p437
(dp438
g332
g377
sg334
VS_Railing_R
p439
sg336
F1
sg337
I00
sba(imapping
Tile
p440
(dp441
g332
g340
sg334
VS_Ground1
p442
sg336
F0.20000000000000001
sg337
I00
sba(imapping
Tile
p443
(dp444
g332
g340
sg334
VS_Snow
p445
sg336
F1
sg337
I00
sbaa(lp446
NaNaNaNaNaNaNaNaNa(imapping
Tile
p447
(dp448
g332
g377
sg334
VF_Shrooms2
p449
sg336
F1
sg337
I00
sba(imapping
Tile
p450
(dp451
g332
g340
sg334
VS_Ground1
p452
sg336
F0.20000000000000001
sg337
I00
sba(imapping
Tile
p453
(dp454
g332
g340
sg334
VS_Snow
p455
sg336
F1
sg337
I00
sbaa(lp456
NaNaNaNaNaNaNaNaNaNa(imapping
Tile
p457
(dp458
g332
g340
sg334
VS_Ground1
p459
sg336
F0.20000000000000001
sg337
I00
sba(imapping
Tile
p460
(dp461
g332
g340
sg334
VS_Snow2
p462
sg336
F1
sg337
I00
sbaa(lp463
NaNaNaNaNaNaNaNaNaNa(imapping
Tile
p464
(dp465
g332
g340
sg334
VS_Ground1
p466
sg336
F0.20000000000000001
sg337
I00
sba(imapping
Tile
p467
(dp468
g332
g340
sg334
VS_Snow
p469
sg336
F1
sg337
I00
sbaa(lp470
NaNaNaNaNaNaNaNaNaNa(imapping
Tile
p471
(dp472
g332
g340
sg334
VS_Ground1
p473
sg336
F0.20000000000000001
sg337
I00
sba(imapping
Tile
p474
(dp475
g332
g340
sg334
VS_Snow2
p476
sg336
F1
sg337
I00
sbaa(lp477
NaNaNaNaNaNaNaNaNaNa(imapping
Tile
p478
(dp479
g332
g340
sg334
VS_Ground1
p480
sg336
F0.20000000000000001
sg337
I00
sba(imapping
Tile
p481
(dp482
g332
g340
sg334
VS_Snow
p483
sg336
F1
sg337
I00
sbaa(lp484
NaNaNaNaNaNaNaNaNaNa(imapping
Tile
p485
(dp486
g332
g340
sg334
VS_edgeright
p487
sg336
F1
sg337
I00
sba(imapping
Tile
p488
(dp489
g332
g340
sg334
VS_edgewright2
p490
sg336
F1
sg337
I00
sbaa(lp491
NaNaNaNaNaNaNaNaNaNaNaNaa(lp492
NaNaNaNaNaNaNaNaNaNaNaNaa(lp493
NaNaNaNaNaNaNaNaNaNaNaNaa(lp494
NaNaNaNaNaNaNaNaNa(imapping
Tile
p495
(dp496
g332
g377
sg334
VS_Tree2
p497
sg336
F1
sg337
I00
sba(imapping
Tile
p498
(dp499
g332
g340
sg334
VS_edgeleft
p500
sg336
F1
sg337
I00
sba(imapping
Tile
p501
(dp502
g332
g340
sg334
VS_edgewleft1
p503
sg336
F1
sg337
I00
sbaa(lp504
NaNaNaNaNaNaNaNaNa(imapping
Tile
p505
(dp506
g332
g377
sg334
VS_Tree
p507
sg336
F1
sg337
I00
sba(imapping
Tile
p508
(dp509
g332
g340
sg334
VS_Ground1
p510
sg336
F0.20000000000000001
sg337
I00
sba(imapping
Tile
p511
(dp512
g332
g340
sg334
VS_Snow
p513
sg336
F1
sg337
I00
sbaa(lp514
NaNaNaNaNaNaNaNaNaNa(imapping
Tile
p515
(dp516
g332
g340
sg334
VS_Ground1
p517
sg336
F0.20000000000000001
sg337
I00
sba(imapping
Tile
p518
(dp519
g332
g340
sg334
VS_Snow
p520
sg336
F1
sg337
I00
sbaa(lp521
NaNaNaNaNaNaNaNaNa(imapping
Tile
p522
(dp523
g332
g377
sg334
VS_Tree2
p524
sg336
F1
sg337
I00
sba(imapping
Tile
p525
(dp526
g332
g340
sg334
VS_Ground1
p527
sg336
F0.20000000000000001
sg337
I00
sba(imapping
Tile
p528
(dp529
g332
g340
sg334
VS_Snow
p530
sg336
F1
sg337
I00
sbaa(lp531
NaNaNaNaNaNaNaNaNa(imapping
Tile
p532
(dp533
g332
g377
sg334
VS_Railing_L
p534
sg336
F1
sg337
I00
sba(imapping
Tile
p535
(dp536
g332
g340
sg334
VS_Ground1
p537
sg336
F0.20000000000000001
sg337
I00
sba(imapping
Tile
p538
(dp539
g332
g340
sg334
VS_Snow
p540
sg336
F1
sg337
I00
sbaa(lp541
NaNaNaNaNaNaNaNaNa(imapping
Tile
p542
(dp543
g332
g377
sg334
VS_Railing_2
p544
sg336
F1
sg337
I00
sba(imapping
Tile
p545
(dp546
g332
g340
sg334
VS_Ground1
p547
sg336
F0.20000000000000001
sg337
I00
sba(imapping
Tile
p548
(dp549
g332
g340
sg334
VS_Snow
p550
sg336
F1
sg337
I00
sbaa(lp551
NaNaNaNaNaNaNaNaNa(imapping
Tile
p552
(dp553
g332
g377
sg334
VS_Railing_2
p554
sg336
F1
sg337
I00
sba(imapping
Tile
p555
(dp556
g332
g340
sg334
VS_Ground1
p557
sg336
F0.20000000000000001
sg337
I00
sba(imapping
Tile
p558
(dp559
g332
g340
sg334
VS_Snow
p560
sg336
F1
sg337
I00
sbaa(lp561
NaNaNaNaNaNaNaNaNa(imapping
Tile
p562
(dp563
g332
g377
sg334
VS_Railing_R
p564
sg336
F1
sg337
I00
sba(imapping
Tile
p565
(dp566
g332
g340
sg334
VS_Ground1
p567
sg336
F0.20000000000000001
sg337
I00
sba(imapping
Tile
p568
(dp569
g332
g340
sg334
VS_Snow
p570
sg336
F1
sg337
I00
sbaa(lp571
NaNaNaNaNaNaNaNaNa(imapping
Tile
p572
(dp573
g332
S'RIGHT_INCLINATION'
p574
sg334
VS_RRamp
p575
sg336
F1
sg337
I00
sba(imapping
Tile
p576
(dp577
g332
g340
sg334
VS_bRRamp
p578
sg336
F1
sg337
I00
sba(imapping
Tile
p579
(dp580
g332
g340
sg334
VS_Snow
p581
sg336
F1
sg337
I00
sbaa(lp582
NaNaNaNaNaNaNaNaNa(imapping
Tile
p583
(dp584
g332
g333
sg334
VS_LRamp
p585
sg336
F0.20000000000000001
sg337
I00
sba(imapping
Tile
p586
(dp587
g332
g340
sg334
VS_bLRamp
p588
sg336
F1
sg337
I00
sba(imapping
Tile
p589
(dp590
g332
g340
sg334
VS_Snow
p591
sg336
F1
sg337
I00
sbaa(lp592
NaNaNaNaNaNaNaNaNaNa(imapping
Tile
p593
(dp594
g332
g340
sg334
VS_Ground1
p595
sg336
F0.20000000000000001
sg337
I00
sba(imapping
Tile
p596
(dp597
g332
g340
sg334
VS_Snow
p598
sg336
F1
sg337
I00
sbaa(lp599
NaNaNaNaNaNaNaNaNa(imapping
Tile
p600
(dp601
g332
g357
sg334
VF_Shrooms3
p602
sg336
F1
sg337
I00
sba(imapping
Tile
p603
(dp604
g332
g340
sg334
VS_Ground1
p605
sg336
F0.20000000000000001
sg337
I00
sba(imapping
Tile
p606
(dp607
g332
g340
sg334
VS_Snow
p608
sg336
F1
sg337
I00
sbaa(lp609
NaNaNaNaNaNaNaNaNa(imapping
Tile
p610
(dp611
g332
g574
sg334
VS_RRamp
p612
sg336
F1
sg337
I00
sba(imapping
Tile
p613
(dp614
g332
g340
sg334
VS_bRRamp
p615
sg336
F1
sg337
I00
sba(imapping
Tile
p616
(dp617
g332
g340
sg334
VS_Snow
p618
sg336
F1
sg337
I00
sbaa(lp619
NaNaNaNaNaNaNaNaNa(imapping
Tile
p620
(dp621
g332
g340
sg334
VS_Ground1
p622
sg336
F0.20000000000000001
sg337
I00
sba(imapping
Tile
p623
(dp624
g332
g340
sg334
VS_Snow
p625
sg336
F1
sg337
I00
sba(imapping
Tile
p626
(dp627
g332
g340
sg334
VS_Snow
p628
sg336
F1
sg337
I00
sbaa(lp629
NaNaNaNaNaNaNaNaNa(imapping
Tile
p630
(dp631
g332
g333
sg334
VS_LRamp
p632
sg336
F0.20000000000000001
sg337
I00
sba(imapping
Tile
p633
(dp634
g332
g340
sg334
VS_bLRamp
p635
sg336
F1
sg337
I00
sba(imapping
Tile
p636
(dp637
g332
g340
sg334
VS_Snow
p638
sg336
F1
sg337
I00
sbaa(lp639
NaNaNaNaNaNaNaNaNaNa(imapping
Tile
p640
(dp641
g332
g340
sg334
VS_Ground1
p642
sg336
F0.20000000000000001
sg337
I00
sba(imapping
Tile
p643
(dp644
g332
g340
sg334
VS_Snow
p645
sg336
F1
sg337
I00
sbaa(lp646
NaNaNaNaNaNaNaNaNaNa(imapping
Tile
p647
(dp648
g332
g340
sg334
VS_Ground1
p649
sg336
F0.20000000000000001
sg337
I00
sba(imapping
Tile
p650
(dp651
g332
g340
sg334
VS_Snow
p652
sg336
F1
sg337
I00
sbaa(lp653
NaNaNaNaNaNaNaNaNaNa(imapping
Tile
p654
(dp655
g332
g340
sg334
VS_Ground1
p656
sg336
F0.20000000000000001
sg337
I00
sba(imapping
Tile
p657
(dp658
g332
g340
sg334
VS_Snow
p659
sg336
F1
sg337
I00
sbaa(lp660
NaNaNaNaNaNaNaNaNa(imapping
Tile
p661
(dp662
g332
g574
sg334
VS_RRamp
p663
sg336
F1
sg337
I00
sba(imapping
Tile
p664
(dp665
g332
g340
sg334
VS_bRRamp
p666
sg336
F1
sg337
I00
sba(imapping
Tile
p667
(dp668
g332
g340
sg334
VS_Snow
p669
sg336
F1
sg337
I00
sbaa(lp670
NaNaNaNaNaNaNaNaNa(imapping
Tile
p671
(dp672
g332
g340
sg334
VS_Ground1
p673
sg336
F0.20000000000000001
sg337
I00
sba(imapping
Tile
p674
(dp675
g332
g340
sg334
VS_Snow
p676
sg336
F1
sg337
I00
sba(imapping
Tile
p677
(dp678
g332
g340
sg334
VS_Snow
p679
sg336
F1
sg337
I00
sbaa(lp680
NaNaNaNaNaNaNaNaNa(imapping
Tile
p681
(dp682
g332
g340
sg334
VS_Ground1
p683
sg336
F0.20000000000000001
sg337
I00
sba(imapping
Tile
p684
(dp685
g332
g340
sg334
VS_Snow
p686
sg336
F1
sg337
I00
sba(imapping
Tile
p687
(dp688
g332
g340
sg334
VS_Snow
p689
sg336
F1
sg337
I00
sbaa(lp690
NaNaNaNaNaNaNaNaNa(imapping
Tile
p691
(dp692
g332
g333
sg334
VS_LRamp
p693
sg336
F0.20000000000000001
sg337
I00
sba(imapping
Tile
p694
(dp695
g332
g340
sg334
VS_bLRamp
p696
sg336
F1
sg337
I00
sba(imapping
Tile
p697
(dp698
g332
g340
sg334
VS_Snow
p699
sg336
F1
sg337
I00
sbaa(lp700
NaNaNaNaNaNaNaNaNaNa(imapping
Tile
p701
(dp702
g332
g340
sg334
VS_edgeright
p703
sg336
F1
sg337
I00
sba(imapping
Tile
p704
(dp705
g332
g340
sg334
VS_edgewright2
p706
sg336
F1
sg337
I00
sbaa(lp707
NaNaNaNaNaNaNaNaNaNaNaNaa(lp708
NaNaNaNaNaNaNaNaNaNaNa(imapping
Tile
p709
(dp710
g332
g340
sg334
VS_edgeleft
p711
sg336
F1
sg337
I00
sbaa(lp712
NaNaNaNaNaNaNaNaNaNaNa(imapping
Tile
p713
(dp714
g332
g340
sg334
VS_Ground1
p715
sg336
F0.20000000000000001
sg337
I00
sbaa(lp716
NaNaNaNaNaNaNaNaNaNa(imapping
Tile
p717
(dp718
g332
g357
sg334
VF_Shrooms1
p719
sg336
F1
sg337
I00
sba(imapping
Tile
p720
(dp721
g332
g340
sg334
VS_Ground1
p722
sg336
F0.20000000000000001
sg337
I00
sbaa(lp723
NaNaNaNaNaNaNaNaNaNaNa(imapping
Tile
p724
(dp725
g332
g340
sg334
VS_Ground1
p726
sg336
F0.20000000000000001
sg337
I00
sbaa(lp727
NaNaNaNaNaNaNaNaNaNa(imapping
Tile
p728
(dp729
g332
g574
sg334
VS_RRamp
p730
sg336
F1
sg337
I00
sba(imapping
Tile
p731
(dp732
g332
g340
sg334
VS_bRRamp
p733
sg336
F1
sg337
I00
sbaa(lp734
NaNaNaNaNaNaNaNaNa(imapping
Tile
p735
(dp736
g332
g574
sg334
VS_RRamp
p737
sg336
F1
sg337
I00
sba(imapping
Tile
p738
(dp739
g332
g340
sg334
VS_ECright
p740
sg336
F1
sg337
I00
sba(imapping
Tile
p741
(dp742
g332
g340
sg334
VS_Snow
p743
sg336
F1
sg337
I00
sbaa(lp744
NaNaNaNaNaNaNaNa(imapping
Tile
p745
(dp746
g332
g574
sg334
VS_RRamp
p747
sg336
F1
sg337
I00
sba(imapping
Tile
p748
(dp749
g332
g340
sg334
VS_ECright
p750
sg336
F1
sg337
I00
sba(imapping
Tile
p751
(dp752
g332
g340
sg334
VS_Snow
p753
sg336
F1
sg337
I00
sba(imapping
Tile
p754
(dp755
g332
g340
sg334
VS_Snow2
p756
sg336
F1
sg337
I00
sbaa(lp757
NaNaNaNaNaNaNaNa(imapping
Tile
p758
(dp759
g332
g340
sg334
VS_Ground1
p760
sg336
F0.20000000000000001
sg337
I00
sba(imapping
Tile
p761
(dp762
g332
g340
sg334
VS_Snow
p763
sg336
F1
sg337
I00
sba(imapping
Tile
p764
(dp765
g332
g340
sg334
VS_Snow2
p766
sg336
F1
sg337
I00
sba(imapping
Tile
p767
(dp768
g332
g340
sg334
VS_Snow
p769
sg336
F1
sg337
I00
sbaa(lp770
NaNaNaNaNaNaNaNa(imapping
Tile
p771
(dp772
g332
g340
sg334
VS_Ground1
p773
sg336
F0.20000000000000001
sg337
I00
sba(imapping
Tile
p774
(dp775
g332
g340
sg334
VS_Snow2
p776
sg336
F1
sg337
I00
sba(imapping
Tile
p777
(dp778
g332
g340
sg334
VS_Snow2
p779
sg336
F1
sg337
I00
sba(imapping
Tile
p780
(dp781
g332
g340
sg334
VS_Snow
p782
sg336
F1
sg337
I00
sbaa(lp783
NaNaNaNaNaNaNaNa(imapping
Tile
p784
(dp785
g332
g340
sg334
VS_Ground1
p786
sg336
F0.20000000000000001
sg337
I00
sba(imapping
Tile
p787
(dp788
g332
g340
sg334
VS_Snow
p789
sg336
F1
sg337
I00
sba(imapping
Tile
p790
(dp791
g332
g340
sg334
VS_Snow
p792
sg336
F1
sg337
I00
sba(imapping
Tile
p793
(dp794
g332
g340
sg334
VS_Snow
p795
sg336
F1
sg337
I00
sbaa(lp796
NaNaNaNaNaNaNaNa(imapping
Tile
p797
(dp798
g332
g333
sg334
VS_LRamp
p799
sg336
F0.20000000000000001
sg337
I00
sba(imapping
Tile
p800
(dp801
g332
g340
sg334
VS_bLRamp
p802
sg336
F1
sg337
I00
sba(imapping
Tile
p803
(dp804
g332
g340
sg334
VS_Snow
p805
sg336
F1
sg337
I00
sba(imapping
Tile
p806
(dp807
g332
g340
sg334
VS_Snow
p808
sg336
F1
sg337
I00
sbaa(lp809
NaNaNaNaNaNaNaNaNa(imapping
Tile
p810
(dp811
g332
g340
sg334
VS_Ground1
p812
sg336
F0.20000000000000001
sg337
I00
sba(imapping
Tile
p813
(dp814
g332
g340
sg334
VS_Snow
p815
sg336
F1
sg337
I00
sba(imapping
Tile
p816
(dp817
g332
g340
sg334
VS_Snow2
p818
sg336
F1
sg337
I00
sbaa(lp819
NaNaNaNaNaNaNaNa(imapping
Tile
p820
(dp821
g332
g377
sg334
VF_Shrooms2
p822
sg336
F1
sg337
I00
sba(imapping
Tile
p823
(dp824
g332
g340
sg334
VS_Ground1
p825
sg336
F0.20000000000000001
sg337
I00
sba(imapping
Tile
p826
(dp827
g332
g340
sg334
VS_Snow2
p828
sg336
F1
sg337
I00
sba(imapping
Tile
p829
(dp830
g332
g340
sg334
VS_Snow
p831
sg336
F1
sg337
I00
sbaa(lp832
NaNaNaNaNaNaNaNa(imapping
Tile
p833
(dp834
g332
g574
sg334
VS_RRamp
p835
sg336
F1
sg337
I00
sba(imapping
Tile
p836
(dp837
g332
g340
sg334
VS_bRRamp
p838
sg336
F1
sg337
I00
sba(imapping
Tile
p839
(dp840
g332
g340
sg334
VS_Snow
p841
sg336
F1
sg337
I00
sba(imapping
Tile
p842
(dp843
g332
g340
sg334
VS_Snow
p844
sg336
F1
sg337
I00
sbaa(lp845
NaNaNaNaNaNaNaNa(imapping
Tile
p846
(dp847
g332
g340
sg334
VS_edgeright
p848
sg336
F1
sg337
I00
sba(imapping
Tile
p849
(dp850
g332
g340
sg334
VS_edgewright2
p851
sg336
F1
sg337
I00
sba(imapping
Tile
p852
(dp853
g332
g340
sg334
VS_edgewright2
p854
sg336
F1
sg337
I00
sba(imapping
Tile
p855
(dp856
g332
g340
sg334
VS_ECleft
p857
sg336
F1
sg337
I00
sbaa(lp858
NaNaNaNaNaNa(imapping
Tile
p859
(dp860
g332
g340
sg334
VS_edgeleft
p861
sg336
F1
sg337
I00
sba(imapping
Tile
p862
(dp863
g332
g340
sg334
VS_UCleft
p864
sg336
F1
sg337
I00
sbaNaNaNa(imapping
Tile
p865
(dp866
g332
g340
sg334
VS_Ground1
p867
sg336
F0.20000000000000001
sg337
I00
sbaa(lp868
NaNaNaNaNaNa(imapping
Tile
p869
(dp870
g332
g340
sg334
VS_Ground1
p871
sg336
F0.20000000000000001
sg337
I00
sba(imapping
Tile
p872
(dp873
g332
g340
sg334
VS_UCJleft
p874
sg336
F1
sg337
I00
sbaNaNa(imapping
Tile
p875
(dp876
g332
g377
sg334
VS_Pillar
p877
sg336
F1
sg337
I00
sba(imapping
Tile
p878
(dp879
g332
g340
sg334
VS_Ground1
p880
sg336
F0.20000000000000001
sg337
I00
sbaa(lp881
NaNaNaNaNa(imapping
Tile
p882
(dp883
g332
g574
sg334
VS_RRamp
p884
sg336
F1
sg337
I00
sba(imapping
Tile
p885
(dp886
g332
g340
sg334
VS_ECright
p887
sg336
F1
sg337
I00
sba(imapping
Tile
p888
(dp889
g332
g340
sg334
VS_Snow
p890
sg336
F1
sg337
I00
sbaNaNa(imapping
Tile
p891
(dp892
g332
g377
sg334
VS_Pillar
p893
sg336
F1
sg337
I00
sba(imapping
Tile
p894
(dp895
g332
g340
sg334
VS_Ground1
p896
sg336
F0.20000000000000001
sg337
I00
sbaa(lp897
NaNaNaNaNa(imapping
Tile
p898
(dp899
g332
g340
sg334
VS_Ground1
p900
sg336
F0.20000000000000001
sg337
I00
sba(imapping
Tile
p901
(dp902
g332
g340
sg334
VS_Snow
p903
sg336
F1
sg337
I00
sba(imapping
Tile
p904
(dp905
g332
g340
sg334
VS_UCJright
p906
sg336
F1
sg337
I00
sbaNaNa(imapping
Tile
p907
(dp908
g332
g377
sg334
VS_Pillar
p909
sg336
F1
sg337
I00
sba(imapping
Tile
p910
(dp911
g332
g340
sg334
VS_Ground1
p912
sg336
F0.20000000000000001
sg337
I00
sbaa(lp913
NaNaNaNaNa(imapping
Tile
p914
(dp915
g332
g340
sg334
VS_edgeright
p916
sg336
F1
sg337
I00
sba(imapping
Tile
p917
(dp918
g332
g340
sg334
VS_edgewright2
p919
sg336
F1
sg337
I00
sba(imapping
Tile
p920
(dp921
g332
g340
sg334
VS_UCright
p922
sg336
F1
sg337
I00
sbaNaNaNa(imapping
Tile
p923
(dp924
g332
g340
sg334
VS_Ground1
p925
sg336
F0.20000000000000001
sg337
I00
sbaa(lp926
NaNaNaNaNaNaNaNaNaNa(imapping
Tile
p927
(dp928
g332
g574
sg334
VS_RRamp
p929
sg336
F1
sg337
I00
sba(imapping
Tile
p930
(dp931
g332
g340
sg334
VS_bRRamp
p932
sg336
F1
sg337
I00
sbaa(lp933
NaNaNaNaNaNaNaNaNaNa(imapping
Tile
p934
(dp935
g332
g340
sg334
VS_Ground1
p936
sg336
F0.20000000000000001
sg337
I00
sba(imapping
Tile
p937
(dp938
g332
g340
sg334
VS_Snow
p939
sg336
F1
sg337
I00
sbaa(lp940
NaNaNaNa(imapping
Tile
p941
(dp942
g332
g340
sg334
VS_edgeleft
p943
sg336
F1
sg337
I00
sba(imapping
Tile
p944
(dp945
g332
g340
sg334
VS_UCleft
p946
sg336
F1
sg337
I00
sbaNaNaNa(imapping
Tile
p947
(dp948
g332
g377
sg334
VS_Tree
p949
sg336
F1
sg337
I00
sba(imapping
Tile
p950
(dp951
g332
g340
sg334
VS_Ground1
p952
sg336
F0.20000000000000001
sg337
I00
sba(imapping
Tile
p953
(dp954
g332
g340
sg334
VS_Snow
p955
sg336
F1
sg337
I00
sbaa(lp956
NaNaNaNa(imapping
Tile
p957
(dp958
g332
g340
sg334
VS_Ground1
p959
sg336
F0.20000000000000001
sg337
I00
sba(imapping
Tile
p960
(dp961
g332
g340
sg334
VS_UCJleft
p962
sg336
F1
sg337
I00
sba(imapping
Tile
p963
(dp964
g332
g340
sg334
VS_UCleft
p965
sg336
F1
sg337
I00
sbaNaNaNa(imapping
Tile
p966
(dp967
g332
g340
sg334
VS_Ground1
p968
sg336
F0.20000000000000001
sg337
I00
sba(imapping
Tile
p969
(dp970
g332
g340
sg334
VS_Snow
p971
sg336
F1
sg337
I00
sbaa(lp972
NaNaNaNa(imapping
Tile
p973
(dp974
g332
g340
sg334
VS_Ground1
p975
sg336
F0.20000000000000001
sg337
I00
sba(imapping
Tile
p976
(dp977
g332
g340
sg334
VS_Snow2
p978
sg336
F1
sg337
I00
sba(imapping
Tile
p979
(dp980
g332
g340
sg334
VS_UCJleft
p981
sg336
F1
sg337
I00
sba(imapping
Tile
p982
(dp983
g332
g340
sg334
VS_edgewleft1
p984
sg336
F1
sg337
I00
sba(imapping
Tile
p985
(dp986
g332
g340
sg334
VS_edgewleft1
p987
sg336
F1
sg337
I00
sba(imapping
Tile
p988
(dp989
g332
g340
sg334
VS_edgewleft1
p990
sg336
F1
sg337
I00
sba(imapping
Tile
p991
(dp992
g332
g340
sg334
VS_ECright
p993
sg336
F1
sg337
I00
sba(imapping
Tile
p994
(dp995
g332
g340
sg334
VS_Snow
p996
sg336
F1
sg337
I00
sbaa(lp997
NaNaNaNa(imapping
Tile
p998
(dp999
g332
g340
sg334
VS_Ground1
p1000
sg336
F0.20000000000000001
sg337
I00
sba(imapping
Tile
p1001
(dp1002
g332
g340
sg334
VS_Snow
p1003
sg336
F1
sg337
I00
sba(imapping
Tile
p1004
(dp1005
g332
g340
sg334
VS_Snow
p1006
sg336
F1
sg337
I00
sba(imapping
Tile
p1007
(dp1008
g332
g340
sg334
VS_Snow
p1009
sg336
F1
sg337
I00
sba(imapping
Tile
p1010
(dp1011
g332
g340
sg334
VS_UCJright
p1012
sg336
F1
sg337
I00
sba(imapping
Tile
p1013
(dp1014
g332
g340
sg334
VS_edgewright1
p1015
sg336
F1
sg337
I00
sba(imapping
Tile
p1016
(dp1017
g332
g340
sg334
VS_edgewright2
p1018
sg336
F1
sg337
I00
sba(imapping
Tile
p1019
(dp1020
g332
g340
sg334
VS_edgewright2
p1021
sg336
F1
sg337
I00
sbaa(lp1022
NaNaNa(imapping
Tile
p1023
(dp1024
g332
g377
sg334
VF_Shrooms2
p1025
sg336
F1
sg337
I00
sba(imapping
Tile
p1026
(dp1027
g332
g340
sg334
VS_Ground1
p1028
sg336
F0.20000000000000001
sg337
I00
sba(imapping
Tile
p1029
(dp1030
g332
g340
sg334
VS_Snow2
p1031
sg336
F1
sg337
I00
sba(imapping
Tile
p1032
(dp1033
g332
g340
sg334
VS_Snow2
p1034
sg336
F1
sg337
I00
sba(imapping
Tile
p1035
(dp1036
g332
g340
sg334
VS_UCJright
p1037
sg336
F1
sg337
I00
sba(imapping
Tile
p1038
(dp1039
g332
g340
sg334
VS_UCright
p1040
sg336
F1
sg337
I00
sbaNaNaNaa(lp1041
NaNaNaNa(imapping
Tile
p1042
(dp1043
g332
g340
sg334
VS_edgeright
p1044
sg336
F1
sg337
I00
sba(imapping
Tile
p1045
(dp1046
g332
g340
sg334
VS_edgewright1
p1047
sg336
F1
sg337
I00
sba(imapping
Tile
p1048
(dp1049
g332
g340
sg334
VS_edgewright2
p1050
sg336
F1
sg337
I00
sba(imapping
Tile
p1051
(dp1052
g332
g340
sg334
VS_UCright
p1053
sg336
F1
sg337
I00
sbaNaNa(imapping
Tile
p1054
(dp1055
g332
g377
sg334
VS_Tree2
p1056
sg336
F1
sg337
I00
sba(imapping
Tile
p1057
(dp1058
g332
g340
sg334
VS_edgeleft
p1059
sg336
F1
sg337
I00
sbaa(lp1060
NaNaNaNaNaNaNaNaNaNaNa(imapping
Tile
p1061
(dp1062
g332
g340
sg334
VS_edgeright
p1063
sg336
F1
sg337
I00
sbaa(lp1064
NaNaNaNaNaNaNaNaNaNaNaNaa(lp1065
NaNaNaNa(imapping
Tile
p1066
(dp1067
g332
g340
sg334
VS_edgeleft
p1068
sg336
F1
sg337
I00
sba(imapping
Tile
p1069
(dp1070
g332
g340
sg334
VS_edgewleft1
p1071
sg336
F1
sg337
I00
sba(imapping
Tile
p1072
(dp1073
g332
g340
sg334
VS_edgewleft2
p1074
sg336
F1
sg337
I00
sba(imapping
Tile
p1075
(dp1076
g332
g340
sg334
VS_UCleft
p1077
sg336
F1
sg337
I00
sbaNaNaNaNaa(lp1078
NaNaNaNa(imapping
Tile
p1079
(dp1080
g332
g340
sg334
VS_Ground1
p1081
sg336
F0.20000000000000001
sg337
I00
sba(imapping
Tile
p1082
(dp1083
g332
g340
sg334
VS_Snow2
p1084
sg336
F1
sg337
I00
sba(imapping
Tile
p1085
(dp1086
g332
g340
sg334
VS_Snow
p1087
sg336
F1
sg337
I00
sba(imapping
Tile
p1088
(dp1089
g332
g340
sg334
VS_UCJleft
p1090
sg336
F1
sg337
I00
sbaNaNa(imapping
Tile
p1091
(dp1092
g332
g377
sg334
VS_Pillar
p1093
sg336
F1
sg337
I00
sba(imapping
Tile
p1094
(dp1095
g332
g340
sg334
VS_edgeleft
p1096
sg336
F1
sg337
I00
sbaa(lp1097
NaNaNaNa(imapping
Tile
p1098
(dp1099
g332
g340
sg334
VS_Ground1
p1100
sg336
F0.20000000000000001
sg337
I00
sba(imapping
Tile
p1101
(dp1102
g332
g340
sg334
VS_Snow
p1103
sg336
F1
sg337
I00
sba(imapping
Tile
p1104
(dp1105
g332
g340
sg334
VS_Snow2
p1106
sg336
F1
sg337
I00
sba(imapping
Tile
p1107
(dp1108
g332
g340
sg334
VS_Snow
p1109
sg336
F1
sg337
I00
sbaNaNa(imapping
Tile
p1110
(dp1111
g332
g377
sg334
VS_Tree2
p1112
sg336
F1
sg337
I00
sba(imapping
Tile
p1113
(dp1114
g332
g340
sg334
VS_Ground1
p1115
sg336
F0.20000000000000001
sg337
I00
sbaa(lp1116
NaNaNa(imapping
Tile
p1117
(dp1118
g332
g377
sg334
VS_Tree
p1119
sg336
F1
sg337
I00
sba(imapping
Tile
p1120
(dp1121
g332
g340
sg334
VS_Ground1
p1122
sg336
F0.20000000000000001
sg337
I00
sba(imapping
Tile
p1123
(dp1124
g332
g340
sg334
VS_Snow2
p1125
sg336
F1
sg337
I00
sba(imapping
Tile
p1126
(dp1127
g332
g340
sg334
VS_Snow
p1128
sg336
F1
sg337
I00
sba(imapping
Tile
p1129
(dp1130
g332
g340
sg334
VS_UCJright
p1131
sg336
F1
sg337
I00
sbaNaNa(imapping
Tile
p1132
(dp1133
g332
g574
sg334
VS_RRamp
p1134
sg336
F1
sg337
I00
sba(imapping
Tile
p1135
(dp1136
g332
g340
sg334
VS_bRRamp
p1137
sg336
F1
sg337
I00
sbaa(lp1138
NaNaNa(imapping
Tile
p1139
(dp1140
g332
g377
sg334
VS_Stones
p1141
sg336
F1
sg337
I00
sba(imapping
Tile
p1142
(dp1143
g332
g340
sg334
VS_Ground1
p1144
sg336
F0.20000000000000001
sg337
I00
sba(imapping
Tile
p1145
(dp1146
g332
g340
sg334
VS_Snow2
p1147
sg336
F1
sg337
I00
sba(imapping
Tile
p1148
(dp1149
g332
g340
sg334
VS_UCJright
p1150
sg336
F1
sg337
I00
sba(imapping
Tile
p1151
(dp1152
g332
g340
sg334
VS_UCright
p1153
sg336
F1
sg337
I00
sbaNaNa(imapping
Tile
p1154
(dp1155
g332
g340
sg334
VS_Ground1
p1156
sg336
F0.20000000000000001
sg337
I00
sba(imapping
Tile
p1157
(dp1158
g332
g340
sg334
VS_Snow
p1159
sg336
F1
sg337
I00
sbaa(lp1160
NaNaNaNa(imapping
Tile
p1161
(dp1162
g332
g340
sg334
VS_Ground1
p1163
sg336
F0.20000000000000001
sg337
I00
sba(imapping
Tile
p1164
(dp1165
g332
g340
sg334
VS_UCJright
p1166
sg336
F1
sg337
I00
sba(imapping
Tile
p1167
(dp1168
g332
g340
sg334
VS_UCright
p1169
sg336
F1
sg337
I00
sbaNaNa(imapping
Tile
p1170
(dp1171
g332
g377
sg334
VS_Railing_1
p1172
sg336
F1
sg337
I00
sba(imapping
Tile
p1173
(dp1174
g332
g340
sg334
VS_Ground1
p1175
sg336
F0.20000000000000001
sg337
I00
sba(imapping
Tile
p1176
(dp1177
g332
g340
sg334
VS_Snow
p1178
sg336
F1
sg337
I00
sbaa(lp1179
NaNaNaNa(imapping
Tile
p1180
(dp1181
g332
g340
sg334
VS_edgeright
p1182
sg336
F1
sg337
I00
sba(imapping
Tile
p1183
(dp1184
g332
g340
sg334
VS_UCright
p1185
sg336
F1
sg337
I00
sbaNaNaNa(imapping
Tile
p1186
(dp1187
g332
g377
sg334
VS_Railing_R
p1188
sg336
F1
sg337
I00
sba(imapping
Tile
p1189
(dp1190
g332
g340
sg334
VS_edgeright
p1191
sg336
F1
sg337
I00
sba(imapping
Tile
p1192
(dp1193
g332
g340
sg334
VS_edgewright1
p1194
sg336
F1
sg337
I00
sbaa(lp1195
NaNaNaNaNaNaNaNaNaNaNaNaa(lp1196
NaNaNaNaNaNaNa(imapping
Tile
p1197
(dp1198
g332
g340
sg334
VS_edgeleft
p1199
sg336
F1
sg337
I00
sba(imapping
Tile
p1200
(dp1201
g332
g340
sg334
VS_edgewleft1
p1202
sg336
F1
sg337
I00
sba(imapping
Tile
p1203
(dp1204
g332
g340
sg334
VS_edgewleft2
p1205
sg336
F1
sg337
I00
sba(imapping
Tile
p1206
(dp1207
g332
g340
sg334
VS_edgewleft1
p1208
sg336
F1
sg337
I00
sba(imapping
Tile
p1209
(dp1210
g332
g340
sg334
VS_edgewleft2
p1211
sg336
F1
sg337
I00
sbaa(lp1212
NaNaNaNaNaNa(imapping
Tile
p1213
(dp1214
g332
g377
sg334
VS_Tree
p1215
sg336
F1
sg337
I00
sba(imapping
Tile
p1216
(dp1217
g332
g340
sg334
VS_Ground1
p1218
sg336
F0.20000000000000001
sg337
I00
sba(imapping
Tile
p1219
(dp1220
g332
g340
sg334
VS_Snow
p1221
sg336
F1
sg337
I00
sba(imapping
Tile
p1222
(dp1223
g332
g340
sg334
VS_Snow2
p1224
sg336
F1
sg337
I00
sba(imapping
Tile
p1225
(dp1226
g332
g340
sg334
VS_Snow2
p1227
sg336
F1
sg337
I00
sba(imapping
Tile
p1228
(dp1229
g332
g340
sg334
VS_Snow
p1230
sg336
F1
sg337
I00
sbaa(lp1231
NaNaNaNaNaNaNa(imapping
Tile
p1232
(dp1233
g332
g340
sg334
VS_Ground1
p1234
sg336
F0.20000000000000001
sg337
I00
sba(imapping
Tile
p1235
(dp1236
g332
g340
sg334
VS_Snow2
p1237
sg336
F1
sg337
I00
sba(imapping
Tile
p1238
(dp1239
g332
g340
sg334
VS_Snow2
p1240
sg336
F1
sg337
I00
sba(imapping
Tile
p1241
(dp1242
g332
g340
sg334
VS_Snow2
p1243
sg336
F1
sg337
I00
sba(imapping
Tile
p1244
(dp1245
g332
g340
sg334
VS_Snow2
p1246
sg336
F1
sg337
I00
sbaa(lp1247
NaNaNaNaNaNa(imapping
Tile
p1248
(dp1249
g332
g377
sg334
VS_Tree2
p1250
sg336
F1
sg337
I00
sba(imapping
Tile
p1251
(dp1252
g332
g340
sg334
VS_Ground1
p1253
sg336
F0.20000000000000001
sg337
I00
sba(imapping
Tile
p1254
(dp1255
g332
g340
sg334
VS_Snow
p1256
sg336
F1
sg337
I00
sba(imapping
Tile
p1257
(dp1258
g332
g340
sg334
VS_Snow2
p1259
sg336
F1
sg337
I00
sba(imapping
Tile
p1260
(dp1261
g332
g340
sg334
VS_Snow
p1262
sg336
F1
sg337
I00
sba(imapping
Tile
p1263
(dp1264
g332
g340
sg334
VS_Snow
p1265
sg336
F1
sg337
I00
sbaa(lp1266
NaNaNaNaNaNa(imapping
Tile
p1267
(dp1268
g332
g574
sg334
VS_RRamp
p1269
sg336
F1
sg337
I00
sba(imapping
Tile
p1270
(dp1271
g332
g340
sg334
VS_bRRamp
p1272
sg336
F1
sg337
I00
sba(imapping
Tile
p1273
(dp1274
g332
g340
sg334
VS_Snow
p1275
sg336
F1
sg337
I00
sba(imapping
Tile
p1276
(dp1277
g332
g340
sg334
VS_Snow2
p1278
sg336
F1
sg337
I00
sba(imapping
Tile
p1279
(dp1280
g332
g340
sg334
VS_Snow2
p1281
sg336
F1
sg337
I00
sba(imapping
Tile
p1282
(dp1283
g332
g340
sg334
VS_UCJright
p1284
sg336
F1
sg337
I00
sbaa(lp1285
NaNaNaNaNa(imapping
Tile
p1286
(dp1287
g332
g377
sg334
VS_Railing_R
p1288
sg336
F1
sg337
I00
sba(imapping
Tile
p1289
(dp1290
g332
g340
sg334
VS_edgeright
p1291
sg336
F1
sg337
I00
sba(imapping
Tile
p1292
(dp1293
g332
g340
sg334
VS_edgewright1
p1294
sg336
F1
sg337
I00
sba(imapping
Tile
p1295
(dp1296
g332
g340
sg334
VS_edgewright2
p1297
sg336
F1
sg337
I00
sba(imapping
Tile
p1298
(dp1299
g332
g340
sg334
VS_edgewright2
p1300
sg336
F1
sg337
I00
sba(imapping
Tile
p1301
(dp1302
g332
g340
sg334
VS_edgewright1
p1303
sg336
F1
sg337
I00
sba(imapping
Tile
p1304
(dp1305
g332
g340
sg334
VS_UCright
p1306
sg336
F1
sg337
I00
sbaa(lp1307
NaNaNaNaNaNaNaNaNaNaNaNaa(lp1308
NaNaNaNaNaNaNaNaNaNaNaNaa(lp1309
NaNaNaNaNaNaNaNaNaNaNa(imapping
Tile
p1310
(dp1311
g332
g340
sg334
VS_edgeleft
p1312
sg336
F1
sg337
I00
sbaa(lp1313
NaNaNaNaNaNaNaNaNaNaNa(imapping
Tile
p1314
(dp1315
g332
g340
sg334
VS_edgeright
p1316
sg336
F1
sg337
I00
sbaa(lp1317
NaNaNaNaNaNaNaNaNaNaNaNaa(lp1318
NaNaNaNaNaNaNaNaNaNaNaNaa(lp1319
NaNaNaNaNaNaNaNaNaNaNaNaa(lp1320
NaNaNaNaNaNaNaNaNaNaNa(imapping
Tile
p1321
(dp1322
g332
g340
sg334
VS_edgeleft
p1323
sg336
F1
sg337
I00
sbaa(lp1324
NaNaNaNaNaNaNaNaNaNa(imapping
Tile
p1325
(dp1326
g332
g377
sg334
VS_Tree2
p1327
sg336
F1
sg337
I00
sba(imapping
Tile
p1328
(dp1329
g332
g340
sg334
VS_edgeright
p1330
sg336
F1
sg337
I00
sbaa(lp1331
NaNaNaNaNaNaNaNaNaNaNaNaa(lp1332
NaNaNaNaNaNaNaNaNaNaNaNaa(lp1333
NaNaNaNaNaNaNaNaNa(imapping
Tile
p1334
(dp1335
g332
g357
sg334
VF_Shrooms1
p1336
sg336
F1
sg337
I00
sba(imapping
Tile
p1337
(dp1338
g332
g340
sg334
VS_edgeleft
p1339
sg336
F1
sg337
I00
sba(imapping
Tile
p1340
(dp1341
g332
g340
sg334
VS_edgewleft2
p1342
sg336
F1
sg337
I00
sbaa(lp1343
NaNaNaNaNaNaNaNaNaNa(imapping
Tile
p1344
(dp1345
g332
g340
sg334
VS_edgeright
p1346
sg336
F1
sg337
I00
sba(imapping
Tile
p1347
(dp1348
g332
g340
sg334
VS_edgewright2
p1349
sg336
F1
sg337
I00
sbaa(lp1350
NaNaNaNaNaNaNaNaNaNaNaNaa(lp1351
NaNaNaNaNaNaNaNaNaNaNaNaa(lp1352
NaNaNaNaNaNaNaNaNaNaNaNaa(lp1353
NaNaNaNaNaNaNaNaNaNa(imapping
Tile
p1354
(dp1355
g332
g340
sg334
VS_edgeleft
p1356
sg336
F1
sg337
I00
sba(imapping
Tile
p1357
(dp1358
g332
g340
sg334
VS_edgewleft2
p1359
sg336
F1
sg337
I00
sbaa(lp1360
NaNaNaNaNaNaNaNaNa(imapping
Tile
p1361
(dp1362
g332
g574
sg334
VS_RRamp
p1363
sg336
F1
sg337
I00
sba(imapping
Tile
p1364
(dp1365
g332
g340
sg334
VS_bRRamp
p1366
sg336
F1
sg337
I00
sba(imapping
Tile
p1367
(dp1368
g332
g340
sg334
VS_Snow
p1369
sg336
F1
sg337
I00
sbaa(lp1370
NaNaNaNaNaNaNaNa(imapping
Tile
p1371
(dp1372
g332
g377
sg334
VF_Shrooms2
p1373
sg336
F1
sg337
I00
sba(imapping
Tile
p1374
(dp1375
g332
g340
sg334
VS_Ground1
p1376
sg336
F0.20000000000000001
sg337
I00
sba(imapping
Tile
p1377
(dp1378
g332
g340
sg334
VS_Snow
p1379
sg336
F1
sg337
I00
sba(imapping
Tile
p1380
(dp1381
g332
g340
sg334
VS_Snow2
p1382
sg336
F1
sg337
I00
sbaa(lp1383
NaNaNaNaNaNaNaNaNa(imapping
Tile
p1384
(dp1385
g332
g340
sg334
VS_edgeright
p1386
sg336
F1
sg337
I00
sba(imapping
Tile
p1387
(dp1388
g332
g340
sg334
VS_edgewright2
p1389
sg336
F1
sg337
I00
sba(imapping
Tile
p1390
(dp1391
g332
g340
sg334
VS_edgewright1
p1392
sg336
F1
sg337
I00
sbaa(lp1393
NaNaNaNaNaNaNaNaNaNaNa(imapping
Tile
p1394
(dp1395
g332
g340
sg334
VS_edgeleft
p1396
sg336
F1
sg337
I00
sbaa(lp1397
NaNaNaNaNaNaNaNaNaNaNa(imapping
Tile
p1398
(dp1399
g332
g340
sg334
VS_Ground1
p1400
sg336
F0.20000000000000001
sg337
I00
sbaa(lp1401
NaNaNaNaNaNaNaNaNaNaNa(imapping
Tile
p1402
(dp1403
g332
g340
sg334
VS_Ground1
p1404
sg336
F0.20000000000000001
sg337
I00
sbaa(lp1405
NaNaNaNaNaNaNaNaNaNa(imapping
Tile
p1406
(dp1407
g332
g377
sg334
VS_Pillar
p1408
sg336
F1
sg337
I00
sba(imapping
Tile
p1409
(dp1410
g332
g340
sg334
VS_Ground1
p1411
sg336
F0.20000000000000001
sg337
I00
sbaa(lp1412
NaNaNaNaNaNaNaNaNaNa(imapping
Tile
p1413
(dp1414
g332
g377
sg334
VS_Stones
p1415
sg336
F1
sg337
I00
sba(imapping
Tile
p1416
(dp1417
g332
g340
sg334
VS_Ground1
p1418
sg336
F0.20000000000000001
sg337
I00
sbaa(lp1419
NaNaNaNaNaNaNa(imapping
Tile
p1420
(dp1421
g332
g377
sg334
VS_Pillartop
p1422
sg336
F1
sg337
I00
sbaNaNaNa(imapping
Tile
p1423
(dp1424
g332
g340
sg334
VS_Ground1
p1425
sg336
F0.20000000000000001
sg337
I00
sbaa(lp1426
NaNaNaNaNaNaNaNaNaNa(imapping
Tile
p1427
(dp1428
g332
g377
sg334
VS_Pillar
p1429
sg336
F1
sg337
I00
sba(imapping
Tile
p1430
(dp1431
g332
g340
sg334
VS_Ground1
p1432
sg336
F0.20000000000000001
sg337
I00
sbaa(lp1433
NaNaNaNaNaNaNaNaNaNa(imapping
Tile
p1434
(dp1435
g332
g377
sg334
VF_Shrooms2
p1436
sg336
F1
sg337
I00
sba(imapping
Tile
p1437
(dp1438
g332
g340
sg334
VS_Ground1
p1439
sg336
F0.20000000000000001
sg337
I00
sbaa(lp1440
NaNaNaNaNaNaNaNaNaNaNa(imapping
Tile
p1441
(dp1442
g332
g340
sg334
VS_Ground1
p1443
sg336
F0.20000000000000001
sg337
I00
sbaa(lp1444
NaNaNaNaNaNaNaNaNaNaNa(imapping
Tile
p1445
(dp1446
g332
g340
sg334
VS_Ground1
p1447
sg336
F0.20000000000000001
sg337
I00
sbaa(lp1448
NaNaNaNaNaNaNaNaNaNaNa(imapping
Tile
p1449
(dp1450
g332
g340
sg334
VS_Ground1
p1451
sg336
F0.20000000000000001
sg337
I00
sbaa(lp1452
NaNaNaNaNaNaNaNaNaNaNa(imapping
Tile
p1453
(dp1454
g332
g340
sg334
VS_Ground1
p1455
sg336
F0.20000000000000001
sg337
I00
sbaa(lp1456
NaNaNaNaNaNaNaNaNaNaNa(imapping
Tile
p1457
(dp1458
g332
g340
sg334
VS_Ground1
p1459
sg336
F0.20000000000000001
sg337
I00
sbaa(lp1460
NaNaNaNaNaNaNaNaNaNaNa(imapping
Tile
p1461
(dp1462
g332
g340
sg334
VS_Ground1
p1463
sg336
F0.20000000000000001
sg337
I00
sbaa(lp1464
NaNaNaNaNaNaNaNaNaNaNa(imapping
Tile
p1465
(dp1466
g332
g340
sg334
VS_Ground1
p1467
sg336
F0.20000000000000001
sg337
I00
sbaa(lp1468
NaNaNaNaNaNaNaNaNaNaNa(imapping
Tile
p1469
(dp1470
g332
g340
sg334
VS_Ground1
p1471
sg336
F0.20000000000000001
sg337
I00
sbaa(lp1472
NaNaNaNaNaNaNaNaNaNaNa(imapping
Tile
p1473
(dp1474
g332
g340
sg334
VS_Ground1
p1475
sg336
F0.20000000000000001
sg337
I00
sbaa(lp1476
NaNaNaNaNaNaNaNaNaNaNaNaa(lp1477
NaNaNaNaNaNaNaNaNaNaNaNaa(lp1478
NaNaNaNaNaNaNaNaNaNaNaNaa(lp1479
NaNaNaNaNaNaNaNaNaNaNaNaasS'bgmusic'
p1480
VSnodom.ogg
p1481
sS'theme'
p1482
VSnow
p1483
sS'endef'
p1484
(dp1485
VCSpider
p1486
Vcspider
p1487
sVSnowOgre
p1488
Vsnowogre
p1489
sVWasp
p1490
Vwasp
p1491
sVPoisPod
p1492
Vpoispod
p1493
sVSpider
p1494
Vspider
p1495
sVSnowBat
p1496
Vsnowbat
p1497
sVWorm
p1498
Vworm
p1499
sVGiantJelly
p1500
Vgiantjelly
p1501
sVPod
p1502
Vpod
p1503
sVGiantWorm
p1504
Vgiantworm
p1505
ssS'tiledef'
p1506
(dp1507
VS_bLRamp
p1508
Vsnow_blramp.png
p1509
sVF_Dirt_R2
p1510
Vdirtr_edge2.png
p1511
sVF_Dirt_R1
p1512
Vdirtr_edge1.png
p1513
sVS_Railing_1
p1514
Vsnow_railing1.png
p1515
sVS_Railing_2
p1516
Vsnow_railing2.png
p1517
sVC_Suit of Armour
p1518
Vsuit_armour.png
p1519
sVS_UCleft
p1520
Vsnow_undercorner_left.png
p1521
sVF_Right_Halframp1
p1522
VR_HR1.png
p1523
sVF_Right_Halframp2
p1524
VR_HR2.png
p1525
sVF_GrassRedge
p1526
Vgrassr_edge.png
p1527
sVS_ECleft
p1528
Vsnow_edgecorner_left.png
p1529
sVF_Tuft1
p1530
Vtuft1.png
p1531
sVF_Tuft2
p1532
Vtuft2.png
p1533
sVS_Tree
p1534
Vsnow_tree.png
p1535
sVF_Grass
p1536
Vgrass.png
p1537
sVC_Castle Wall->Floor R
p1538
Vcstl_wfright.png
p1539
sVS_Railing_L
p1540
Vsnow_railing_left.png
p1541
sVC_Castle HRR
p1542
Vcstl_hr_r.png
p1543
sVS_RRamp
p1544
Vsnow_rramp.png
p1545
sVC_Castle HRL
p1546
Vcstl_hr_l.png
p1547
sVS_Pillar
p1548
Vsnow_pillar.png
p1549
sVS_Railing_R
p1550
Vsnow_railing_right.png
p1551
sVS_Ground1
p1552
Vsnow_ground1.png
p1553
sVF_Stump
p1554
Vtreestump.png
p1555
sVC_Castle Ground 2
p1556
Vcstl_ground2.png
p1557
sVC_Castle Ground 3
p1558
Vcstl_ground3.png
p1559
sVC_Castle Ground 1
p1560
Vcstl_ground1.png
p1561
sVS_Snow2
p1562
Vsnow_snow2.png
p1563
sVF_Grass_Alt_5
p1564
Vgrassc5.png
p1565
sVS_bRRamp
p1566
Vsnow_brramp.png
p1567
sVC_Castle Floor 2
p1568
Vcstl_floor2.png
p1569
sVS_Snow
p1570
Vsnow_snow.png
p1571
sVF_Grass_Alt_2
p1572
Vgrassc2.png
p1573
sVF_ExitSign
p1574
Vexitsign.png
p1575
sVF_Grass->Dirttop
p1576
Vgrassmdirt.png
p1577
sVS_UCright
p1578
Vsnow_undercorner_right.png
p1579
sVS_Pillartop
p1580
Vsnow_pillartop.png
p1581
sVF_Dirttop->Grass
p1582
Vdirtmgrass.png
p1583
sVS_ECright
p1584
Vsnow_edgecorner_right.png
p1585
sVC_Castle HRmL
p1586
Vcstl_hr_m_l.png
p1587
sVC_Castle Wall L
p1588
Vcstl_wleft.png
p1589
sVC_Castle Wall R
p1590
Vcstl_wright.png
p1591
sVC_Castle HRmR
p1592
Vcstl_hr_m_r.png
p1593
sVF_Ice
p1594
Vtile5.png
p1595
sVC_Castle Floor 4
p1596
Vcstl_floor4.png
p1597
sVF_Grass_Alt_4
p1598
Vgrassc4.png
p1599
sVF_Grass_Alt_1
p1600
Vgrassc1.png
p1601
sVC_Castle Floor 1
p1602
Vcstl_floor1.png
p1603
sVF_Grass_Alt_3
p1604
Vgrassc3.png
p1605
sVC_Castle Floor 3
p1606
Vcstl_floor3.png
p1607
sVS_edgewleft1
p1608
Vsnow_edgewall_left1.png
p1609
sVS_edgewleft2
p1610
Vsnow_edgewall_left2.png
p1611
sVS_UCJright
p1612
Vsnow_undercorner_join_right.png
p1613
sVS_LRamp
p1614
Vsnow_lramp.png
p1615
sVC_Castle Floor Edge R
p1616
Vcstl_floor_edge_right.png
p1617
sVF_Dirt_L1
p1618
Vdirtl_edge1.png
p1619
sVF_Dirt_L2
p1620
Vdirtl_edge2.png
p1621
sVC_Castle Floor Edge L
p1622
Vcstl_floor_edge_left.png
p1623
sVF_Left_Halframp2
p1624
VL_HR2.png
p1625
sVF_Left_Halframp1
p1626
VL_HR1.png
p1627
sVF_Shrooms2
p1628
Vshrooms2.png
p1629
sVF_Shrooms3
p1630
Vshrooms3.png
p1631
sVF_Shrooms1
p1632
Vshrooms1.png
p1633
sVF_RampJoinL
p1634
Vramp_mid_dirt_l.png
p1635
sVS_Tree2
p1636
Vsnow_tree2.png
p1637
sVF_RampJoinR
p1638
Vramp_mid_dirt_r.png
p1639
sVF_GrassLedge
p1640
Vgrassl_edge.png
p1641
sVS_Stones
p1642
Vsnow_stones.png
p1643
sVS_edgeright
p1644
Vsnow_edge_right.png
p1645
sVS_edgewright2
p1646
Vsnow_edgewall_right2.png
p1647
sVS_edgewright1
p1648
Vsnow_edgewall_right1.png
p1649
sVF_Dirtb
p1650
Vdirtb.png
p1651
sVF_Right_Ramp
p1652
VR_R.png
p1653
sVF_HalframpJoinL
p1654
Vhalframp_mid_dirt_l.png
p1655
sVF_Dirt_BL
p1656
Vdirtl_bedge.png
p1657
sVF_HalframpJoinR
p1658
Vhalframp_mid_dirt_r.png
p1659
sVF_Dirt_BR
p1660
Vdirtr_bedge.png
p1661
sVF_Dirtb2
p1662
Vdirtb2.png
p1663
sVF_Left_Ramp
p1664
VL_R.png
p1665
sVC_Castle Wall->Floor L
p1666
Vcstl_wfleft.png
p1667
sVF_Dirt
p1668
Vdirt.png
p1669
sVF_Grass->DirtL
p1670
Vgrass_dirt_l.png
p1671
sVS_edgeleft
p1672
Vsnow_edge_left.png
p1673
sVF_Dirttop
p1674
Vdirttop.png
p1675
sVF_Dirt_Alt_4
p1676
Vdirtc4.png
p1677
sVF_Dirt_Alt_3
p1678
Vdirtc3.png
p1679
sVF_Dirt_Alt_2
p1680
Vdirtc2.png
p1681
sVF_Dirt_Alt_1
p1682
Vdirtc1.png
p1683
sVF_Grass->DirtR
p1684
Vgrass_dirt_r.png
p1685
sVS_UCJleft
p1686
Vsnow_undercorner_join_left.png
p1687
ssb.