(imapping
Map
p1
(dp2
S'enemy'
p3
(lp4
(lp5
NaNaNaNaNaNaNaNaNaNaNaNaa(lp6
NaNaNaNaNaNaNaNaNaNaNaNaa(lp7
NaNaNaNaNaNaNaNaNaNaNaNaa(lp8
NaNaNaNaNaNaNaNaNaNaNaNaa(lp9
NaNaNaNaNaNaNaNaNaNaNaNaa(lp10
NaNaNaNaNaNaNaNaNaNaNaNaa(lp11
NaNaNaNaNaNaNaNaNaNaNaNaa(lp12
NaNaNaNaNaNaNaNaNaNaNaNaa(lp13
NaNaNaNaNaNaNaNaNaNaNaNaa(lp14
NaNaNaNaNaNaNaNaNaNaNaNaa(lp15
NaNaNaNaNaNaNaNaNaNaNaNaa(lp16
NaNaNaNaNaNaNaNaNaNaNaNaa(lp17
NaNaNaNaNaNaNaNaNaNaNaNaa(lp18
NaNaNaNaNaNaNaNaNaNaNaNaa(lp19
NaNaNaNaNaNaNaNaNaNaNaNaa(lp20
NaNaNaNaNaNaNaNaNaNaNaNaa(lp21
NaNaNaNaNaNaNaNaNaNaNaNaa(lp22
NaNaNaNaNaNaNaNaNaNaNaNaa(lp23
NaNaNaNaNaNaNaNaNaNaNaNaa(lp24
NaNaNaNaNaNaNaNaNaNaNaNaa(lp25
NaNaNaNaNaNaNaNaNaNaNaNaa(lp26
NaNaNaNaNaNaNaNaNaNaNaNaa(lp27
NaNaNaNaNaNaNaNaNaNaNaNaa(lp28
NaNaNaNaNaNaNaNaNaNaNaNaa(lp29
NaNaNaNaNaNaNaNaNaNaNaNaa(lp30
NaNaNaNaNaNaNaNaNaNaNaNaa(lp31
NaNaNaNaNaNaNaNaNaNaNaNaa(lp32
NaNaNaNaNaNaNaNaNaNaNaNaa(lp33
NaNaNaNaNaNaNaNaNaNaNaNaa(lp34
NaNaNaNaNaNaNaNaNaNaNaNaa(lp35
NaNaNaNaNaNaNaNaNaNaNaNaa(lp36
NaNaNaNaNaNaNaNaNaNaNaNaa(lp37
NaNaNaNaNaVBoss_Radkelu
p38
aNaNaNaNaNaNaa(lp39
NaNaNaNaNaNaNaNaNaNaNaNaa(lp40
NaNaNaNaNaNaNaNaNaNaNaNaa(lp41
NaNaNaNaNaNaNaNaNaNaNaNaa(lp42
NaNaNaNaNaNaNaNaNaNaNaNaa(lp43
NaNaNaNaNaNaNaNaNaNaNaNaa(lp44
NaNaNaNaNaNaNaNaNaNaNaNaa(lp45
NaNaNaNaNaNaNaNaNaNaNaNaa(lp46
NaNaNaNaNaNaNaNaNaNaNaNaa(lp47
NaNaNaNaNaNaNaNaNaNaNaNaa(lp48
NaNaNaNaNaNaNaNaNaNaNaNaa(lp49
NaNaNaNaNaNaNaNaNaNaNaNaa(lp50
NaNaNaNaNaNaNaNaNaNaNaNaa(lp51
NaNaNaNaNaNaNaNaNaNaNaNaa(lp52
NaNaNaNaNaNaNaNaNaNaNaNaa(lp53
NaNaNaNaNaNaNaNaNaNaNaNaa(lp54
NaNaNaNaNaNaNaNaNaNaNaNaa(lp55
NaNaNaNaNaNaNaNaNaNaNaNaa(lp56
NaNaNaNaNaNaNaNaNaNaNaNaa(lp57
NaNaNaNaNaNaNaNaNaNaNaNaa(lp58
NaNaNaNaNaNaNaNaNaNaNaNaa(lp59
NaNaNaNaNaNaNaNaNaNaNaNaa(lp60
NaNaNaNaNaNaNaNaNaNaNaNaa(lp61
NaNaNaNaNaNaNaNaNaNaNaNaa(lp62
NaNaNaNaNaNaNaNaNaNaNaNaa(lp63
NaNaNaNaNaNaNaNaNaNaNaNaa(lp64
NaNaNaNaNaNaNaNaNaNaNaNaa(lp65
NaNaNaNaNaNaNaNaNaNaNaNaa(lp66
NaNaNaNaNaNaNaNaNaNaNaNaa(lp67
NaNaNaNaNaNaNaNaNaNaNaNaa(lp68
NaNaNaNaNaNaNaNaNaNaNaNaa(lp69
NaNaNaNaNaNaNaNaNaNaNaNaa(lp70
NaNaNaNaNaNaNaNaNaNaNaNaa(lp71
NaNaNaNaNaNaNaNaNaNaNaNaa(lp72
NaNaNaNaNaNaNaNaNaNaNaNaa(lp73
NaNaNaNaNaNaNaNaNaNaNaNaa(lp74
NaNaNaNaNaNaNaNaNaNaNaNaa(lp75
NaNaNaNaNaNaNaNaNaNaNaNaa(lp76
NaNaNaNaNaNaNaNaNaNaNaNaa(lp77
NaNaNaNaNaNaNaNaNaNaNaNaa(lp78
NaNaNaNaNaNaNaNaNaNaNaNaa(lp79
NaNaNaNaNaNaNaNaNaNaNaNaa(lp80
NaNaNaNaNaNaNaNaNaNaNaNaa(lp81
NaNaNaNaNaNaNaNaNaNaNaNaa(lp82
NaNaNaNaNaNaNaNaNaNaNaNaa(lp83
NaNaNaNaNaNaNaNaNaNaNaNaa(lp84
NaNaNaNaNaNaNaNaNaNaNaNaa(lp85
NaNaNaNaNaNaNaNaNaNaNaNaa(lp86
NaNaNaNaNaNaNaNaNaNaNaNaa(lp87
NaNaNaNaNaNaNaNaNaNaNaNaa(lp88
NaNaNaNaNaNaNaNaNaNaNaNaa(lp89
NaNaNaNaNaNaNaNaNaNaNaNaa(lp90
NaNaNaNaNaNaNaNaNaNaNaNaa(lp91
NaNaNaNaNaNaNaNaNaNaNaNaa(lp92
NaNaNaNaNaNaNaNaNaNaNaNaa(lp93
NaNaNaNaNaNaNaNaNaNaNaNaa(lp94
NaNaNaNaNaNaNaNaNaNaNaNaa(lp95
NaNaNaNaNaNaNaNaNaNaNaNaa(lp96
NaNaNaNaNaNaNaNaNaNaNaNaa(lp97
NaNaNaNaNaNaNaNaNaNaNaNaa(lp98
NaNaNaNaNaNaNaNaNaNaNaNaa(lp99
NaNaNaNaNaNaNaNaNaNaNaNaa(lp100
NaNaNaNaNaNaNaNaNaNaNaNaa(lp101
NaNaNaNaNaNaNaNaNaNaNaNaa(lp102
NaNaNaNaNaNaNaNaNaNaNaNaa(lp103
NaNaNaNaNaNaNaNaNaNaNaNaa(lp104
NaNaNaNaNaNaNaNaNaNaNaNaa(lp105
NaNaNaNaNaNaNaNaNaNaNaNaa(lp106
NaNaNaNaNaNaNaNaNaNaNaNaa(lp107
NaNaNaNaNaNaNaNaNaNaNaNaa(lp108
NaNaNaNaNaNaNaNaNaNaNaNaa(lp109
NaNaNaNaNaNaNaNaNaNaNaNaa(lp110
NaNaNaNaNaNaNaNaNaNaNaNaa(lp111
NaNaNaNaNaNaNaNaNaNaNaNaa(lp112
NaNaNaNaNaNaNaNaNaNaNaNaa(lp113
NaNaNaNaNaNaNaNaNaNaNaNaa(lp114
NaNaNaNaNaNaNaNaNaNaNaNaa(lp115
NaNaNaNaNaNaNaNaNaNaNaNaa(lp116
NaNaNaNaNaNaNaNaNaNaNaNaa(lp117
NaNaNaNaNaNaNaNaNaNaNaNaa(lp118
NaNaNaNaNaNaNaNaNaNaNaNaa(lp119
NaNaNaNaNaNaNaNaNaNaNaNaa(lp120
NaNaNaNaNaNaNaNaNaNaNaNaa(lp121
NaNaNaNaNaNaNaNaNaNaNaNaa(lp122
NaNaNaNaNaNaNaNaNaNaNaNaa(lp123
NaNaNaNaNaNaNaNaNaNaNaNaa(lp124
NaNaNaNaNaNaNaNaNaNaNaNaa(lp125
NaNaNaNaNaNaNaNaNaNaNaNaa(lp126
NaNaNaNaNaNaNaNaNaNaNaNaa(lp127
NaNaNaNaNaNaNaNaNaNaNaNaa(lp128
NaNaNaNaNaNaNaNaNaNaNaNaa(lp129
NaNaNaNaNaNaNaNaNaNaNaNaa(lp130
NaNaNaNaNaNaNaNaNaNaNaNaa(lp131
NaNaNaNaNaNaNaNaNaNaNaNaa(lp132
NaNaNaNaNaNaNaNaNaNaNaNaa(lp133
NaNaNaNaNaNaNaNaNaNaNaNaasS'objdef'
p134
(dp135
VButterfly
p136
VButterfly.png
p137
sVLevel_End
p138
VEnd.png
p139
sVShield
p140
VShield.png
p141
sVPlayer_Start
p142
VStart.png
p143
sVLever_Snow
p144
VLever1.png
p145
sVTorchref
p146
VTorchref.png
p147
sVWalltorch
p148
VWalltorch.png
p149
sVFirepit
p150
VPit.png
p151
sVSign
p152
VSign.png
p153
sVButterflyC
p154
VButterflyC.png
p155
sVButterflyB
p156
VButterflyB.png
p157
sVSword
p158
VSword.png
p159
sVTreasureBoxC
p160
VTreasureC_Closed.png
p161
sVTreasureBoxB
p162
VTreasureB_Closed.png
p163
sVTreasureBox
p164
VTreasure_Closed.png
p165
sVFallingRock
p166
VRock.png
p167
sVObelisk_Snow
p168
VObelisk_Snow.png
p169
ssS'obj'
p170
(lp171
(lp172
NaNaNaNaNaNaNaNaNaNaNaNaa(lp173
NaNaVButterfly
p174
aNaNaNaNaNaVPlayer_Start
p175
aNaNaNaa(lp176
NaNaNaNaNaNaNaNaNaNaNaNaa(lp177
NaNaNaNaNaVButterflyB
p178
aNaNaNaNaNaNaa(lp179
NaNaNaNaNaNaNaNaNaNaNaNaa(lp180
NaNaNaVButterflyC
p181
aNaNaNaVButterfly
p182
aNaNaNaNaa(lp183
NaNaNaNaNaNaNaNaNaNaNaNaa(lp184
NaNaNaNaNaNaNaNaNaVTreasureBoxC
p185
aNaNaa(lp186
NaNaNaNaNaNaNaNaNaNaNaNaa(lp187
NaVButterflyC
p188
aNaNaNaNaNaNaNaNaNaNaa(lp189
NaNaNaNaNaVButterflyC
p190
aNaNaNaNaNaNaa(lp191
NaNaVButterflyB
p192
aNaNaNaNaNaNaNaNaNaa(lp193
NaNaNaNaNaNaNaNaNaNaNaNaa(lp194
NaNaNaVButterfly
p195
aNaNaNaNaNaNaNaNaa(lp196
NaNaNaNaNaNaNaNaNaNaNaNaa(lp197
NaNaNaNaNaNaNaNaNaNaNaNaa(lp198
NaNaNaNaNaNaNaNaNaNaNaNaa(lp199
NaNaNaNaNaNaNaNaNaNaNaNaa(lp200
NaVButterflyC
p201
aVButterflyB
p202
aNaNaNaNaNaNaNaNaNaa(lp203
NaNaNaNaVTreasureBoxC
p204
aNaNaNaNaNaNaNaa(lp205
NaNaNaNaNaNaNaNaNaNaNaNaa(lp206
NaNaNaNaNaNaNaNaNaNaNaNaa(lp207
NaNaNaNaNaNaNaNaNaNaNaNaa(lp208
NaNaNaNaNaNaNaNaNaNaNaNaa(lp209
NaNaNaNaNaNaNaNaNaNaNaNaa(lp210
NaNaNaNaNaNaNaNaNaNaNaNaa(lp211
NaNaNaNaNaNaNaNaNaNaNaNaa(lp212
NaNaNaNaNaNaNaNaNaNaNaNaa(lp213
NaNaNaNaNaNaNaNaNaNaNaNaa(lp214
NaNaNaNaNaNaNaNaNaNaNaNaa(lp215
NaNaNaNaNaNaNaNaNaNaNaNaa(lp216
NaNaNaNaNaNaNaNaNaNaNaNaa(lp217
NaNaNaNaNaNaNaNaNaNaNaNaa(lp218
NaNaNaNaNaNaNaNaNaNaNaNaa(lp219
NaNaNaNaNaNaNaNaNaNaNaNaa(lp220
NaNaNaNaNaNaNaNaNaNaNaNaa(lp221
NaNaNaNaNaNaNaNaNaNaNaNaa(lp222
NaNaNaNaNaNaNaNaNaNaNaNaa(lp223
NaNaNaNaNaNaNaNaNaNaNaNaa(lp224
NaNaNaNaNaNaNaNaNaNaNaNaa(lp225
NaNaNaNaNaNaNaNaNaNaNaNaa(lp226
NaNaVButterfly
p227
aNaNaNaNaNaNaNaNaNaa(lp228
NaNaNaVSign
p229
aNaNaNaNaNaNaNaNaa(lp230
NaNaNaNaNaNaNaNaNaNaNaNaa(lp231
NaNaNaNaNaNaNaNaNaNaNaNaa(lp232
NaNaVButterflyB
p233
aNaNaNaNaNaNaNaNaNaa(lp234
NaNaNaNaNaNaNaNaNaNaNaNaa(lp235
NaNaNaNaNaNaNaNaNaNaNaNaa(lp236
NaNaNaNaNaNaNaNaNaNaNaNaa(lp237
NaNaNaNaNaNaNaNaNaNaNaNaa(lp238
NaNaNaNaNaNaNaNaNaNaNaNaa(lp239
NaNaNaVSign
p240
aNaNaNaNaNaNaNaNaa(lp241
NaNaNaNaNaNaNaNaNaNaNaNaa(lp242
NaNaNaNaNaNaNaNaNaNaNaNaa(lp243
NaNaNaNaNaNaNaNaNaNaNaNaa(lp244
NaNaNaNaNaNaNaNaNaNaNaNaa(lp245
NaNaNaNaNaNaNaNaNaNaNaNaa(lp246
NaNaVButterflyC
p247
aNaVWalltorch
p248
aNaNaNaNaNaNaNaa(lp249
NaNaNaNaVWalltorch
p250
aVWalltorch
p251
aVWalltorch
p252
aVWalltorch
p253
aVWalltorch
p254
aNaNaNaa(lp255
NaNaNaNaVWalltorch
p256
aNaNaNaVButterflyB
p257
aNaNaNaa(lp258
NaNaNaNaNaNaNaNaNaNaNaNaa(lp259
NaNaNaNaNaVWalltorch
p260
aVWalltorch
p261
aVWalltorch
p262
aVWalltorch
p263
aNaNaNaa(lp264
NaNaNaNaVWalltorch
p265
aNaNaVButterfly
p266
aVWalltorch
p267
aNaNaNaa(lp268
NaNaNaNaVWalltorch
p269
aNaVWalltorch
p270
aVWalltorch
p271
aVWalltorch
p272
aNaNaNaa(lp273
NaNaNaNaNaVButterflyB
p274
aNaNaNaNaNaNaa(lp275
NaNaVButterflyB
p276
aNaVWalltorch
p277
aVWalltorch
p278
aVWalltorch
p279
aVWalltorch
p280
aVWalltorch
p281
aNaNaNaa(lp282
NaNaNaNaVWalltorch
p283
aNaVWalltorch
p284
aNaNaNaNaNaa(lp285
NaNaNaNaVWalltorch
p286
aNaVWalltorch
p287
aNaVButterflyB
p288
aNaNaNaa(lp289
NaNaNaNaNaNaNaNaVButterfly
p290
aNaNaNaa(lp291
NaNaNaNaNaVWalltorch
p292
aVWalltorch
p293
aVWalltorch
p294
aNaNaNaNaa(lp295
NaNaNaNaVWalltorch
p296
aNaVButterfly
p297
aNaVWalltorch
p298
aVButterflyC
p299
aNaNaa(lp300
NaNaNaNaVWalltorch
p301
aNaNaNaVWalltorch
p302
aNaNaNaa(lp303
NaNaNaNaNaNaNaNaNaNaNaNaa(lp304
NaNaNaVButterflyB
p305
aNaVWalltorch
p306
aVWalltorch
p307
aVWalltorch
p308
aNaNaNaNaa(lp309
NaNaNaNaVWalltorch
p310
aNaNaNaVWalltorch
p311
aNaNaNaa(lp312
NaNaNaNaVWalltorch
p313
aNaVButterflyC
p314
aNaVWalltorch
p315
aNaNaNaa(lp316
NaNaNaNaNaVWalltorch
p317
aVWalltorch
p318
aVWalltorch
p319
aNaNaNaNaa(lp320
NaNaNaVButterfly
p321
aNaNaNaNaNaNaNaNaa(lp322
NaNaNaNaVWalltorch
p323
aVWalltorch
p324
aVWalltorch
p325
aVWalltorch
p326
aVWalltorch
p327
aNaNaNaa(lp328
NaNaNaNaVWalltorch
p329
aNaVButterflyC
p330
aNaVWalltorch
p331
aNaNaNaa(lp332
NaNaNaNaVWalltorch
p333
aNaVButterfly
p334
aNaVWalltorch
p335
aNaNaNaa(lp336
NaNaNaNaNaVWalltorch
p337
aVWalltorch
p338
aVWalltorch
p339
aNaNaNaNaa(lp340
NaNaVButterflyB
p341
aNaNaNaNaNaVButterfly
p342
aNaNaNaa(lp343
NaNaNaNaVWalltorch
p344
aVWalltorch
p345
aVWalltorch
p346
aVWalltorch
p347
aVWalltorch
p348
aNaNaNaa(lp349
NaNaNaNaVWalltorch
p350
aNaVWalltorch
p351
aVButterfly
p352
aVWalltorch
p353
aNaNaNaa(lp354
NaNaNaNaVWalltorch
p355
aNaVButterflyC
p356
aNaVWalltorch
p357
aNaNaNaa(lp358
NaNaNaNaNaVButterflyC
p359
aNaNaNaNaNaNaa(lp360
NaNaVButterfly
p361
aNaVWalltorch
p362
aVWalltorch
p363
aVWalltorch
p364
aVWalltorch
p365
aVWalltorch
p366
aNaNaNaa(lp367
NaNaNaNaVWalltorch
p368
aNaVWalltorch
p369
aNaNaVButterflyB
p370
aNaNaa(lp371
NaNaNaNaVWalltorch
p372
aNaVWalltorch
p373
aVWalltorch
p374
aNaNaNaNaa(lp375
NaNaNaNaNaVWalltorch
p376
aNaNaVWalltorch
p377
aNaNaNaa(lp378
NaNaNaNaNaNaNaNaNaNaNaNaa(lp379
NaNaVButterflyC
p380
aNaNaNaVButterflyB
p381
aNaNaVLevel_End
p382
aNaNaa(lp383
NaNaNaNaNaNaNaNaNaNaNaNaa(lp384
NaNaNaNaNaNaNaNaNaNaNaNaa(lp385
NaNaNaNaNaNaNaNaNaNaNaNaa(lp386
NaNaNaNaNaNaNaNaNaNaNaNaa(lp387
NaNaNaNaNaNaNaNaNaNaNaNaa(lp388
NaNaNaNaNaNaNaNaNaNaNaNaa(lp389
NaNaNaNaNaNaNaNaNaNaNaNaa(lp390
NaNaNaNaNaNaNaNaNaNaNaNaa(lp391
NaNaNaNaNaNaNaNaNaNaNaNaa(lp392
NaNaNaNaNaNaNaNaNaNaNaNaa(lp393
NaNaNaNaNaNaNaNaNaNaNaNaa(lp394
NaNaNaNaNaNaNaNaNaNaNaNaa(lp395
NaNaNaNaNaNaNaNaNaNaNaNaa(lp396
NaNaNaNaNaNaNaNaNaNaNaNaa(lp397
NaNaNaNaNaNaNaNaNaNaNaNaa(lp398
NaNaVShield
p399
aNaVFallingRock
p400
aVFallingRock
p401
aVFallingRock
p402
aVFallingRock
p403
aVFallingRock
p404
aVFallingRock
p405
aNaVShield
p406
aa(lp407
NaNaVShield
p408
aNaVFallingRock
p409
aNaNaVFallingRock
p410
aNaNaNaVShield
p411
aa(lp412
NaNaVShield
p413
aNaNaVFallingRock
p414
aVFallingRock
p415
aNaVFallingRock
p416
aVFallingRock
p417
aNaVShield
p418
aa(lp419
NaNaVShield
p420
aNaNaNaNaNaNaNaNaVShield
p421
aa(lp422
NaNaVShield
p423
aNaNaVFallingRock
p424
aVFallingRock
p425
aVFallingRock
p426
aVFallingRock
p427
aVFallingRock
p428
aNaVShield
p429
aa(lp430
NaNaVShield
p431
aNaVFallingRock
p432
aNaNaVFallingRock
p433
aNaNaNaVShield
p434
aa(lp435
NaNaVShield
p436
aNaNaVFallingRock
p437
aVFallingRock
p438
aVFallingRock
p439
aVFallingRock
p440
aVFallingRock
p441
aNaVShield
p442
aa(lp443
NaNaVShield
p444
aNaNaNaNaNaNaNaNaVShield
p445
aa(lp446
NaNaVShield
p447
aNaVFallingRock
p448
aVFallingRock
p449
aVFallingRock
p450
aVFallingRock
p451
aVFallingRock
p452
aNaNaVShield
p453
aa(lp454
NaNaVShield
p455
aNaNaNaNaNaNaVFallingRock
p456
aNaVShield
p457
aa(lp458
NaNaVShield
p459
aNaNaNaNaVFallingRock
p460
aVFallingRock
p461
aNaNaVShield
p462
aa(lp463
NaNaVShield
p464
aNaNaNaNaNaNaVFallingRock
p465
aNaVShield
p466
aa(lp467
NaNaVShield
p468
aNaVFallingRock
p469
aVFallingRock
p470
aVFallingRock
p471
aVFallingRock
p472
aVFallingRock
p473
aNaNaVShield
p474
aa(lp475
NaNaVShield
p476
aNaNaNaNaNaNaNaNaVShield
p477
aa(lp478
NaNaVShield
p479
aNaVFallingRock
p480
aVFallingRock
p481
aVFallingRock
p482
aVFallingRock
p483
aVFallingRock
p484
aVFallingRock
p485
aNaVShield
p486
aa(lp487
NaNaVShield
p488
aNaVFallingRock
p489
aNaNaVFallingRock
p490
aNaNaNaVShield
p491
aa(lp492
NaNaVShield
p493
aNaNaVFallingRock
p494
aVFallingRock
p495
aNaVFallingRock
p496
aVFallingRock
p497
aNaVShield
p498
aa(lp499
NaNaNaNaNaNaNaNaNaNaNaNaa(lp500
NaNaNaNaNaNaNaNaNaNaNaNaa(lp501
NaNaNaNaNaNaNaNaNaNaNaNaasS'name'
p502
Vcaveboss
p503
sS'map'
p504
(lp505
(lp506
NaNaNaNaNaNaNaNaNa(imapping
Tile
p507
(dp508
S'collidetype'
p509
S'BOX'
p510
sS'type'
p511
ViC_Floor 1
p512
sS'friction'
p513
F0.10000000000000001
sS'overhead'
p514
I00
sba(imapping
Tile
p515
(dp516
g509
g510
sg511
ViC_Ice
p517
sg513
F1
sg514
I00
sba(imapping
Tile
p518
(dp519
g509
g510
sg511
ViC_Ice
p520
sg513
F1
sg514
I00
sbaa(lp521
NaNaNaNaNaNaNaNaNa(imapping
Tile
p522
(dp523
g509
g510
sg511
ViC_Floor 2
p524
sg513
F0.10000000000000001
sg514
I00
sba(imapping
Tile
p525
(dp526
g509
g510
sg511
ViC_Ice
p527
sg513
F1
sg514
I00
sba(imapping
Tile
p528
(dp529
g509
g510
sg511
ViC_Ice
p530
sg513
F1
sg514
I00
sbaa(lp531
NaNaNaNaNaNaNaNaNa(imapping
Tile
p532
(dp533
g509
g510
sg511
ViC_Floor 3
p534
sg513
F0.10000000000000001
sg514
I00
sba(imapping
Tile
p535
(dp536
g509
g510
sg511
ViC_Ice
p537
sg513
F1
sg514
I00
sba(imapping
Tile
p538
(dp539
g509
g510
sg511
ViC_Ice
p540
sg513
F1
sg514
I00
sbaa(lp541
NaNaNaNaNaNaNaNaNa(imapping
Tile
p542
(dp543
g509
g510
sg511
ViC_Floor 1
p544
sg513
F0.10000000000000001
sg514
I00
sba(imapping
Tile
p545
(dp546
g509
g510
sg511
ViC_Ice
p547
sg513
F1
sg514
I00
sba(imapping
Tile
p548
(dp549
g509
g510
sg511
ViC_Ice
p550
sg513
F1
sg514
I00
sbaa(lp551
NaNaNaNaNaNaNaNaNa(imapping
Tile
p552
(dp553
g509
g510
sg511
ViC_TopR
p554
sg513
F0.10000000000000001
sg514
I00
sba(imapping
Tile
p555
(dp556
g509
g510
sg511
ViC_jr
p557
sg513
F1
sg514
I00
sba(imapping
Tile
p558
(dp559
g509
g510
sg511
ViC_Ice
p560
sg513
F1
sg514
I00
sbaa(lp561
NaNaNaNaNaNaNaNaNaNa(imapping
Tile
p562
(dp563
g509
g510
sg511
ViC_Floor 1
p564
sg513
F0.10000000000000001
sg514
I00
sba(imapping
Tile
p565
(dp566
g509
g510
sg511
ViC_Ice
p567
sg513
F1
sg514
I00
sbaa(lp568
NaNaNaNaNaNaNaNaNaNa(imapping
Tile
p569
(dp570
g509
g510
sg511
ViC_Floor 2
p571
sg513
F0.10000000000000001
sg514
I00
sba(imapping
Tile
p572
(dp573
g509
g510
sg511
ViC_Ice
p574
sg513
F1
sg514
I00
sbaa(lp575
NaNaNaNaNaNaNaNaNaNa(imapping
Tile
p576
(dp577
g509
g510
sg511
ViC_Floor 3
p578
sg513
F0.10000000000000001
sg514
I00
sba(imapping
Tile
p579
(dp580
g509
g510
sg511
ViC_Ice
p581
sg513
F1
sg514
I00
sbaa(lp582
NaNaNaNaNaNaNaNaNaNa(imapping
Tile
p583
(dp584
g509
g510
sg511
ViC_Floor 1
p585
sg513
F0.10000000000000001
sg514
I00
sba(imapping
Tile
p586
(dp587
g509
g510
sg511
ViC_Ice
p588
sg513
F1
sg514
I00
sbaa(lp589
NaNaNaNaNaNaNaNaNaNa(imapping
Tile
p590
(dp591
g509
g510
sg511
ViC_Floor 2
p592
sg513
F0.10000000000000001
sg514
I00
sba(imapping
Tile
p593
(dp594
g509
g510
sg511
ViC_Ice
p595
sg513
F1
sg514
I00
sbaa(lp596
NaNaNaNaNaNaNa(imapping
Tile
p597
(dp598
g509
g510
sg511
ViC_TopL
p599
sg513
F0.10000000000000001
sg514
I00
sba(imapping
Tile
p600
(dp601
g509
g510
sg511
ViC_wl2
p602
sg513
F1
sg514
I00
sba(imapping
Tile
p603
(dp604
g509
g510
sg511
ViC_wl
p605
sg513
F1
sg514
I00
sba(imapping
Tile
p606
(dp607
g509
g510
sg511
ViC_jl
p608
sg513
F1
sg514
I00
sba(imapping
Tile
p609
(dp610
g509
g510
sg511
ViC_Ice
p611
sg513
F1
sg514
I00
sbaa(lp612
NaNaNaNaNaNaNa(imapping
Tile
p613
(dp614
g509
g510
sg511
ViC_Floor 1
p615
sg513
F0.10000000000000001
sg514
I00
sba(imapping
Tile
p616
(dp617
g509
g510
sg511
ViC_Ice
p618
sg513
F1
sg514
I00
sba(imapping
Tile
p619
(dp620
g509
g510
sg511
ViC_Ice
p621
sg513
F1
sg514
I00
sba(imapping
Tile
p622
(dp623
g509
g510
sg511
ViC_Ice
p624
sg513
F1
sg514
I00
sba(imapping
Tile
p625
(dp626
g509
g510
sg511
ViC_Ice
p627
sg513
F1
sg514
I00
sbaa(lp628
NaNaNaNaNaNaNa(imapping
Tile
p629
(dp630
g509
g510
sg511
ViC_Floor 2
p631
sg513
F0.10000000000000001
sg514
I00
sba(imapping
Tile
p632
(dp633
g509
g510
sg511
ViC_Ice
p634
sg513
F1
sg514
I00
sba(imapping
Tile
p635
(dp636
g509
g510
sg511
ViC_Ice
p637
sg513
F1
sg514
I00
sba(imapping
Tile
p638
(dp639
g509
g510
sg511
ViC_Ice
p640
sg513
F1
sg514
I00
sba(imapping
Tile
p641
(dp642
g509
g510
sg511
ViC_Ice
p643
sg513
F1
sg514
I00
sbaa(lp644
NaNaNaNaNaNaNa(imapping
Tile
p645
(dp646
g509
g510
sg511
ViC_Floor 1
p647
sg513
F0.10000000000000001
sg514
I00
sba(imapping
Tile
p648
(dp649
g509
g510
sg511
ViC_Ice
p650
sg513
F1
sg514
I00
sba(imapping
Tile
p651
(dp652
g509
g510
sg511
ViC_Ice
p653
sg513
F1
sg514
I00
sba(imapping
Tile
p654
(dp655
g509
g510
sg511
ViC_Ice
p656
sg513
F1
sg514
I00
sba(imapping
Tile
p657
(dp658
g509
g510
sg511
ViC_Ice
p659
sg513
F1
sg514
I00
sbaa(lp660
NaNaNaNaNa(imapping
Tile
p661
(dp662
g509
g510
sg511
ViC_TopL
p663
sg513
F0.10000000000000001
sg514
I00
sba(imapping
Tile
p664
(dp665
g509
g510
sg511
ViC_wl2
p666
sg513
F1
sg514
I00
sba(imapping
Tile
p667
(dp668
g509
g510
sg511
ViC_jl
p669
sg513
F1
sg514
I00
sba(imapping
Tile
p670
(dp671
g509
g510
sg511
ViC_Ice
p672
sg513
F1
sg514
I00
sba(imapping
Tile
p673
(dp674
g509
g510
sg511
ViC_Ice
p675
sg513
F1
sg514
I00
sba(imapping
Tile
p676
(dp677
g509
g510
sg511
ViC_Ice
p678
sg513
F1
sg514
I00
sba(imapping
Tile
p679
(dp680
g509
g510
sg511
ViC_Ice
p681
sg513
F1
sg514
I00
sbaa(lp682
NaNaNaNaNa(imapping
Tile
p683
(dp684
g509
g510
sg511
ViC_Floor 3
p685
sg513
F0.10000000000000001
sg514
I00
sba(imapping
Tile
p686
(dp687
g509
g510
sg511
ViC_Ice
p688
sg513
F1
sg514
I00
sba(imapping
Tile
p689
(dp690
g509
g510
sg511
ViC_Ice
p691
sg513
F1
sg514
I00
sba(imapping
Tile
p692
(dp693
g509
g510
sg511
ViC_Ice
p694
sg513
F1
sg514
I00
sba(imapping
Tile
p695
(dp696
g509
g510
sg511
ViC_Ice
p697
sg513
F1
sg514
I00
sba(imapping
Tile
p698
(dp699
g509
g510
sg511
ViC_Ice
p700
sg513
F1
sg514
I00
sba(imapping
Tile
p701
(dp702
g509
g510
sg511
ViC_Ice
p703
sg513
F1
sg514
I00
sbaa(lp704
NaNaNaNaNa(imapping
Tile
p705
(dp706
g509
g510
sg511
ViC_Floor 2
p707
sg513
F0.10000000000000001
sg514
I00
sba(imapping
Tile
p708
(dp709
g509
g510
sg511
ViC_Ice
p710
sg513
F1
sg514
I00
sba(imapping
Tile
p711
(dp712
g509
g510
sg511
ViC_Ice
p713
sg513
F1
sg514
I00
sba(imapping
Tile
p714
(dp715
g509
g510
sg511
ViC_Ice
p716
sg513
F1
sg514
I00
sba(imapping
Tile
p717
(dp718
g509
g510
sg511
ViC_Ice
p719
sg513
F1
sg514
I00
sba(imapping
Tile
p720
(dp721
g509
g510
sg511
ViC_Ice
p722
sg513
F1
sg514
I00
sba(imapping
Tile
p723
(dp724
g509
g510
sg511
ViC_Ice
p725
sg513
F1
sg514
I00
sbaa(lp726
NaNaNaNaNa(imapping
Tile
p727
(dp728
g509
g510
sg511
ViC_Floor 1
p729
sg513
F0.10000000000000001
sg514
I00
sba(imapping
Tile
p730
(dp731
g509
g510
sg511
ViC_Ice
p732
sg513
F1
sg514
I00
sba(imapping
Tile
p733
(dp734
g509
g510
sg511
ViC_Ice
p735
sg513
F1
sg514
I00
sba(imapping
Tile
p736
(dp737
g509
g510
sg511
ViC_Ice
p738
sg513
F1
sg514
I00
sba(imapping
Tile
p739
(dp740
g509
g510
sg511
ViC_Ice
p741
sg513
F1
sg514
I00
sba(imapping
Tile
p742
(dp743
g509
g510
sg511
ViC_Ice
p744
sg513
F1
sg514
I00
sba(imapping
Tile
p745
(dp746
g509
g510
sg511
ViC_Ice
p747
sg513
F1
sg514
I00
sbaa(lp748
NaNaNaNaNa(imapping
Tile
p749
(dp750
g509
g510
sg511
ViC_Floor 2
p751
sg513
F0.10000000000000001
sg514
I00
sba(imapping
Tile
p752
(dp753
g509
g510
sg511
ViC_Ice
p754
sg513
F1
sg514
I00
sba(imapping
Tile
p755
(dp756
g509
g510
sg511
ViC_Ice
p757
sg513
F1
sg514
I00
sba(imapping
Tile
p758
(dp759
g509
g510
sg511
ViC_Ice
p760
sg513
F1
sg514
I00
sba(imapping
Tile
p761
(dp762
g509
g510
sg511
ViC_Ice
p763
sg513
F1
sg514
I00
sba(imapping
Tile
p764
(dp765
g509
g510
sg511
ViC_Ice
p766
sg513
F1
sg514
I00
sba(imapping
Tile
p767
(dp768
g509
g510
sg511
ViC_Ice
p769
sg513
F1
sg514
I00
sbaa(lp770
NaNaNaNaNa(imapping
Tile
p771
(dp772
g509
g510
sg511
ViC_Floor 3
p773
sg513
F0.10000000000000001
sg514
I00
sba(imapping
Tile
p774
(dp775
g509
g510
sg511
ViC_Ice
p776
sg513
F1
sg514
I00
sba(imapping
Tile
p777
(dp778
g509
g510
sg511
ViC_Ice
p779
sg513
F1
sg514
I00
sba(imapping
Tile
p780
(dp781
g509
g510
sg511
ViC_Ice
p782
sg513
F1
sg514
I00
sba(imapping
Tile
p783
(dp784
g509
g510
sg511
ViC_Ice
p785
sg513
F1
sg514
I00
sba(imapping
Tile
p786
(dp787
g509
g510
sg511
ViC_Ice
p788
sg513
F1
sg514
I00
sba(imapping
Tile
p789
(dp790
g509
g510
sg511
ViC_Ice
p791
sg513
F1
sg514
I00
sbaa(lp792
NaNaNaNa(imapping
Tile
p793
(dp794
g509
g510
sg511
ViC_TopL
p795
sg513
F0.10000000000000001
sg514
I00
sba(imapping
Tile
p796
(dp797
g509
g510
sg511
ViC_jl
p798
sg513
F1
sg514
I00
sba(imapping
Tile
p799
(dp800
g509
g510
sg511
ViC_Ice
p801
sg513
F1
sg514
I00
sba(imapping
Tile
p802
(dp803
g509
g510
sg511
ViC_Ice
p804
sg513
F1
sg514
I00
sba(imapping
Tile
p805
(dp806
g509
g510
sg511
ViC_Ice
p807
sg513
F1
sg514
I00
sba(imapping
Tile
p808
(dp809
g509
g510
sg511
ViC_Ice
p810
sg513
F1
sg514
I00
sba(imapping
Tile
p811
(dp812
g509
g510
sg511
ViC_Ice
p813
sg513
F1
sg514
I00
sba(imapping
Tile
p814
(dp815
g509
g510
sg511
ViC_Ice
p816
sg513
F1
sg514
I00
sbaa(lp817
NaNaNaNa(imapping
Tile
p818
(dp819
g509
g510
sg511
ViC_Floor 1
p820
sg513
F0.10000000000000001
sg514
I00
sba(imapping
Tile
p821
(dp822
g509
g510
sg511
ViC_Ice
p823
sg513
F1
sg514
I00
sba(imapping
Tile
p824
(dp825
g509
g510
sg511
ViC_Ice
p826
sg513
F1
sg514
I00
sba(imapping
Tile
p827
(dp828
g509
g510
sg511
ViC_Ice
p829
sg513
F1
sg514
I00
sba(imapping
Tile
p830
(dp831
g509
g510
sg511
ViC_Ice
p832
sg513
F1
sg514
I00
sba(imapping
Tile
p833
(dp834
g509
g510
sg511
ViC_Ice
p835
sg513
F1
sg514
I00
sba(imapping
Tile
p836
(dp837
g509
g510
sg511
ViC_Ice
p838
sg513
F1
sg514
I00
sba(imapping
Tile
p839
(dp840
g509
g510
sg511
ViC_Ice
p841
sg513
F1
sg514
I00
sbaa(lp842
NaNaNaNa(imapping
Tile
p843
(dp844
g509
g510
sg511
ViC_Floor 1
p845
sg513
F0.10000000000000001
sg514
I00
sba(imapping
Tile
p846
(dp847
g509
g510
sg511
ViC_Ice
p848
sg513
F1
sg514
I00
sba(imapping
Tile
p849
(dp850
g509
g510
sg511
ViC_Ice
p851
sg513
F1
sg514
I00
sba(imapping
Tile
p852
(dp853
g509
g510
sg511
ViC_Ice
p854
sg513
F1
sg514
I00
sba(imapping
Tile
p855
(dp856
g509
g510
sg511
ViC_Ice
p857
sg513
F1
sg514
I00
sba(imapping
Tile
p858
(dp859
g509
g510
sg511
ViC_Ice
p860
sg513
F1
sg514
I00
sba(imapping
Tile
p861
(dp862
g509
g510
sg511
ViC_Ice
p863
sg513
F1
sg514
I00
sba(imapping
Tile
p864
(dp865
g509
g510
sg511
ViC_Ice
p866
sg513
F1
sg514
I00
sbaa(lp867
NaNaNaNa(imapping
Tile
p868
(dp869
g509
g510
sg511
ViC_Floor 1
p870
sg513
F0.10000000000000001
sg514
I00
sba(imapping
Tile
p871
(dp872
g509
g510
sg511
ViC_Ice
p873
sg513
F1
sg514
I00
sba(imapping
Tile
p874
(dp875
g509
g510
sg511
ViC_Ice
p876
sg513
F1
sg514
I00
sba(imapping
Tile
p877
(dp878
g509
g510
sg511
ViC_Ice
p879
sg513
F1
sg514
I00
sba(imapping
Tile
p880
(dp881
g509
g510
sg511
ViC_Ice
p882
sg513
F1
sg514
I00
sba(imapping
Tile
p883
(dp884
g509
g510
sg511
ViC_Ice
p885
sg513
F1
sg514
I00
sba(imapping
Tile
p886
(dp887
g509
g510
sg511
ViC_Ice
p888
sg513
F1
sg514
I00
sba(imapping
Tile
p889
(dp890
g509
g510
sg511
ViC_Ice
p891
sg513
F1
sg514
I00
sbaa(lp892
NaNaNaNa(imapping
Tile
p893
(dp894
g509
g510
sg511
ViC_TopR
p895
sg513
F0.10000000000000001
sg514
I00
sba(imapping
Tile
p896
(dp897
g509
g510
sg511
ViC_wr2
p898
sg513
F1
sg514
I00
sba(imapping
Tile
p899
(dp900
g509
g510
sg511
ViC_wr
p901
sg513
F1
sg514
I00
sba(imapping
Tile
p902
(dp903
g509
g510
sg511
ViC_wr2
p904
sg513
F1
sg514
I00
sba(imapping
Tile
p905
(dp906
g509
g510
sg511
ViC_wr2
p907
sg513
F1
sg514
I00
sba(imapping
Tile
p908
(dp909
g509
g510
sg511
ViC_wr
p910
sg513
F1
sg514
I00
sba(imapping
Tile
p911
(dp912
g509
g510
sg511
ViC_wr2
p913
sg513
F1
sg514
I00
sba(imapping
Tile
p914
(dp915
g509
g510
sg511
ViC_jr
p916
sg513
F1
sg514
I00
sbaa(lp917
NaNaNaNaNaNaNaNaNaNaNa(imapping
Tile
p918
(dp919
g509
g510
sg511
ViC_Floor 3
p920
sg513
F0.10000000000000001
sg514
I00
sbaa(lp921
NaNaNaNaNaNaNaNaNaNaNa(imapping
Tile
p922
(dp923
g509
g510
sg511
ViC_Floor 3
p924
sg513
F0.10000000000000001
sg514
I00
sbaa(lp925
NaNaNaNaNaNaNaNaNaNaNa(imapping
Tile
p926
(dp927
g509
g510
sg511
ViC_Floor 2
p928
sg513
F0.10000000000000001
sg514
I00
sbaa(lp929
NaNaNaNaNaNaNaNaNaNaNa(imapping
Tile
p930
(dp931
g509
g510
sg511
ViC_Floor 1
p932
sg513
F0.10000000000000001
sg514
I00
sbaa(lp933
NaNaNaNaNaNaNaNaNaNaNa(imapping
Tile
p934
(dp935
g509
g510
sg511
ViC_Floor 3
p936
sg513
F0.10000000000000001
sg514
I00
sbaa(lp937
NaNaNaNaNaNaNaNaNaNaNa(imapping
Tile
p938
(dp939
g509
g510
sg511
ViC_Floor 2
p940
sg513
F0.10000000000000001
sg514
I00
sbaa(lp941
NaNaNaNaNaNaNaNaNaNaNa(imapping
Tile
p942
(dp943
g509
g510
sg511
ViC_Floor 3
p944
sg513
F0.10000000000000001
sg514
I00
sbaa(lp945
NaNaNaNaNaNaNaNaNaNaNa(imapping
Tile
p946
(dp947
g509
g510
sg511
ViC_Floor 1
p948
sg513
F0.10000000000000001
sg514
I00
sbaa(lp949
NaNaNaNaNaNaNaNaNaNaNa(imapping
Tile
p950
(dp951
g509
g510
sg511
ViC_Floor 1
p952
sg513
F0.10000000000000001
sg514
I00
sbaa(lp953
NaNaNaNaNaNaNaNaNaNaNa(imapping
Tile
p954
(dp955
g509
g510
sg511
ViC_Floor 2
p956
sg513
F0.10000000000000001
sg514
I00
sbaa(lp957
NaNaNaNaNaNaNaNaNaNaNa(imapping
Tile
p958
(dp959
g509
g510
sg511
ViC_Floor 1
p960
sg513
F0.10000000000000001
sg514
I00
sbaa(lp961
NaNaNaNaNaNaNaNaNaNaNa(imapping
Tile
p962
(dp963
g509
g510
sg511
ViC_Floor 2
p964
sg513
F0.10000000000000001
sg514
I00
sbaa(lp965
NaNaNaNaNaNaNaNaNaNaNa(imapping
Tile
p966
(dp967
g509
g510
sg511
ViC_Floor 1
p968
sg513
F0.10000000000000001
sg514
I00
sbaa(lp969
NaNaNaNaNaNaNaNaNaNaNa(imapping
Tile
p970
(dp971
g509
g510
sg511
ViC_Floor 1
p972
sg513
F0.10000000000000001
sg514
I00
sbaa(lp973
NaNaNaNa(imapping
Tile
p974
(dp975
g509
g510
sg511
ViC_TopL
p976
sg513
F0.10000000000000001
sg514
I00
sba(imapping
Tile
p977
(dp978
g509
g510
sg511
ViC_wl2
p979
sg513
F1
sg514
I00
sba(imapping
Tile
p980
(dp981
g509
g510
sg511
ViC_wl2
p982
sg513
F1
sg514
I00
sba(imapping
Tile
p983
(dp984
g509
g510
sg511
ViC_wl2
p985
sg513
F1
sg514
I00
sba(imapping
Tile
p986
(dp987
g509
g510
sg511
ViC_wl2
p988
sg513
F1
sg514
I00
sba(imapping
Tile
p989
(dp990
g509
g510
sg511
ViC_wl2
p991
sg513
F1
sg514
I00
sba(imapping
Tile
p992
(dp993
g509
g510
sg511
ViC_wl
p994
sg513
F1
sg514
I00
sba(imapping
Tile
p995
(dp996
g509
g510
sg511
ViC_jl
p997
sg513
F1
sg514
I00
sbaa(lp998
NaNaNaNa(imapping
Tile
p999
(dp1000
g509
g510
sg511
ViC_Floor 1
p1001
sg513
F0.10000000000000001
sg514
I00
sba(imapping
Tile
p1002
(dp1003
g509
g510
sg511
ViC_Ice
p1004
sg513
F1
sg514
I00
sba(imapping
Tile
p1005
(dp1006
g509
g510
sg511
ViC_Ice
p1007
sg513
F1
sg514
I00
sba(imapping
Tile
p1008
(dp1009
g509
g510
sg511
ViC_Ice
p1010
sg513
F1
sg514
I00
sba(imapping
Tile
p1011
(dp1012
g509
g510
sg511
ViC_Ice
p1013
sg513
F1
sg514
I00
sba(imapping
Tile
p1014
(dp1015
g509
g510
sg511
ViC_Ice
p1016
sg513
F1
sg514
I00
sba(imapping
Tile
p1017
(dp1018
g509
g510
sg511
ViC_Ice
p1019
sg513
F1
sg514
I00
sba(imapping
Tile
p1020
(dp1021
g509
g510
sg511
ViC_Ice
p1022
sg513
F1
sg514
I00
sbaa(lp1023
NaNaNaNa(imapping
Tile
p1024
(dp1025
g509
g510
sg511
ViC_Floor 2
p1026
sg513
F0.10000000000000001
sg514
I00
sba(imapping
Tile
p1027
(dp1028
g509
g510
sg511
ViC_Ice
p1029
sg513
F1
sg514
I00
sba(imapping
Tile
p1030
(dp1031
g509
g510
sg511
ViC_Ice
p1032
sg513
F1
sg514
I00
sba(imapping
Tile
p1033
(dp1034
g509
g510
sg511
ViC_Ice
p1035
sg513
F1
sg514
I00
sba(imapping
Tile
p1036
(dp1037
g509
g510
sg511
ViC_Ice
p1038
sg513
F1
sg514
I00
sba(imapping
Tile
p1039
(dp1040
g509
g510
sg511
ViC_Ice
p1041
sg513
F1
sg514
I00
sba(imapping
Tile
p1042
(dp1043
g509
g510
sg511
ViC_Ice
p1044
sg513
F1
sg514
I00
sba(imapping
Tile
p1045
(dp1046
g509
g510
sg511
ViC_Ice
p1047
sg513
F1
sg514
I00
sbaa(lp1048
NaNaNaNa(imapping
Tile
p1049
(dp1050
g509
g510
sg511
ViC_Floor 3
p1051
sg513
F0.10000000000000001
sg514
I00
sba(imapping
Tile
p1052
(dp1053
g509
g510
sg511
ViC_Ice
p1054
sg513
F1
sg514
I00
sba(imapping
Tile
p1055
(dp1056
g509
g510
sg511
ViC_Ice
p1057
sg513
F1
sg514
I00
sba(imapping
Tile
p1058
(dp1059
g509
g510
sg511
ViC_Ice
p1060
sg513
F1
sg514
I00
sba(imapping
Tile
p1061
(dp1062
g509
g510
sg511
ViC_Ice
p1063
sg513
F1
sg514
I00
sba(imapping
Tile
p1064
(dp1065
g509
g510
sg511
ViC_Ice
p1066
sg513
F1
sg514
I00
sba(imapping
Tile
p1067
(dp1068
g509
g510
sg511
ViC_Ice
p1069
sg513
F1
sg514
I00
sba(imapping
Tile
p1070
(dp1071
g509
g510
sg511
ViC_Ice
p1072
sg513
F1
sg514
I00
sbaa(lp1073
NaNaNaNa(imapping
Tile
p1074
(dp1075
g509
g510
sg511
ViC_Floor 1
p1076
sg513
F0.10000000000000001
sg514
I00
sba(imapping
Tile
p1077
(dp1078
g509
g510
sg511
ViC_Ice
p1079
sg513
F1
sg514
I00
sba(imapping
Tile
p1080
(dp1081
g509
g510
sg511
ViC_Ice
p1082
sg513
F1
sg514
I00
sba(imapping
Tile
p1083
(dp1084
g509
g510
sg511
ViC_Ice
p1085
sg513
F1
sg514
I00
sba(imapping
Tile
p1086
(dp1087
g509
g510
sg511
ViC_Ice
p1088
sg513
F1
sg514
I00
sba(imapping
Tile
p1089
(dp1090
g509
g510
sg511
ViC_Ice
p1091
sg513
F1
sg514
I00
sba(imapping
Tile
p1092
(dp1093
g509
g510
sg511
ViC_Ice
p1094
sg513
F1
sg514
I00
sba(imapping
Tile
p1095
(dp1096
g509
g510
sg511
ViC_Ice
p1097
sg513
F1
sg514
I00
sbaa(lp1098
NaNaNaNa(imapping
Tile
p1099
(dp1100
g509
g510
sg511
ViC_Floor 2
p1101
sg513
F0.10000000000000001
sg514
I00
sba(imapping
Tile
p1102
(dp1103
g509
g510
sg511
ViC_Ice
p1104
sg513
F1
sg514
I00
sba(imapping
Tile
p1105
(dp1106
g509
g510
sg511
ViC_Ice
p1107
sg513
F1
sg514
I00
sba(imapping
Tile
p1108
(dp1109
g509
g510
sg511
ViC_Ice
p1110
sg513
F1
sg514
I00
sba(imapping
Tile
p1111
(dp1112
g509
g510
sg511
ViC_Ice
p1113
sg513
F1
sg514
I00
sba(imapping
Tile
p1114
(dp1115
g509
g510
sg511
ViC_Ice
p1116
sg513
F1
sg514
I00
sba(imapping
Tile
p1117
(dp1118
g509
g510
sg511
ViC_Ice
p1119
sg513
F1
sg514
I00
sba(imapping
Tile
p1120
(dp1121
g509
g510
sg511
ViC_Ice
p1122
sg513
F1
sg514
I00
sbaa(lp1123
NaNaNaNa(imapping
Tile
p1124
(dp1125
g509
g510
sg511
ViC_Floor 3
p1126
sg513
F0.10000000000000001
sg514
I00
sba(imapping
Tile
p1127
(dp1128
g509
g510
sg511
ViC_Ice
p1129
sg513
F1
sg514
I00
sba(imapping
Tile
p1130
(dp1131
g509
g510
sg511
ViC_Ice
p1132
sg513
F1
sg514
I00
sba(imapping
Tile
p1133
(dp1134
g509
g510
sg511
ViC_Ice
p1135
sg513
F1
sg514
I00
sba(imapping
Tile
p1136
(dp1137
g509
g510
sg511
ViC_Ice
p1138
sg513
F1
sg514
I00
sba(imapping
Tile
p1139
(dp1140
g509
g510
sg511
ViC_Ice
p1141
sg513
F1
sg514
I00
sba(imapping
Tile
p1142
(dp1143
g509
g510
sg511
ViC_Ice
p1144
sg513
F1
sg514
I00
sba(imapping
Tile
p1145
(dp1146
g509
g510
sg511
ViC_Ice
p1147
sg513
F1
sg514
I00
sbaa(lp1148
NaNaNaNa(imapping
Tile
p1149
(dp1150
g509
g510
sg511
ViC_Floor 3
p1151
sg513
F0.10000000000000001
sg514
I00
sba(imapping
Tile
p1152
(dp1153
g509
g510
sg511
ViC_Ice
p1154
sg513
F1
sg514
I00
sba(imapping
Tile
p1155
(dp1156
g509
g510
sg511
ViC_Ice
p1157
sg513
F1
sg514
I00
sba(imapping
Tile
p1158
(dp1159
g509
g510
sg511
ViC_Ice
p1160
sg513
F1
sg514
I00
sba(imapping
Tile
p1161
(dp1162
g509
g510
sg511
ViC_Ice
p1163
sg513
F1
sg514
I00
sba(imapping
Tile
p1164
(dp1165
g509
g510
sg511
ViC_Ice
p1166
sg513
F1
sg514
I00
sba(imapping
Tile
p1167
(dp1168
g509
g510
sg511
ViC_Ice
p1169
sg513
F1
sg514
I00
sba(imapping
Tile
p1170
(dp1171
g509
g510
sg511
ViC_Ice
p1172
sg513
F1
sg514
I00
sbaa(lp1173
NaNaNaNa(imapping
Tile
p1174
(dp1175
g509
g510
sg511
ViC_Floor 1
p1176
sg513
F0.10000000000000001
sg514
I00
sba(imapping
Tile
p1177
(dp1178
g509
g510
sg511
ViC_Ice
p1179
sg513
F1
sg514
I00
sba(imapping
Tile
p1180
(dp1181
g509
g510
sg511
ViC_Ice
p1182
sg513
F1
sg514
I00
sba(imapping
Tile
p1183
(dp1184
g509
g510
sg511
ViC_Ice
p1185
sg513
F1
sg514
I00
sba(imapping
Tile
p1186
(dp1187
g509
g510
sg511
ViC_Ice
p1188
sg513
F1
sg514
I00
sba(imapping
Tile
p1189
(dp1190
g509
g510
sg511
ViC_Ice
p1191
sg513
F1
sg514
I00
sba(imapping
Tile
p1192
(dp1193
g509
g510
sg511
ViC_Ice
p1194
sg513
F1
sg514
I00
sba(imapping
Tile
p1195
(dp1196
g509
g510
sg511
ViC_Ice
p1197
sg513
F1
sg514
I00
sbaa(lp1198
(imapping
Tile
p1199
(dp1200
g509
g510
sg511
ViC_wl2
p1201
sg513
F1
sg514
I00
sba(imapping
Tile
p1202
(dp1203
g509
g510
sg511
ViC_wl2
p1204
sg513
F1
sg514
I00
sba(imapping
Tile
p1205
(dp1206
g509
g510
sg511
ViC_wl2
p1207
sg513
F1
sg514
I00
sba(imapping
Tile
p1208
(dp1209
g509
g510
sg511
ViC_wl
p1210
sg513
F1
sg514
I00
sba(imapping
Tile
p1211
(dp1212
g509
g510
sg511
ViC_jl
p1213
sg513
F1
sg514
I00
sba(imapping
Tile
p1214
(dp1215
g509
g510
sg511
ViC_Ice
p1216
sg513
F1
sg514
I00
sba(imapping
Tile
p1217
(dp1218
g509
g510
sg511
ViC_Ice
p1219
sg513
F1
sg514
I00
sba(imapping
Tile
p1220
(dp1221
g509
g510
sg511
ViC_Ice
p1222
sg513
F1
sg514
I00
sba(imapping
Tile
p1223
(dp1224
g509
g510
sg511
ViC_Ice
p1225
sg513
F1
sg514
I00
sba(imapping
Tile
p1226
(dp1227
g509
g510
sg511
ViC_Ice
p1228
sg513
F1
sg514
I00
sba(imapping
Tile
p1229
(dp1230
g509
g510
sg511
ViC_Ice
p1231
sg513
F1
sg514
I00
sba(imapping
Tile
p1232
(dp1233
g509
g510
sg511
ViC_Ice
p1234
sg513
F1
sg514
I00
sbaa(lp1235
(imapping
Tile
p1236
(dp1237
g509
g510
sg511
ViC_wr2
p1238
sg513
F1
sg514
I00
sba(imapping
Tile
p1239
(dp1240
g509
g510
sg511
ViC_wr
p1241
sg513
F1
sg514
I00
sba(imapping
Tile
p1242
(dp1243
g509
g510
sg511
ViC_wr2
p1244
sg513
F1
sg514
I00
sba(imapping
Tile
p1245
(dp1246
g509
g510
sg511
ViC_wr2
p1247
sg513
F1
sg514
I00
sba(imapping
Tile
p1248
(dp1249
g509
g510
sg511
ViC_jr
p1250
sg513
F1
sg514
I00
sba(imapping
Tile
p1251
(dp1252
g509
g510
sg511
ViC_Ice
p1253
sg513
F1
sg514
I00
sba(imapping
Tile
p1254
(dp1255
g509
g510
sg511
ViC_Ice
p1256
sg513
F1
sg514
I00
sba(imapping
Tile
p1257
(dp1258
g509
g510
sg511
ViC_Ice
p1259
sg513
F1
sg514
I00
sba(imapping
Tile
p1260
(dp1261
g509
g510
sg511
ViC_Ice
p1262
sg513
F1
sg514
I00
sba(imapping
Tile
p1263
(dp1264
g509
g510
sg511
ViC_Ice
p1265
sg513
F1
sg514
I00
sba(imapping
Tile
p1266
(dp1267
g509
g510
sg511
ViC_Ice
p1268
sg513
F1
sg514
I00
sba(imapping
Tile
p1269
(dp1270
g509
g510
sg511
ViC_Ice
p1271
sg513
F1
sg514
I00
sbaa(lp1272
NaNaNaNa(imapping
Tile
p1273
(dp1274
g509
g510
sg511
ViC_Floor 1
p1275
sg513
F0.10000000000000001
sg514
I00
sba(imapping
Tile
p1276
(dp1277
g509
g510
sg511
ViC_Ice
p1278
sg513
F1
sg514
I00
sba(imapping
Tile
p1279
(dp1280
g509
g510
sg511
ViC_Ice
p1281
sg513
F1
sg514
I00
sba(imapping
Tile
p1282
(dp1283
g509
g510
sg511
ViC_Ice
p1284
sg513
F1
sg514
I00
sba(imapping
Tile
p1285
(dp1286
g509
g510
sg511
ViC_Ice
p1287
sg513
F1
sg514
I00
sba(imapping
Tile
p1288
(dp1289
g509
g510
sg511
ViC_Ice
p1290
sg513
F1
sg514
I00
sba(imapping
Tile
p1291
(dp1292
g509
g510
sg511
ViC_Ice
p1293
sg513
F1
sg514
I00
sba(imapping
Tile
p1294
(dp1295
g509
g510
sg511
ViC_Ice
p1296
sg513
F1
sg514
I00
sbaa(lp1297
NaNaNaNa(imapping
Tile
p1298
(dp1299
g509
g510
sg511
ViC_Floor 3
p1300
sg513
F0.10000000000000001
sg514
I00
sba(imapping
Tile
p1301
(dp1302
g509
g510
sg511
ViC_Ice
p1303
sg513
F1
sg514
I00
sba(imapping
Tile
p1304
(dp1305
g509
g510
sg511
ViC_Ice
p1306
sg513
F1
sg514
I00
sba(imapping
Tile
p1307
(dp1308
g509
g510
sg511
ViC_Ice
p1309
sg513
F1
sg514
I00
sba(imapping
Tile
p1310
(dp1311
g509
g510
sg511
ViC_Ice
p1312
sg513
F1
sg514
I00
sba(imapping
Tile
p1313
(dp1314
g509
g510
sg511
ViC_Ice
p1315
sg513
F1
sg514
I00
sba(imapping
Tile
p1316
(dp1317
g509
g510
sg511
ViC_Ice
p1318
sg513
F1
sg514
I00
sba(imapping
Tile
p1319
(dp1320
g509
g510
sg511
ViC_Ice
p1321
sg513
F1
sg514
I00
sbaa(lp1322
NaNaNaNa(imapping
Tile
p1323
(dp1324
g509
g510
sg511
ViC_Floor 1
p1325
sg513
F0.10000000000000001
sg514
I00
sba(imapping
Tile
p1326
(dp1327
g509
g510
sg511
ViC_Ice
p1328
sg513
F1
sg514
I00
sba(imapping
Tile
p1329
(dp1330
g509
g510
sg511
ViC_Ice
p1331
sg513
F1
sg514
I00
sba(imapping
Tile
p1332
(dp1333
g509
g510
sg511
ViC_Ice
p1334
sg513
F1
sg514
I00
sba(imapping
Tile
p1335
(dp1336
g509
g510
sg511
ViC_Ice
p1337
sg513
F1
sg514
I00
sba(imapping
Tile
p1338
(dp1339
g509
g510
sg511
ViC_Ice
p1340
sg513
F1
sg514
I00
sba(imapping
Tile
p1341
(dp1342
g509
g510
sg511
ViC_Ice
p1343
sg513
F1
sg514
I00
sba(imapping
Tile
p1344
(dp1345
g509
g510
sg511
ViC_Ice
p1346
sg513
F1
sg514
I00
sbaa(lp1347
NaNaNaNa(imapping
Tile
p1348
(dp1349
g509
g510
sg511
ViC_TopR
p1350
sg513
F0.10000000000000001
sg514
I00
sba(imapping
Tile
p1351
(dp1352
g509
g510
sg511
ViC_wr2
p1353
sg513
F1
sg514
I00
sba(imapping
Tile
p1354
(dp1355
g509
g510
sg511
ViC_jr
p1356
sg513
F1
sg514
I00
sba(imapping
Tile
p1357
(dp1358
g509
g510
sg511
ViC_Ice
p1359
sg513
F1
sg514
I00
sba(imapping
Tile
p1360
(dp1361
g509
g510
sg511
ViC_Ice
p1362
sg513
F1
sg514
I00
sba(imapping
Tile
p1363
(dp1364
g509
g510
sg511
ViC_Ice
p1365
sg513
F1
sg514
I00
sba(imapping
Tile
p1366
(dp1367
g509
g510
sg511
ViC_Ice
p1368
sg513
F1
sg514
I00
sba(imapping
Tile
p1369
(dp1370
g509
g510
sg511
ViC_Ice
p1371
sg513
F1
sg514
I00
sbaa(lp1372
NaNaNaNaNaNa(imapping
Tile
p1373
(dp1374
g509
g510
sg511
ViC_Floor 3
p1375
sg513
F0.10000000000000001
sg514
I00
sba(imapping
Tile
p1376
(dp1377
g509
g510
sg511
ViC_Ice
p1378
sg513
F1
sg514
I00
sba(imapping
Tile
p1379
(dp1380
g509
g510
sg511
ViC_Ice
p1381
sg513
F1
sg514
I00
sba(imapping
Tile
p1382
(dp1383
g509
g510
sg511
ViC_Ice
p1384
sg513
F1
sg514
I00
sba(imapping
Tile
p1385
(dp1386
g509
g510
sg511
ViC_Ice
p1387
sg513
F1
sg514
I00
sba(imapping
Tile
p1388
(dp1389
g509
g510
sg511
ViC_Ice
p1390
sg513
F1
sg514
I00
sbaa(lp1391
NaNaNaNaNaNa(imapping
Tile
p1392
(dp1393
g509
g510
sg511
ViC_TopR
p1394
sg513
F0.10000000000000001
sg514
I00
sba(imapping
Tile
p1395
(dp1396
g509
g510
sg511
ViC_wr
p1397
sg513
F1
sg514
I00
sba(imapping
Tile
p1398
(dp1399
g509
g510
sg511
ViC_wr
p1400
sg513
F1
sg514
I00
sba(imapping
Tile
p1401
(dp1402
g509
g510
sg511
ViC_wr
p1403
sg513
F1
sg514
I00
sba(imapping
Tile
p1404
(dp1405
g509
g510
sg511
ViC_wr
p1406
sg513
F1
sg514
I00
sba(imapping
Tile
p1407
(dp1408
g509
g510
sg511
ViC_jr
p1409
sg513
F1
sg514
I00
sbaa(lp1410
NaNaNaNaNaNaNaNaNaNaNa(imapping
Tile
p1411
(dp1412
g509
g510
sg511
ViC_TopR
p1413
sg513
F0.10000000000000001
sg514
I00
sbaa(lp1414
NaNaNaNaNaNaNaNaNaNaNaNaa(lp1415
NaNaNaNaNaNaNaNaNaNaNa(imapping
Tile
p1416
(dp1417
g509
g510
sg511
ViC_TopL
p1418
sg513
F0.10000000000000001
sg514
I00
sbaa(lp1419
NaNaNaNaNaNaNaNaNaNaNa(imapping
Tile
p1420
(dp1421
g509
g510
sg511
ViC_TopR
p1422
sg513
F0.10000000000000001
sg514
I00
sbaa(lp1423
NaNaNaNaNaNaNaNaNaNaNaNaa(lp1424
NaNaNaNaNaNaNaNaNaNaNa(imapping
Tile
p1425
(dp1426
g509
g510
sg511
ViC_TopL
p1427
sg513
F0.10000000000000001
sg514
I00
sbaa(lp1428
NaNaNaNaNaNaNaNaNaNaNa(imapping
Tile
p1429
(dp1430
g509
g510
sg511
ViC_TopR
p1431
sg513
F0.10000000000000001
sg514
I00
sbaa(lp1432
NaNaNaNaNaNaNaNaNaNaNaNaa(lp1433
NaNaNaNaNaNaNaNaNaNaNa(imapping
Tile
p1434
(dp1435
g509
g510
sg511
ViC_TopL
p1436
sg513
F0.10000000000000001
sg514
I00
sbaa(lp1437
NaNaNaNaNaNaNaNaNaNaNa(imapping
Tile
p1438
(dp1439
g509
g510
sg511
ViC_TopR
p1440
sg513
F0.10000000000000001
sg514
I00
sbaa(lp1441
NaNaNaNaNaNaNaNaNaNaNaNaa(lp1442
NaNaNaNaNaNaNaNaNaNaNa(imapping
Tile
p1443
(dp1444
g509
g510
sg511
ViC_TopL
p1445
sg513
F0.10000000000000001
sg514
I00
sbaa(lp1446
NaNaNaNaNaNaNaNaNaNaNa(imapping
Tile
p1447
(dp1448
g509
g510
sg511
ViC_TopR
p1449
sg513
F0.10000000000000001
sg514
I00
sbaa(lp1450
NaNaNaNaNaNaNaNaNaNaNaNaa(lp1451
NaNaNaNaNaNaNaNaNaNaNa(imapping
Tile
p1452
(dp1453
g509
g510
sg511
ViC_TopL
p1454
sg513
F0.10000000000000001
sg514
I00
sbaa(lp1455
NaNaNaNaNaNaNaNaNaNaNa(imapping
Tile
p1456
(dp1457
g509
g510
sg511
ViC_TopR
p1458
sg513
F0.10000000000000001
sg514
I00
sbaa(lp1459
NaNaNaNaNaNaNaNaNaNaNaNaa(lp1460
NaNaNaNaNaNaNaNaNaNaNa(imapping
Tile
p1461
(dp1462
g509
g510
sg511
ViC_TopL
p1463
sg513
F0.10000000000000001
sg514
I00
sbaa(lp1464
NaNaNaNaNaNaNaNaNaNaNa(imapping
Tile
p1465
(dp1466
g509
g510
sg511
ViC_TopR
p1467
sg513
F0.10000000000000001
sg514
I00
sbaa(lp1468
NaNaNaNaNaNaNaNaNaNaNaNaa(lp1469
NaNaNaNaNaNaNaNaNaNaNa(imapping
Tile
p1470
(dp1471
g509
g510
sg511
ViC_TopL
p1472
sg513
F0.10000000000000001
sg514
I00
sbaa(lp1473
NaNaNaNaNaNaNaNaNaNaNa(imapping
Tile
p1474
(dp1475
g509
g510
sg511
ViC_TopR
p1476
sg513
F0.10000000000000001
sg514
I00
sbaa(lp1477
NaNaNaNaNaNaNaNaNaNaNaNaa(lp1478
NaNaNaNaNaNaNaNaNaNaNa(imapping
Tile
p1479
(dp1480
g509
g510
sg511
ViC_TopL
p1481
sg513
F0.10000000000000001
sg514
I00
sbaa(lp1482
NaNaNaNaNaNaNaNaNaNaNa(imapping
Tile
p1483
(dp1484
g509
g510
sg511
ViC_TopR
p1485
sg513
F0.10000000000000001
sg514
I00
sbaa(lp1486
NaNaNaNaNaNaNaNaNaNaNaNaa(lp1487
NaNaNaNaNaNaNaNaNaNaNa(imapping
Tile
p1488
(dp1489
g509
g510
sg511
ViC_TopL
p1490
sg513
F0.10000000000000001
sg514
I00
sbaa(lp1491
NaNaNaNaNaNaNaNaNaNaNa(imapping
Tile
p1492
(dp1493
g509
g510
sg511
ViC_TopR
p1494
sg513
F0.10000000000000001
sg514
I00
sbaa(lp1495
NaNaNaNaNaNaNaNaNaNaNaNaa(lp1496
NaNaNaNaNaNaNaNaNaNaNa(imapping
Tile
p1497
(dp1498
g509
g510
sg511
ViC_TopL
p1499
sg513
F0.10000000000000001
sg514
I00
sbaa(lp1500
NaNaNaNaNaNaNaNaNaNaNa(imapping
Tile
p1501
(dp1502
g509
g510
sg511
ViC_TopR
p1503
sg513
F0.10000000000000001
sg514
I00
sbaa(lp1504
NaNaNaNaNaNaNaNaNaNaNaNaa(lp1505
NaNaNaNaNaNaNaNaNaNaNa(imapping
Tile
p1506
(dp1507
g509
g510
sg511
ViC_TopL
p1508
sg513
F0.10000000000000001
sg514
I00
sbaa(lp1509
NaNaNaNaNaNaNaNaNaNaNa(imapping
Tile
p1510
(dp1511
g509
g510
sg511
ViC_TopR
p1512
sg513
F0.10000000000000001
sg514
I00
sbaa(lp1513
NaNaNaNaNaNaNaNaNaNaNaNaa(lp1514
NaNaNaNaNaNaNaNaNaNaNa(imapping
Tile
p1515
(dp1516
g509
g510
sg511
ViC_TopL
p1517
sg513
F0.10000000000000001
sg514
I00
sbaa(lp1518
NaNaNaNaNaNaNaNaNaNaNa(imapping
Tile
p1519
(dp1520
g509
g510
sg511
ViC_Floor 1
p1521
sg513
F0.10000000000000001
sg514
I00
sbaa(lp1522
NaNaNaNaNaNaNaNaNaNaNa(imapping
Tile
p1523
(dp1524
g509
g510
sg511
ViC_Floor 1
p1525
sg513
F0.10000000000000001
sg514
I00
sbaa(lp1526
NaNaNaNaNaNaNaNaNaNaNa(imapping
Tile
p1527
(dp1528
g509
g510
sg511
ViC_Floor 1
p1529
sg513
F0.10000000000000001
sg514
I00
sbaa(lp1530
NaNaNaNaNaNaNaNaNaNaNa(imapping
Tile
p1531
(dp1532
g509
g510
sg511
ViC_TopR
p1533
sg513
F0.10000000000000001
sg514
I00
sbaa(lp1534
NaNaNaNaNaNaNaNaNaNaNaNaa(lp1535
NaNaNaNaNaNaNaNaNaNaNaNaa(lp1536
NaNaNaNaNaNaNaNaNaNaNaNaa(lp1537
NaNaNaNaNaNaNaNaNaNaNaNaa(lp1538
NaNaNaNaNaNaNaNaNaNaNaNaa(lp1539
NaNaNaNaNaNaNaNaNaNaNaNaa(lp1540
NaNaNaNaNaNaNaNaNaNaNaNaa(lp1541
NaNaNaNaNaNaNaNaNaNaNaNaa(lp1542
NaNaNaNaNaNaNaNaNaNaNaNaa(lp1543
NaNaNaNaNaNaNaNaNaNaNaNaa(lp1544
NaNaNaNaNaNaNaNaNaNaNaNaa(lp1545
NaNaNaNaNaNaNaNaNaNaNaNaa(lp1546
NaNaNaNaNaNaNaNaNaNaNaNaa(lp1547
NaNaNaNaNaNaNaNaNaNaNaNaa(lp1548
NaNaNaNaNaNaNaNaNaNaNaNaa(lp1549
NaNaNaNaNaNaNaNaNaNaNaNaa(lp1550
NaNaNaNaNaNaNaNaNaNaNaNaa(lp1551
NaNaNaNaNaNaNaNaNaNaNaNaa(lp1552
NaNaNaNaNaNaNaNaNaNaNaNaa(lp1553
NaNaNaNaNaNaNaNaNaNaNaNaa(lp1554
NaNaNaNaNaNaNaNaNaNaNaNaa(lp1555
NaNaNaNaNaNaNaNaNaNaNaNaa(lp1556
NaNaNaNaNaNaNaNaNaNaNaNaa(lp1557
NaNaNaNaNaNaNaNaNaNaNaNaa(lp1558
NaNaNaNaNaNaNaNaNaNaNaNaa(lp1559
NaNaNaNaNaNaNaNaNaNaNaNaa(lp1560
NaNaNaNaNaNaNaNaNaNaNaNaa(lp1561
NaNaNaNaNaNaNaNaNaNaNaNaa(lp1562
NaNaNaNaNaNaNaNaNaNaNaNaa(lp1563
NaNaNaNaNaNaNaNaNaNaNaNaa(lp1564
NaNaNaNaNaNaNaNaNaNaNaNaa(lp1565
NaNaNaNaNaNaNaNaNaNaNaNaasS'bgmusic'
p1566
Vbattle2.ogg
p1567
sS'theme'
p1568
VSnowcave
p1569
sS'endef'
p1570
(dp1571
VBoss_Radkelu
p1572
Vboss_radkelu
p1573
sVCSpider
p1574
Vcspider
p1575
sVSnowOgre
p1576
Vsnowogre
p1577
sVWasp
p1578
Vwasp
p1579
sVPoisPod
p1580
Vpoispod
p1581
sVSpider
p1582
Vspider
p1583
sVSnowBat
p1584
Vsnowbat
p1585
sVWorm
p1586
Vworm
p1587
sVGiantJelly
p1588
Vgiantjelly
p1589
sVPod
p1590
Vpod
p1591
sVGiantWorm
p1592
Vgiantworm
p1593
ssS'tiledef'
p1594
(dp1595
VS_bLRamp
p1596
Vsnow_blramp.png
p1597
sViC_Ice
p1598
Vcaveice.png
p1599
sVF_Dirt_R2
p1600
Vdirtr_edge2.png
p1601
sVF_Dirt_R1
p1602
Vdirtr_edge1.png
p1603
sVS_Railing_1
p1604
Vsnow_railing1.png
p1605
sVS_Railing_2
p1606
Vsnow_railing2.png
p1607
sVC_Suit of Armour
p1608
Vsuit_armour.png
p1609
sVS_UCleft
p1610
Vsnow_undercorner_left.png
p1611
sVF_Right_Halframp1
p1612
VR_HR1.png
p1613
sVF_Right_Halframp2
p1614
VR_HR2.png
p1615
sVF_GrassRedge
p1616
Vgrassr_edge.png
p1617
sVS_ECleft
p1618
Vsnow_edgecorner_left.png
p1619
sViC_wr2
p1620
Vcavewr2.png
p1621
sVF_Tuft1
p1622
Vtuft1.png
p1623
sVF_Tuft2
p1624
Vtuft2.png
p1625
sVS_Tree
p1626
Vsnow_tree.png
p1627
sVF_Grass
p1628
Vgrass.png
p1629
sVS_Railing_L
p1630
Vsnow_railing_left.png
p1631
sVC_Castle HRR
p1632
Vcstl_hr_r.png
p1633
sVS_RRamp
p1634
Vsnow_rramp.png
p1635
sVC_Castle HRL
p1636
Vcstl_hr_l.png
p1637
sVS_Pillar
p1638
Vsnow_pillar.png
p1639
sVS_Railing_R
p1640
Vsnow_railing_right.png
p1641
sVS_Tree2
p1642
Vsnow_tree2.png
p1643
sVS_Ground1
p1644
Vsnow_ground1.png
p1645
sVF_Stump
p1646
Vtreestump.png
p1647
sVC_Castle Ground 2
p1648
Vcstl_ground2.png
p1649
sVC_Castle Ground 3
p1650
Vcstl_ground3.png
p1651
sVC_Castle Ground 1
p1652
Vcstl_ground1.png
p1653
sVS_Snow2
p1654
Vsnow_snow2.png
p1655
sVF_Grass_Alt_5
p1656
Vgrassc5.png
p1657
sViC_jl
p1658
Vcavejl.png
p1659
sVS_bRRamp
p1660
Vsnow_brramp.png
p1661
sViC_TopL
p1662
Vcavetl.png
p1663
sViC_Floor 1
p1664
Vcavefloor1.png
p1665
sViC_Floor 3
p1666
Vcavefloor3.png
p1667
sViC_Floor 2
p1668
Vcavefloor2.png
p1669
sViC_TopR
p1670
Vcavetr.png
p1671
sViC_jr
p1672
Vcavejr.png
p1673
sVC_Castle Floor 2
p1674
Vcstl_floor2.png
p1675
sVS_Snow
p1676
Vsnow_snow.png
p1677
sVF_Grass_Alt_2
p1678
Vgrassc2.png
p1679
sVF_ExitSign
p1680
Vexitsign.png
p1681
sVF_Grass->Dirttop
p1682
Vgrassmdirt.png
p1683
sVS_UCright
p1684
Vsnow_undercorner_right.png
p1685
sVS_Pillartop
p1686
Vsnow_pillartop.png
p1687
sViC_wr
p1688
Vcavewr.png
p1689
sVF_Dirttop->Grass
p1690
Vdirtmgrass.png
p1691
sVS_ECright
p1692
Vsnow_edgecorner_right.png
p1693
sVC_Castle HRmL
p1694
Vcstl_hr_m_l.png
p1695
sVC_Castle Wall L
p1696
Vcstl_wleft.png
p1697
sVC_Castle Wall R
p1698
Vcstl_wright.png
p1699
sVC_Castle HRmR
p1700
Vcstl_hr_m_r.png
p1701
sVF_Ice
p1702
Vtile5.png
p1703
sViC_wl
p1704
Vcavewl.png
p1705
sVC_Castle Floor 4
p1706
Vcstl_floor4.png
p1707
sVF_Grass_Alt_4
p1708
Vgrassc4.png
p1709
sVF_Grass_Alt_1
p1710
Vgrassc1.png
p1711
sVC_Castle Floor 1
p1712
Vcstl_floor1.png
p1713
sVF_Grass_Alt_3
p1714
Vgrassc3.png
p1715
sVC_Castle Floor 3
p1716
Vcstl_floor3.png
p1717
sVS_edgewleft1
p1718
Vsnow_edgewall_left1.png
p1719
sVS_edgewleft2
p1720
Vsnow_edgewall_left2.png
p1721
sVS_UCJright
p1722
Vsnow_undercorner_join_right.png
p1723
sVS_LRamp
p1724
Vsnow_lramp.png
p1725
sVC_Castle Floor Edge R
p1726
Vcstl_floor_edge_right.png
p1727
sVF_Dirt_L1
p1728
Vdirtl_edge1.png
p1729
sVF_Dirt_L2
p1730
Vdirtl_edge2.png
p1731
sVC_Castle Floor Edge L
p1732
Vcstl_floor_edge_left.png
p1733
sVF_Left_Halframp2
p1734
VL_HR2.png
p1735
sVF_Left_Halframp1
p1736
VL_HR1.png
p1737
sVF_Shrooms2
p1738
Vshrooms2.png
p1739
sVF_Shrooms3
p1740
Vshrooms3.png
p1741
sVF_Shrooms1
p1742
Vshrooms1.png
p1743
sVF_RampJoinL
p1744
Vramp_mid_dirt_l.png
p1745
sVC_Castle Wall->Floor R
p1746
Vcstl_wfright.png
p1747
sVF_RampJoinR
p1748
Vramp_mid_dirt_r.png
p1749
sVF_GrassLedge
p1750
Vgrassl_edge.png
p1751
sVS_Stones
p1752
Vsnow_stones.png
p1753
sVS_edgeright
p1754
Vsnow_edge_right.png
p1755
sVS_edgewright2
p1756
Vsnow_edgewall_right2.png
p1757
sVS_edgewright1
p1758
Vsnow_edgewall_right1.png
p1759
sVF_Dirtb
p1760
Vdirtb.png
p1761
sVF_Right_Ramp
p1762
VR_R.png
p1763
sVF_HalframpJoinL
p1764
Vhalframp_mid_dirt_l.png
p1765
sVF_Dirt_BL
p1766
Vdirtl_bedge.png
p1767
sVF_HalframpJoinR
p1768
Vhalframp_mid_dirt_r.png
p1769
sVF_Dirt_BR
p1770
Vdirtr_bedge.png
p1771
sVF_Dirtb2
p1772
Vdirtb2.png
p1773
sVF_Left_Ramp
p1774
VL_R.png
p1775
sVC_Castle Wall->Floor L
p1776
Vcstl_wfleft.png
p1777
sVS_UCJleft
p1778
Vsnow_undercorner_join_left.png
p1779
sVF_Dirt
p1780
Vdirt.png
p1781
sVF_Grass->DirtL
p1782
Vgrass_dirt_l.png
p1783
sVS_edgeleft
p1784
Vsnow_edge_left.png
p1785
sVF_Dirttop
p1786
Vdirttop.png
p1787
sVF_Dirt_Alt_4
p1788
Vdirtc4.png
p1789
sVF_Dirt_Alt_3
p1790
Vdirtc3.png
p1791
sVF_Dirt_Alt_2
p1792
Vdirtc2.png
p1793
sVF_Dirt_Alt_1
p1794
Vdirtc1.png
p1795
sVF_Grass->DirtR
p1796
Vgrass_dirt_r.png
p1797
sViC_wl2
p1798
Vcavewl2.png
p1799
ssb.