(imapping
Map
p1
(dp2
S'enemy'
p3
(lp4
(lp5
NaNaNaNaNaNaNaNaNaNaNaNaa(lp6
NaNaNaNaNaNaNaNaNaNaNaNaa(lp7
NaNaNaNaNaVCSpider
p8
aNaNaNaNaNaNaa(lp9
NaNaNaNaNaNaNaNaNaNaNaNaa(lp10
NaNaNaNaNaNaNaNaNaNaNaNaa(lp11
NaNaNaNaNaNaNaNaNaNaNaNaa(lp12
NaNaNaNaNaNaNaNaNaNaNaNaa(lp13
NaNaNaNaNaNaNaNaNaNaNaNaa(lp14
NaNaNaVWasp
p15
aNaNaVWasp
p16
aNaNaNaNaNaa(lp17
NaNaNaNaNaNaNaNaNaNaNaNaa(lp18
NaNaNaNaNaNaNaNaNaNaNaNaa(lp19
NaNaNaNaNaNaNaNaNaNaNaNaa(lp20
NaNaNaNaNaNaNaNaNaNaNaNaa(lp21
NaNaNaNaNaNaNaNaNaNaVSnowOgre
p22
aNaa(lp23
NaNaNaNaNaVCSpider
p24
aNaNaNaNaNaNaa(lp25
NaNaNaNaNaNaNaNaNaNaNaNaa(lp26
NaNaNaNaNaNaNaNaNaNaNaNaa(lp27
NaNaNaNaNaNaNaNaNaNaNaNaa(lp28
NaNaNaNaNaNaNaNaNaNaNaNaa(lp29
NaNaNaNaNaNaNaNaNaNaNaNaa(lp30
NaVSnowBat
p31
aNaNaNaNaNaNaNaNaNaNaa(lp32
NaNaNaNaNaNaNaNaNaNaNaNaa(lp33
NaNaVSnowBat
p34
aNaNaNaNaNaNaNaNaNaa(lp35
NaNaNaNaNaNaNaNaNaNaNaNaa(lp36
NaNaNaNaNaNaNaNaNaNaNaNaa(lp37
NaNaVSnowBat
p38
aNaNaNaNaNaNaNaNaNaa(lp39
NaNaNaNaNaNaNaNaNaNaNaNaa(lp40
NaNaNaNaNaNaNaNaNaNaNaNaa(lp41
NaNaNaNaNaNaVCSpider
p42
aNaNaNaNaNaa(lp43
NaNaNaNaNaNaVCSpider
p44
aNaNaNaNaNaa(lp45
NaNaNaNaNaNaVCSpider
p46
aNaNaNaNaNaa(lp47
NaNaNaNaNaNaVCSpider
p48
aNaNaNaNaNaa(lp49
NaNaNaNaNaNaNaNaNaNaNaNaa(lp50
NaNaNaNaNaNaNaNaNaNaNaNaa(lp51
NaNaNaNaNaNaNaNaNaNaNaNaa(lp52
NaNaNaNaNaNaNaNaNaNaVWorm
p53
aNaa(lp54
NaNaNaNaNaNaNaNaNaNaNaNaa(lp55
NaNaNaNaNaNaNaNaNaNaNaNaa(lp56
NaNaNaNaNaNaNaNaNaNaNaNaa(lp57
NaNaNaNaNaNaNaNaNaNaNaNaa(lp58
NaNaNaNaNaNaNaNaNaNaNaNaa(lp59
NaNaNaNaNaNaNaNaNaNaVPoisPod
p60
aNaa(lp61
NaNaNaNaNaNaNaNaNaNaNaNaa(lp62
NaNaNaNaNaNaNaNaNaVPoisPod
p63
aNaNaa(lp64
NaNaNaNaNaNaNaNaNaNaNaNaa(lp65
NaNaNaNaNaNaNaNaNaNaNaNaa(lp66
NaNaNaNaNaNaNaNaNaNaNaNaa(lp67
NaNaNaNaNaNaNaVPod
p68
aNaNaNaNaa(lp69
NaNaNaNaNaNaNaNaNaNaNaNaa(lp70
NaNaNaNaNaNaNaVPod
p71
aNaNaNaNaa(lp72
NaNaVSnowBat
p73
aNaNaNaNaNaNaNaNaNaa(lp74
NaNaNaNaNaNaNaNaNaNaNaNaa(lp75
NaVSnowBat
p76
aNaNaVSnowBat
p77
aNaNaNaNaNaNaNaa(lp78
NaNaNaNaNaNaNaNaNaNaNaNaa(lp79
NaNaNaNaNaNaNaNaNaNaNaNaa(lp80
NaNaNaNaNaNaNaNaNaNaNaNaa(lp81
NaNaNaNaNaNaNaNaNaNaNaNaa(lp82
NaNaNaNaNaNaNaNaNaNaNaNaa(lp83
NaNaNaNaNaNaNaNaNaNaNaNaa(lp84
NaNaNaNaNaNaNaNaNaNaNaNaa(lp85
NaNaNaNaNaNaNaNaNaVSnowOgre
p86
aNaNaa(lp87
NaNaNaNaNaNaNaNaNaNaNaNaa(lp88
NaNaNaNaNaNaNaNaNaNaNaNaa(lp89
NaNaNaNaNaNaNaNaNaNaNaNaa(lp90
NaNaNaNaNaNaNaNaNaNaNaNaa(lp91
NaNaNaNaNaNaNaNaNaNaNaNaa(lp92
NaNaNaNaNaNaNaNaNaNaNaNaa(lp93
NaNaNaNaNaNaNaNaNaNaNaNaa(lp94
NaNaNaNaNaNaNaNaNaNaNaNaa(lp95
NaNaNaNaNaNaNaNaVGiantJelly
p96
aNaNaNaa(lp97
NaNaNaNaNaNaNaNaNaNaNaNaa(lp98
NaNaNaNaNaNaNaNaNaNaNaNaa(lp99
NaNaNaNaNaNaNaNaNaNaNaNaa(lp100
NaNaNaNaNaNaNaNaNaNaNaNaa(lp101
NaNaNaNaNaNaNaNaNaNaNaNaa(lp102
NaNaNaNaNaNaNaNaNaNaNaNaa(lp103
NaNaNaNaNaNaNaNaNaNaNaNaa(lp104
NaNaNaNaNaNaNaNaNaNaNaNaa(lp105
NaNaNaNaVWasp
p106
aNaNaNaNaNaNaNaa(lp107
NaNaNaNaNaNaNaNaNaNaNaNaa(lp108
NaNaNaNaNaNaNaNaNaNaNaNaa(lp109
NaNaNaNaNaVPod
p110
aNaNaNaNaNaNaa(lp111
NaNaNaNaNaNaNaNaNaNaNaNaa(lp112
NaNaNaNaNaNaNaNaNaNaNaNaa(lp113
NaNaNaNaNaNaNaNaNaNaNaNaa(lp114
NaNaNaNaNaNaNaNaNaNaNaNaa(lp115
NaNaNaNaNaNaNaNaNaNaNaNaa(lp116
NaNaNaNaNaNaNaNaNaNaNaNaa(lp117
NaNaNaNaNaNaNaNaNaNaNaNaa(lp118
NaNaNaNaNaNaNaNaVPoisPod
p119
aNaNaNaa(lp120
NaNaNaNaNaNaNaNaNaNaNaNaa(lp121
NaNaNaNaNaNaNaNaNaNaNaNaa(lp122
NaNaNaNaNaNaNaNaNaNaNaNaa(lp123
NaNaNaNaNaNaNaNaNaNaNaNaa(lp124
NaNaNaNaNaNaNaNaNaNaNaNaa(lp125
NaNaNaNaNaNaNaNaNaNaNaNaa(lp126
NaNaNaNaNaNaNaNaNaNaNaNaa(lp127
NaNaNaNaNaNaNaNaNaNaNaNaa(lp128
NaNaNaNaNaNaNaNaNaNaNaNaa(lp129
NaNaNaNaNaNaNaNaNaNaNaNaa(lp130
NaNaNaNaNaNaNaNaNaNaNaNaa(lp131
NaNaNaNaNaNaNaNaNaNaNaNaa(lp132
NaNaNaNaNaNaNaNaNaNaNaNaa(lp133
NaNaNaNaNaNaNaNaNaNaNaNaa(lp134
NaNaNaNaNaNaNaNaNaNaNaNaa(lp135
NaNaNaNaNaNaNaNaNaNaNaNaa(lp136
NaNaNaNaNaNaNaNaNaNaNaNaa(lp137
NaNaNaNaNaNaNaNaNaNaNaNaa(lp138
NaNaNaNaNaNaNaNaNaNaNaNaa(lp139
NaNaNaNaNaNaNaNaNaNaNaNaa(lp140
NaNaNaNaNaNaNaNaNaNaNaNaa(lp141
NaNaNaNaNaNaNaNaNaNaNaNaa(lp142
NaNaNaNaNaNaNaNaNaNaNaNaa(lp143
NaNaNaNaNaNaNaNaNaNaNaNaa(lp144
NaNaNaNaNaNaNaNaNaNaNaNaa(lp145
NaNaNaNaNaNaNaNaNaNaNaNaa(lp146
NaNaNaNaNaNaNaNaNaNaNaNaa(lp147
NaNaNaNaNaNaNaNaNaNaNaNaa(lp148
NaNaNaNaNaNaNaNaNaNaNaNaa(lp149
NaNaNaNaNaNaNaNaNaNaNaNaa(lp150
NaNaNaNaNaNaNaNaNaNaNaNaa(lp151
NaNaNaNaNaNaNaNaNaNaNaNaa(lp152
NaNaNaNaNaNaNaNaNaNaNaNaa(lp153
NaNaNaNaNaNaNaNaNaNaNaNaa(lp154
NaNaNaNaNaNaNaNaNaNaNaNaa(lp155
NaNaNaNaNaNaNaNaNaNaNaNaa(lp156
NaNaNaNaNaNaNaNaNaNaNaNaa(lp157
NaNaNaNaNaNaNaNaNaNaNaNaasS'objdef'
p158
(dp159
VButterfly
p160
VButterfly.png
p161
sVLevel_End
p162
VEnd.png
p163
sVShield
p164
VShield.png
p165
sVPlayer_Start
p166
VStart.png
p167
sVLever_Snow
p168
VLever1.png
p169
sVTorchref
p170
VTorchref.png
p171
sVWalltorch
p172
VWalltorch.png
p173
sVFirepit
p174
VPit.png
p175
sVSign
p176
VSign.png
p177
sVButterflyC
p178
VButterflyC.png
p179
sVButterflyB
p180
VButterflyB.png
p181
sVSword
p182
VSword.png
p183
sVTreasureBoxC
p184
VTreasureC_Closed.png
p185
sVTreasureBoxB
p186
VTreasureB_Closed.png
p187
sVTreasureBox
p188
VTreasure_Closed.png
p189
sVFallingRock
p190
VRock.png
p191
sVObelisk_Snow
p192
VObelisk_Snow.png
p193
ssS'obj'
p194
(lp195
(lp196
NaNaNaNaNaNaNaNaNaNaNaNaa(lp197
NaNaNaNaNaNaNaNaNaNaNaNaa(lp198
NaNaNaNaNaNaNaNaNaNaVPlayer_Start
p199
aNaa(lp200
NaNaNaNaNaNaNaNaNaNaNaNaa(lp201
NaNaNaNaNaVButterfly
p202
aNaNaNaNaNaNaa(lp203
NaNaNaNaNaNaNaNaNaNaNaNaa(lp204
NaNaNaNaNaNaNaNaNaNaNaNaa(lp205
NaNaNaNaNaNaNaNaNaNaNaNaa(lp206
NaNaNaNaNaNaNaNaNaNaNaNaa(lp207
NaNaNaNaNaNaNaNaNaNaNaNaa(lp208
NaNaNaNaNaNaNaVButterfly
p209
aNaNaNaNaa(lp210
NaNaNaNaNaNaNaNaNaNaNaNaa(lp211
NaNaNaVButterfly
p212
aNaNaNaNaNaNaNaNaa(lp213
NaNaNaNaNaNaNaNaNaNaNaNaa(lp214
NaNaNaNaNaNaNaNaNaNaNaNaa(lp215
NaNaNaNaNaNaNaNaNaNaNaNaa(lp216
NaNaNaNaNaNaNaNaNaNaNaNaa(lp217
NaNaNaNaNaNaNaNaNaNaNaNaa(lp218
NaNaNaNaNaNaNaNaNaNaNaNaa(lp219
NaNaNaNaNaNaNaNaNaNaNaNaa(lp220
NaNaNaNaNaNaNaNaNaNaNaNaa(lp221
NaNaNaNaNaNaNaNaNaNaNaNaa(lp222
NaNaNaNaNaNaNaVTreasureBoxC
p223
aNaNaNaNaa(lp224
NaNaNaNaNaNaNaNaNaNaNaNaa(lp225
NaNaNaNaNaNaNaNaNaNaNaNaa(lp226
NaNaNaNaNaNaNaNaNaNaNaNaa(lp227
NaNaNaNaNaNaNaNaNaNaNaNaa(lp228
NaNaNaNaNaNaNaNaNaNaNaNaa(lp229
NaNaNaNaNaNaNaNaNaNaNaNaa(lp230
NaNaNaNaNaNaNaVButterfly
p231
aNaNaNaNaa(lp232
NaNaNaNaNaNaNaVButterfly
p233
aNaNaNaNaa(lp234
NaNaNaNaNaNaNaNaNaNaVTreasureBoxC
p235
aNaa(lp236
NaNaNaNaNaNaNaNaNaNaNaNaa(lp237
NaNaNaNaNaNaNaNaNaNaNaNaa(lp238
NaNaNaNaNaNaNaNaNaNaNaNaa(lp239
NaNaNaNaNaNaNaNaNaNaNaNaa(lp240
NaNaNaNaNaNaNaNaNaNaNaNaa(lp241
NaNaNaNaNaNaNaNaNaNaNaNaa(lp242
NaNaNaNaNaNaNaNaNaNaNaNaa(lp243
NaNaNaNaNaNaNaNaNaNaNaNaa(lp244
NaNaNaNaNaNaNaNaNaNaNaNaa(lp245
NaNaNaNaNaNaNaNaNaNaNaNaa(lp246
NaNaNaNaNaNaNaNaNaNaNaNaa(lp247
NaNaNaNaNaNaNaNaNaNaNaNaa(lp248
NaNaNaNaNaNaNaNaNaNaNaNaa(lp249
NaNaNaNaNaNaNaNaNaNaNaNaa(lp250
NaNaNaNaNaNaNaNaNaNaNaNaa(lp251
NaNaNaNaNaNaNaNaNaNaNaNaa(lp252
NaNaNaNaNaNaNaVTreasureBoxC
p253
aNaNaNaNaa(lp254
NaNaNaNaNaNaNaNaNaNaNaNaa(lp255
NaNaNaNaNaNaNaNaNaNaNaNaa(lp256
NaNaNaNaNaNaNaNaVObelisk_Snow
p257
aNaNaNaa(lp258
NaNaNaNaNaNaNaNaNaNaNaNaa(lp259
NaNaNaNaNaNaNaNaNaNaNaNaa(lp260
NaNaNaNaNaNaNaNaNaNaNaNaa(lp261
NaNaNaNaNaNaNaNaNaNaNaNaa(lp262
NaNaNaNaNaNaNaNaNaNaNaNaa(lp263
NaNaNaNaNaNaNaNaNaNaNaNaa(lp264
NaNaNaNaNaNaNaNaNaNaNaNaa(lp265
NaNaNaNaNaNaNaNaNaNaNaNaa(lp266
NaNaNaNaNaNaNaNaNaNaNaNaa(lp267
NaNaNaNaNaNaNaNaNaNaNaNaa(lp268
NaNaNaNaNaNaNaNaNaNaNaNaa(lp269
NaNaNaNaNaNaNaNaNaVTreasureBoxC
p270
aNaNaa(lp271
NaNaNaNaNaNaNaNaNaNaNaNaa(lp272
NaNaNaNaNaNaNaNaNaNaNaNaa(lp273
NaNaNaNaNaNaNaNaNaNaNaNaa(lp274
NaNaNaNaNaNaNaNaNaNaNaNaa(lp275
NaNaNaNaNaNaNaNaNaNaNaNaa(lp276
NaNaNaNaNaNaNaNaNaNaNaNaa(lp277
NaNaNaNaNaNaNaNaNaNaNaNaa(lp278
NaNaNaNaNaNaNaNaNaNaNaNaa(lp279
NaNaNaNaNaNaNaNaNaNaNaNaa(lp280
NaNaNaNaNaNaNaNaNaNaNaNaa(lp281
NaNaNaNaNaNaNaNaNaNaNaNaa(lp282
NaNaNaNaNaNaNaNaNaNaNaNaa(lp283
NaNaNaNaNaVButterfly
p284
aVTreasureBoxC
p285
aNaNaNaNaNaa(lp286
NaNaNaNaNaNaNaNaNaNaNaNaa(lp287
NaNaNaNaNaNaNaNaNaNaNaNaa(lp288
NaNaNaNaNaNaNaNaNaNaNaNaa(lp289
NaNaNaVButterfly
p290
aNaNaNaNaNaNaNaNaa(lp291
NaNaNaNaNaNaNaNaNaNaNaNaa(lp292
NaNaNaNaNaNaNaNaNaNaNaNaa(lp293
NaNaNaNaNaNaNaNaNaNaNaNaa(lp294
NaNaNaNaNaNaNaNaNaNaNaNaa(lp295
NaNaNaNaNaNaNaNaNaNaNaNaa(lp296
NaNaNaNaNaNaNaNaNaNaNaNaa(lp297
NaNaNaNaNaNaNaNaNaNaNaNaa(lp298
NaNaNaNaNaNaNaNaNaNaNaNaa(lp299
NaNaNaNaNaNaNaNaNaNaNaNaa(lp300
NaNaNaNaNaNaNaNaNaNaNaNaa(lp301
NaNaNaNaNaNaNaNaNaNaNaNaa(lp302
NaNaNaNaNaNaNaNaNaNaNaNaa(lp303
NaNaNaNaNaNaNaNaNaNaNaNaa(lp304
NaNaNaNaNaNaNaNaNaNaNaNaa(lp305
NaNaNaNaNaNaNaNaNaNaNaNaa(lp306
NaNaNaNaNaNaNaVTreasureBoxC
p307
aNaNaNaNaa(lp308
NaNaNaNaNaNaNaNaNaNaNaNaa(lp309
NaNaNaNaNaNaNaNaNaNaNaNaa(lp310
NaNaNaNaNaNaNaNaNaNaNaNaa(lp311
NaNaNaNaNaNaNaVLevel_End
p312
aNaNaNaNaa(lp313
NaNaNaNaNaNaNaNaNaNaNaNaa(lp314
NaNaNaNaNaNaNaNaNaNaNaNaa(lp315
NaNaNaNaNaNaNaNaNaNaNaNaa(lp316
NaNaNaNaNaNaNaNaNaNaNaNaa(lp317
NaNaNaNaNaNaNaNaNaNaNaNaa(lp318
NaNaNaNaNaNaNaNaNaNaNaNaa(lp319
NaNaNaNaNaNaNaNaNaNaNaNaa(lp320
NaNaNaNaNaNaNaNaNaNaNaNaa(lp321
NaNaNaNaNaNaNaNaNaNaNaNaa(lp322
NaNaNaNaNaNaNaNaNaNaNaNaa(lp323
NaNaNaNaNaNaNaNaNaNaNaNaa(lp324
NaNaNaNaNaNaNaNaNaNaNaNaa(lp325
NaNaNaNaNaNaNaNaNaNaNaNaa(lp326
NaNaNaNaNaNaNaNaNaNaNaNaa(lp327
NaNaNaNaNaNaNaNaNaNaNaNaa(lp328
NaNaNaNaNaNaNaNaNaNaNaNaa(lp329
NaNaNaNaNaNaNaNaNaNaNaNaa(lp330
NaNaNaNaNaNaNaNaNaNaNaNaa(lp331
NaNaNaNaNaNaNaNaNaNaNaNaa(lp332
NaNaNaNaNaNaNaNaNaNaNaNaa(lp333
NaNaNaNaNaNaNaNaNaNaNaNaa(lp334
NaNaNaNaNaNaNaNaNaNaNaNaa(lp335
NaNaNaNaNaNaNaNaNaNaNaNaa(lp336
NaNaNaNaNaNaNaNaNaNaNaNaa(lp337
NaNaNaNaNaNaNaNaNaNaNaNaa(lp338
NaNaNaNaNaNaNaNaNaNaNaNaa(lp339
NaNaNaNaNaNaNaNaNaNaNaNaasS'name'
p340
Vsnodom6
p341
sS'map'
p342
(lp343
(lp344
NaNaNaNa(imapping
Tile
p345
(dp346
S'collidetype'
p347
S'NONE'
p348
sS'type'
p349
VS_Tree2
p350
sS'friction'
p351
F1
sS'overhead'
p352
I00
sba(imapping
Tile
p353
(dp354
g347
S'BOX'
p355
sg349
VS_edgeright
p356
sg351
F0.20000000000000001
sg352
I00
sba(imapping
Tile
p357
(dp358
g347
g355
sg349
VS_edgewright1
p359
sg351
F0.20000000000000001
sg352
I00
sba(imapping
Tile
p360
(dp361
g347
g355
sg349
VS_edgewright2
p362
sg351
F0.20000000000000001
sg352
I00
sba(imapping
Tile
p363
(dp364
g347
g355
sg349
VS_edgewright2
p365
sg351
F0.20000000000000001
sg352
I00
sba(imapping
Tile
p366
(dp367
g347
g355
sg349
VS_edgewright2
p368
sg351
F0.20000000000000001
sg352
I00
sba(imapping
Tile
p369
(dp370
g347
g355
sg349
VS_edgewright1
p371
sg351
F0.20000000000000001
sg352
I00
sba(imapping
Tile
p372
(dp373
g347
g355
sg349
VS_ECleft
p374
sg351
F0.20000000000000001
sg352
I00
sbaa(lp375
NaNaNaNaNaNaNaNaNaNaNa(imapping
Tile
p376
(dp377
g347
g355
sg349
VS_Ground1
p378
sg351
F0.20000000000000001
sg352
I00
sbaa(lp379
NaNaNaNaNaNaNaNaNaNaNa(imapping
Tile
p380
(dp381
g347
g355
sg349
VS_Ground1
p382
sg351
F0.20000000000000001
sg352
I00
sbaa(lp383
NaNaNaNaNaNaNaNaNaNaNa(imapping
Tile
p384
(dp385
g347
g355
sg349
VS_Ground1
p386
sg351
F0.20000000000000001
sg352
I00
sbaa(lp387
NaNaNaNaNaNaNaNa(imapping
Tile
p388
(dp389
g347
g355
sg349
VS_edgeleft
p390
sg351
F0.20000000000000001
sg352
I00
sba(imapping
Tile
p391
(dp392
g347
g355
sg349
VS_edgewleft2
p393
sg351
F1
sg352
I00
sba(imapping
Tile
p394
(dp395
g347
g355
sg349
VS_edgewleft1
p396
sg351
F1
sg352
I00
sba(imapping
Tile
p397
(dp398
g347
g355
sg349
VS_ECright
p399
sg351
F0.20000000000000001
sg352
I00
sbaa(lp400
NaNaNaNaNaNaNa(imapping
Tile
p401
(dp402
g347
g348
sg349
VS_Tree
p403
sg351
F1
sg352
I00
sba(imapping
Tile
p404
(dp405
g347
g355
sg349
VS_Ground1
p406
sg351
F0.20000000000000001
sg352
I00
sba(imapping
Tile
p407
(dp408
g347
g355
sg349
VS_Snow2
p409
sg351
F1
sg352
I00
sba(imapping
Tile
p410
(dp411
g347
g355
sg349
VS_Snow2
p412
sg351
F1
sg352
I00
sba(imapping
Tile
p413
(dp414
g347
g355
sg349
VS_Snow
p415
sg351
F1
sg352
I00
sbaa(lp416
NaNaNaNaNaNaNaNa(imapping
Tile
p417
(dp418
g347
g355
sg349
VS_edgeright
p419
sg351
F0.20000000000000001
sg352
I00
sba(imapping
Tile
p420
(dp421
g347
g355
sg349
VS_edgewright1
p422
sg351
F0.20000000000000001
sg352
I00
sba(imapping
Tile
p423
(dp424
g347
g355
sg349
VS_edgewright2
p425
sg351
F0.20000000000000001
sg352
I00
sba(imapping
Tile
p426
(dp427
g347
g355
sg349
VS_edgewright2
p428
sg351
F0.20000000000000001
sg352
I00
sbaa(lp429
NaNaNaNaNaNaNaNaNaNaNaNaa(lp430
NaNaNaNaNaNaNaNaNaNaNaNaa(lp431
NaNaNaNaNaNaNaNaNaNaNaNaa(lp432
NaNaNaNaNaNaNaNa(imapping
Tile
p433
(dp434
g347
g355
sg349
VS_edgeleft
p435
sg351
F0.20000000000000001
sg352
I00
sba(imapping
Tile
p436
(dp437
g347
g355
sg349
VS_edgewleft1
p438
sg351
F1
sg352
I00
sba(imapping
Tile
p439
(dp440
g347
g355
sg349
VS_edgewleft1
p441
sg351
F1
sg352
I00
sba(imapping
Tile
p442
(dp443
g347
g355
sg349
VS_edgewleft1
p444
sg351
F1
sg352
I00
sbaa(lp445
NaNaNaNaNaNaNa(imapping
Tile
p446
(dp447
g347
g348
sg349
VS_Tree
p448
sg351
F1
sg352
I00
sba(imapping
Tile
p449
(dp450
g347
g355
sg349
VS_Ground1
p451
sg351
F0.20000000000000001
sg352
I00
sba(imapping
Tile
p452
(dp453
g347
g355
sg349
VS_Snow2
p454
sg351
F1
sg352
I00
sba(imapping
Tile
p455
(dp456
g347
g355
sg349
VS_Snow
p457
sg351
F1
sg352
I00
sba(imapping
Tile
p458
(dp459
g347
g355
sg349
VS_Snow2
p460
sg351
F1
sg352
I00
sbaa(lp461
NaNaNaNaNaNaNaNa(imapping
Tile
p462
(dp463
g347
g355
sg349
VS_edgeright
p464
sg351
F0.20000000000000001
sg352
I00
sba(imapping
Tile
p465
(dp466
g347
g355
sg349
VS_edgewright2
p467
sg351
F0.20000000000000001
sg352
I00
sba(imapping
Tile
p468
(dp469
g347
g355
sg349
VS_edgewright2
p470
sg351
F0.20000000000000001
sg352
I00
sba(imapping
Tile
p471
(dp472
g347
g355
sg349
VS_ECleft
p473
sg351
F0.20000000000000001
sg352
I00
sbaa(lp474
NaNaNaNaNaNaNaNaNaNaNa(imapping
Tile
p475
(dp476
g347
g355
sg349
VS_Ground1
p477
sg351
F0.20000000000000001
sg352
I00
sbaa(lp478
NaNaNaNaNaNaNaNaNaNa(imapping
Tile
p479
(dp480
g347
g348
sg349
VS_Railing_L
p481
sg351
F1
sg352
I00
sba(imapping
Tile
p482
(dp483
g347
g355
sg349
VS_Ground1
p484
sg351
F0.20000000000000001
sg352
I00
sbaa(lp485
NaNaNaNaNaNaNaNaNaNa(imapping
Tile
p486
(dp487
g347
g348
sg349
VS_Railing_R
p488
sg351
F1
sg352
I00
sba(imapping
Tile
p489
(dp490
g347
g355
sg349
VS_Ground1
p491
sg351
F0.20000000000000001
sg352
I00
sbaa(lp492
NaNaNaNaNaNa(imapping
Tile
p493
(dp494
g347
g355
sg349
VS_edgeleft
p495
sg351
F0.20000000000000001
sg352
I00
sba(imapping
Tile
p496
(dp497
g347
g355
sg349
VS_edgewleft1
p498
sg351
F1
sg352
I00
sba(imapping
Tile
p499
(dp500
g347
g355
sg349
VS_edgewleft1
p501
sg351
F1
sg352
I00
sba(imapping
Tile
p502
(dp503
g347
g355
sg349
VS_edgewleft2
p504
sg351
F1
sg352
I00
sba(imapping
Tile
p505
(dp506
g347
g355
sg349
VS_edgewleft1
p507
sg351
F1
sg352
I00
sba(imapping
Tile
p508
(dp509
g347
g355
sg349
VS_ECright
p510
sg351
F0.20000000000000001
sg352
I00
sbaa(lp511
NaNaNaNaNa(imapping
Tile
p512
(dp513
g347
S'RIGHT_INCLINATION'
p514
sg349
VS_RRamp
p515
sg351
F0.20000000000000001
sg352
I00
sba(imapping
Tile
p516
(dp517
g347
g355
sg349
VS_bRRamp
p518
sg351
F0.20000000000000001
sg352
I00
sba(imapping
Tile
p519
(dp520
g347
g355
sg349
VS_Snow2
p521
sg351
F1
sg352
I00
sba(imapping
Tile
p522
(dp523
g347
g355
sg349
VS_Snow2
p524
sg351
F1
sg352
I00
sba(imapping
Tile
p525
(dp526
g347
g355
sg349
VS_Snow
p527
sg351
F1
sg352
I00
sba(imapping
Tile
p528
(dp529
g347
g355
sg349
VS_Snow
p530
sg351
F1
sg352
I00
sba(imapping
Tile
p531
(dp532
g347
g355
sg349
VS_Snow2
p533
sg351
F1
sg352
I00
sbaa(lp534
NaNaNaNa(imapping
Tile
p535
(dp536
g347
g348
sg349
VS_Tree2
p537
sg351
F1
sg352
I00
sba(imapping
Tile
p538
(dp539
g347
g355
sg349
VS_edgeright
p540
sg351
F0.20000000000000001
sg352
I00
sba(imapping
Tile
p541
(dp542
g347
g355
sg349
VS_edgewright2
p543
sg351
F0.20000000000000001
sg352
I00
sba(imapping
Tile
p544
(dp545
g347
g355
sg349
VS_edgewright1
p546
sg351
F0.20000000000000001
sg352
I00
sba(imapping
Tile
p547
(dp548
g347
g355
sg349
VS_edgewright2
p549
sg351
F0.20000000000000001
sg352
I00
sba(imapping
Tile
p550
(dp551
g347
g355
sg349
VS_edgewright2
p552
sg351
F0.20000000000000001
sg352
I00
sba(imapping
Tile
p553
(dp554
g347
g355
sg349
VS_edgewright1
p555
sg351
F0.20000000000000001
sg352
I00
sba(imapping
Tile
p556
(dp557
g347
g355
sg349
VS_edgewright1
p558
sg351
F0.20000000000000001
sg352
I00
sbaa(lp559
NaNaNaNaNaNaNaNaNaNaNaNaa(lp560
NaNaNaNaNaNaNaNaNaNaNaNaa(lp561
NaNaNaNaNaNaNaNa(imapping
Tile
p562
(dp563
g347
g355
sg349
VS_edgeleft
p564
sg351
F0.20000000000000001
sg352
I00
sba(imapping
Tile
p565
(dp566
g347
g355
sg349
VS_edgewleft1
p567
sg351
F1
sg352
I00
sba(imapping
Tile
p568
(dp569
g347
g355
sg349
VS_edgewleft2
p570
sg351
F1
sg352
I00
sba(imapping
Tile
p571
(dp572
g347
g355
sg349
VS_UCleft
p573
sg351
F1
sg352
I00
sbaa(lp574
NaNaNaNaNaNaNaNa(imapping
Tile
p575
(dp576
g347
g355
sg349
VS_Ground1
p577
sg351
F0.20000000000000001
sg352
I00
sba(imapping
Tile
p578
(dp579
g347
g355
sg349
VS_Snow
p580
sg351
F1
sg352
I00
sba(imapping
Tile
p581
(dp582
g347
g355
sg349
VS_Snow
p583
sg351
F1
sg352
I00
sba(imapping
Tile
p584
(dp585
g347
g355
sg349
VS_UCJleft
p586
sg351
F1
sg352
I00
sbaa(lp587
NaNaNaNaNaNaNa(imapping
Tile
p588
(dp589
g347
g348
sg349
VS_Pillar
p590
sg351
F1
sg352
I00
sba(imapping
Tile
p591
(dp592
g347
g355
sg349
VS_Ground1
p593
sg351
F0.20000000000000001
sg352
I00
sba(imapping
Tile
p594
(dp595
g347
g355
sg349
VS_Snow2
p596
sg351
F1
sg352
I00
sba(imapping
Tile
p597
(dp598
g347
g355
sg349
VS_Snow2
p599
sg351
F1
sg352
I00
sba(imapping
Tile
p600
(dp601
g347
g355
sg349
VS_Snow
p602
sg351
F1
sg352
I00
sbaa(lp603
NaNaNaNa(imapping
Tile
p604
(dp605
g347
g348
sg349
VS_Pillartop
p606
sg351
F1
sg352
I00
sbaNaNa(imapping
Tile
p607
(dp608
g347
g348
sg349
VS_Pillar
p609
sg351
F1
sg352
I00
sba(imapping
Tile
p610
(dp611
g347
g355
sg349
VS_Ground1
p612
sg351
F0.20000000000000001
sg352
I00
sba(imapping
Tile
p613
(dp614
g347
g355
sg349
VS_Snow
p615
sg351
F1
sg352
I00
sba(imapping
Tile
p616
(dp617
g347
g355
sg349
VS_Snow
p618
sg351
F1
sg352
I00
sba(imapping
Tile
p619
(dp620
g347
g355
sg349
VS_Snow
p621
sg351
F1
sg352
I00
sbaa(lp622
NaNaNaNaNaNaNa(imapping
Tile
p623
(dp624
g347
g348
sg349
VS_Tree2
p625
sg351
F1
sg352
I00
sba(imapping
Tile
p626
(dp627
g347
g355
sg349
VS_Ground1
p628
sg351
F0.20000000000000001
sg352
I00
sba(imapping
Tile
p629
(dp630
g347
g355
sg349
VS_Snow2
p631
sg351
F1
sg352
I00
sba(imapping
Tile
p632
(dp633
g347
g355
sg349
VS_Snow
p634
sg351
F1
sg352
I00
sba(imapping
Tile
p635
(dp636
g347
g355
sg349
VS_Snow2
p637
sg351
F1
sg352
I00
sbaa(lp638
NaNaNaNaNaNaNa(imapping
Tile
p639
(dp640
g347
g348
sg349
VS_Stones
p641
sg351
F1
sg352
I00
sba(imapping
Tile
p642
(dp643
g347
g355
sg349
VS_edgeright
p644
sg351
F0.20000000000000001
sg352
I00
sba(imapping
Tile
p645
(dp646
g347
g355
sg349
VS_edgewright1
p647
sg351
F0.20000000000000001
sg352
I00
sba(imapping
Tile
p648
(dp649
g347
g355
sg349
VS_edgewright2
p650
sg351
F0.20000000000000001
sg352
I00
sba(imapping
Tile
p651
(dp652
g347
g355
sg349
VS_edgewright2
p653
sg351
F0.20000000000000001
sg352
I00
sbaa(lp654
NaNaNaNaNaNaNaNaNaNaNaNaa(lp655
NaNaNaNaNaNaNaNaNaNaNaNaa(lp656
NaNaNaNaNaNaNaNaNaNaNaNaa(lp657
NaNaNaNaNaNaNaNaNaNaNa(imapping
Tile
p658
(dp659
g347
g514
sg349
VS_RRamp
p660
sg351
F0.20000000000000001
sg352
I00
sbaa(lp661
NaNaNaNaNaNaNaNaNaNaNa(imapping
Tile
p662
(dp663
g347
g355
sg349
VS_Ground1
p664
sg351
F0.20000000000000001
sg352
I00
sbaa(lp665
NaNaNaNaNaNaNaNaNaNa(imapping
Tile
p666
(dp667
g347
g514
sg349
VS_RRamp
p668
sg351
F0.20000000000000001
sg352
I00
sba(imapping
Tile
p669
(dp670
g347
g355
sg349
VS_bRRamp
p671
sg351
F0.20000000000000001
sg352
I00
sbaa(lp672
NaNaNaNaNaNaNaNaNa(imapping
Tile
p673
(dp674
g347
g348
sg349
VS_Tree
p675
sg351
F1
sg352
I00
sba(imapping
Tile
p676
(dp677
g347
g355
sg349
VS_Ground1
p678
sg351
F0.20000000000000001
sg352
I00
sba(imapping
Tile
p679
(dp680
g347
g355
sg349
VS_Snow2
p681
sg351
F1
sg352
I00
sbaa(lp682
NaNaNaNaNaNaNaNaNaNa(imapping
Tile
p683
(dp684
g347
S'LEFT_INCLINATION'
p685
sg349
VS_LRamp
p686
sg351
F0.20000000000000001
sg352
I00
sba(imapping
Tile
p687
(dp688
g347
g355
sg349
VS_bLRamp
p689
sg351
F0.20000000000000001
sg352
I00
sbaa(lp690
NaNaNaNaNaNaNaNaNaNaNa(imapping
Tile
p691
(dp692
g347
g355
sg349
VS_Ground1
p693
sg351
F0.20000000000000001
sg352
I00
sbaa(lp694
NaNaNaNaNaNaNaNaNaNaNa(imapping
Tile
p695
(dp696
g347
g685
sg349
VS_LRamp
p697
sg351
F0.20000000000000001
sg352
I00
sbaa(lp698
NaNaNaNaNaNaNaNaNaNaNaNaa(lp699
NaNaNaNaNaNaNaNaNaNaNaNaa(lp700
NaNaNaNaNaNaNaNaNaNaNaNaa(lp701
NaNaNaNaNaNaNaNaNaNaNa(imapping
Tile
p702
(dp703
g347
g514
sg349
VS_RRamp
p704
sg351
F0.20000000000000001
sg352
I00
sbaa(lp705
NaNaNaNaNaNaNaNaNaNaNa(imapping
Tile
p706
(dp707
g347
g355
sg349
VS_Ground1
p708
sg351
F0.20000000000000001
sg352
I00
sbaa(lp709
NaNaNaNaNaNaNaNaNaNa(imapping
Tile
p710
(dp711
g347
g514
sg349
VS_RRamp
p712
sg351
F0.20000000000000001
sg352
I00
sba(imapping
Tile
p713
(dp714
g347
g355
sg349
VS_bRRamp
p715
sg351
F0.20000000000000001
sg352
I00
sbaa(lp716
NaNaNaNaNaNaNaNaNaNa(imapping
Tile
p717
(dp718
g347
g355
sg349
VS_Ground1
p719
sg351
F0.20000000000000001
sg352
I00
sba(imapping
Tile
p720
(dp721
g347
g355
sg349
VS_Snow
p722
sg351
F1
sg352
I00
sbaa(lp723
NaNaNaNaNaNaNaNaNa(imapping
Tile
p724
(dp725
g347
g514
sg349
VS_RRamp
p726
sg351
F0.20000000000000001
sg352
I00
sba(imapping
Tile
p727
(dp728
g347
g355
sg349
VS_bRRamp
p729
sg351
F0.20000000000000001
sg352
I00
sba(imapping
Tile
p730
(dp731
g347
g355
sg349
VS_Snow2
p732
sg351
F1
sg352
I00
sbaa(lp733
NaNaNaNaNaNaNaNa(imapping
Tile
p734
(dp735
g347
g348
sg349
VS_Tree2
p736
sg351
F1
sg352
I00
sba(imapping
Tile
p737
(dp738
g347
g355
sg349
VS_Ground1
p739
sg351
F0.20000000000000001
sg352
I00
sba(imapping
Tile
p740
(dp741
g347
g355
sg349
VS_Snow
p742
sg351
F1
sg352
I00
sba(imapping
Tile
p743
(dp744
g347
g355
sg349
VS_Snow
p745
sg351
F1
sg352
I00
sbaa(lp746
NaNaNaNaNaNaNaNa(imapping
Tile
p747
(dp748
g347
g514
sg349
VS_RRamp
p749
sg351
F0.20000000000000001
sg352
I00
sba(imapping
Tile
p750
(dp751
g347
g355
sg349
VS_bRRamp
p752
sg351
F0.20000000000000001
sg352
I00
sba(imapping
Tile
p753
(dp754
g347
g355
sg349
VS_Snow
p755
sg351
F1
sg352
I00
sba(imapping
Tile
p756
(dp757
g347
g355
sg349
VS_Snow2
p758
sg351
F1
sg352
I00
sbaa(lp759
NaNaNaNaNaNaNaNa(imapping
Tile
p760
(dp761
g347
g355
sg349
VS_Ground1
p762
sg351
F0.20000000000000001
sg352
I00
sba(imapping
Tile
p763
(dp764
g347
g355
sg349
VS_Snow
p765
sg351
F1
sg352
I00
sba(imapping
Tile
p766
(dp767
g347
g355
sg349
VS_Snow2
p768
sg351
F1
sg352
I00
sba(imapping
Tile
p769
(dp770
g347
g355
sg349
VS_Snow2
p771
sg351
F1
sg352
I00
sbaa(lp772
NaNaNaNaNaNaNa(imapping
Tile
p773
(dp774
g347
g348
sg349
VS_Tree
p775
sg351
F1
sg352
I00
sba(imapping
Tile
p776
(dp777
g347
g355
sg349
VS_Ground1
p778
sg351
F0.20000000000000001
sg352
I00
sba(imapping
Tile
p779
(dp780
g347
g355
sg349
VS_Snow2
p781
sg351
F1
sg352
I00
sba(imapping
Tile
p782
(dp783
g347
g355
sg349
VS_Snow2
p784
sg351
F1
sg352
I00
sba(imapping
Tile
p785
(dp786
g347
g355
sg349
VS_Snow2
p787
sg351
F1
sg352
I00
sbaa(lp788
NaNaNaNaNaNaNaNa(imapping
Tile
p789
(dp790
g347
g355
sg349
VS_Ground1
p791
sg351
F0.20000000000000001
sg352
I00
sba(imapping
Tile
p792
(dp793
g347
g355
sg349
VS_Snow
p794
sg351
F1
sg352
I00
sba(imapping
Tile
p795
(dp796
g347
g355
sg349
VS_Snow2
p797
sg351
F1
sg352
I00
sba(imapping
Tile
p798
(dp799
g347
g355
sg349
VS_Snow
p800
sg351
F1
sg352
I00
sbaa(lp801
NaNaNaNaNaNaNaNa(imapping
Tile
p802
(dp803
g347
g685
sg349
VS_LRamp
p804
sg351
F0.20000000000000001
sg352
I00
sba(imapping
Tile
p805
(dp806
g347
g355
sg349
VS_bLRamp
p807
sg351
F0.20000000000000001
sg352
I00
sba(imapping
Tile
p808
(dp809
g347
g355
sg349
VS_Snow
p810
sg351
F1
sg352
I00
sba(imapping
Tile
p811
(dp812
g347
g355
sg349
VS_Snow2
p813
sg351
F1
sg352
I00
sbaa(lp814
NaNaNaNaNaNaNaNaNa(imapping
Tile
p815
(dp816
g347
g355
sg349
VS_Ground1
p817
sg351
F0.20000000000000001
sg352
I00
sba(imapping
Tile
p818
(dp819
g347
g355
sg349
VS_Snow
p820
sg351
F1
sg352
I00
sba(imapping
Tile
p821
(dp822
g347
g355
sg349
VS_Snow
p823
sg351
F1
sg352
I00
sbaa(lp824
NaNaNaNaNaNaNaNa(imapping
Tile
p825
(dp826
g347
g348
sg349
VS_Stones
p827
sg351
F1
sg352
I00
sba(imapping
Tile
p828
(dp829
g347
g355
sg349
VS_edgeright
p830
sg351
F0.20000000000000001
sg352
I00
sba(imapping
Tile
p831
(dp832
g347
g355
sg349
VS_edgewright2
p833
sg351
F0.20000000000000001
sg352
I00
sba(imapping
Tile
p834
(dp835
g347
g355
sg349
VS_edgewright1
p836
sg351
F0.20000000000000001
sg352
I00
sbaa(lp837
NaNaNaNaNaNaNaNaNaNaNaNaa(lp838
NaNaNaNaNaNaNaNaNaNaNaNaa(lp839
NaNaNaNaNaNaNaNaNaNa(imapping
Tile
p840
(dp841
g347
g355
sg349
VS_edgeleft
p842
sg351
F0.20000000000000001
sg352
I00
sba(imapping
Tile
p843
(dp844
g347
g355
sg349
VS_edgewleft1
p845
sg351
F1
sg352
I00
sbaa(lp846
NaNaNaNaNaNaNaNaNa(imapping
Tile
p847
(dp848
g347
g348
sg349
VS_Railing_L
p849
sg351
F1
sg352
I00
sba(imapping
Tile
p850
(dp851
g347
g355
sg349
VS_Ground1
p852
sg351
F0.20000000000000001
sg352
I00
sba(imapping
Tile
p853
(dp854
g347
g355
sg349
VS_Snow2
p855
sg351
F1
sg352
I00
sbaa(lp856
NaNaNaNaNaNaNaNaNa(imapping
Tile
p857
(dp858
g347
g348
sg349
VS_Railing_1
p859
sg351
F1
sg352
I00
sba(imapping
Tile
p860
(dp861
g347
g355
sg349
VS_Ground1
p862
sg351
F0.20000000000000001
sg352
I00
sba(imapping
Tile
p863
(dp864
g347
g355
sg349
VS_Snow
p865
sg351
F1
sg352
I00
sbaa(lp866
NaNaNaNaNaNaNaNaNa(imapping
Tile
p867
(dp868
g347
g348
sg349
VS_Railing_2
p869
sg351
F1
sg352
I00
sba(imapping
Tile
p870
(dp871
g347
g355
sg349
VS_Ground1
p872
sg351
F0.20000000000000001
sg352
I00
sba(imapping
Tile
p873
(dp874
g347
g355
sg349
VS_Snow2
p875
sg351
F1
sg352
I00
sbaa(lp876
NaNaNaNaNaNaNaNaNa(imapping
Tile
p877
(dp878
g347
g348
sg349
VS_Railing_1
p879
sg351
F1
sg352
I00
sba(imapping
Tile
p880
(dp881
g347
g355
sg349
VS_Ground1
p882
sg351
F0.20000000000000001
sg352
I00
sba(imapping
Tile
p883
(dp884
g347
g355
sg349
VS_Snow
p885
sg351
F1
sg352
I00
sbaa(lp886
NaNaNaNaNaNaNaNaNa(imapping
Tile
p887
(dp888
g347
g348
sg349
VS_Tree2
p889
sg351
F1
sg352
I00
sba(imapping
Tile
p890
(dp891
g347
g355
sg349
VS_Ground1
p892
sg351
F0.20000000000000001
sg352
I00
sba(imapping
Tile
p893
(dp894
g347
g355
sg349
VS_Snow
p895
sg351
F1
sg352
I00
sbaa(lp896
NaNaNaNaNaNaNaNaNa(imapping
Tile
p897
(dp898
g347
S'NONE_R'
p899
sg349
VF_Shrooms3
p900
sg351
F1
sg352
I00
sba(imapping
Tile
p901
(dp902
g347
g355
sg349
VS_Ground1
p903
sg351
F0.20000000000000001
sg352
I00
sba(imapping
Tile
p904
(dp905
g347
g355
sg349
VS_Snow2
p906
sg351
F1
sg352
I00
sbaa(lp907
NaNaNaNaNaNaNaNaNaNa(imapping
Tile
p908
(dp909
g347
g355
sg349
VS_Ground1
p910
sg351
F0.20000000000000001
sg352
I00
sba(imapping
Tile
p911
(dp912
g347
g355
sg349
VS_Snow
p913
sg351
F1
sg352
I00
sbaa(lp914
NaNaNaNaNaNaNaNaNaNa(imapping
Tile
p915
(dp916
g347
g355
sg349
VS_Ground1
p917
sg351
F0.20000000000000001
sg352
I00
sba(imapping
Tile
p918
(dp919
g347
g355
sg349
VS_Snow2
p920
sg351
F1
sg352
I00
sbaa(lp921
NaNaNaNaNaNaNaNaNaNa(imapping
Tile
p922
(dp923
g347
g355
sg349
VS_Ground1
p924
sg351
F0.20000000000000001
sg352
I00
sba(imapping
Tile
p925
(dp926
g347
g355
sg349
VS_Snow2
p927
sg351
F1
sg352
I00
sbaa(lp928
NaNaNaNaNaNaNaNaNa(imapping
Tile
p929
(dp930
g347
g348
sg349
VF_Shrooms2
p931
sg351
F1
sg352
I00
sba(imapping
Tile
p932
(dp933
g347
g355
sg349
VS_Ground1
p934
sg351
F0.20000000000000001
sg352
I00
sba(imapping
Tile
p935
(dp936
g347
g355
sg349
VS_Snow2
p937
sg351
F1
sg352
I00
sbaa(lp938
NaNaNaNaNaNaNaNaNa(imapping
Tile
p939
(dp940
g347
g899
sg349
VF_Shrooms1
p941
sg351
F1
sg352
I00
sba(imapping
Tile
p942
(dp943
g347
g355
sg349
VS_Ground1
p944
sg351
F0.20000000000000001
sg352
I00
sba(imapping
Tile
p945
(dp946
g347
g355
sg349
VS_Snow2
p947
sg351
F1
sg352
I00
sbaa(lp948
NaNaNaNaNaNaNaNaNa(imapping
Tile
p949
(dp950
g347
g514
sg349
VS_RRamp
p951
sg351
F0.20000000000000001
sg352
I00
sba(imapping
Tile
p952
(dp953
g347
g355
sg349
VS_bRRamp
p954
sg351
F0.20000000000000001
sg352
I00
sba(imapping
Tile
p955
(dp956
g347
g355
sg349
VS_Snow
p957
sg351
F1
sg352
I00
sbaa(lp958
NaNaNaNaNaNaNaNa(imapping
Tile
p959
(dp960
g347
g348
sg349
VF_Shrooms2
p961
sg351
F1
sg352
I00
sba(imapping
Tile
p962
(dp963
g347
g355
sg349
VS_Ground1
p964
sg351
F0.20000000000000001
sg352
I00
sba(imapping
Tile
p965
(dp966
g347
g355
sg349
VS_Snow
p967
sg351
F1
sg352
I00
sba(imapping
Tile
p968
(dp969
g347
g355
sg349
VS_Snow
p970
sg351
F1
sg352
I00
sbaa(lp971
NaNaNaNaNaNaNaNaNa(imapping
Tile
p972
(dp973
g347
g355
sg349
VS_Ground1
p974
sg351
F0.20000000000000001
sg352
I00
sba(imapping
Tile
p975
(dp976
g347
g355
sg349
VS_Snow
p977
sg351
F1
sg352
I00
sba(imapping
Tile
p978
(dp979
g347
g355
sg349
VS_Snow2
p980
sg351
F1
sg352
I00
sbaa(lp981
NaNaNaNaNaNaNaNa(imapping
Tile
p982
(dp983
g347
g348
sg349
VS_Tree2
p984
sg351
F1
sg352
I00
sba(imapping
Tile
p985
(dp986
g347
g355
sg349
VS_Ground1
p987
sg351
F0.20000000000000001
sg352
I00
sba(imapping
Tile
p988
(dp989
g347
g355
sg349
VS_Snow
p990
sg351
F1
sg352
I00
sba(imapping
Tile
p991
(dp992
g347
g355
sg349
VS_Snow
p993
sg351
F1
sg352
I00
sbaa(lp994
NaNaNaNaNaNaNaNaNa(imapping
Tile
p995
(dp996
g347
g355
sg349
VS_edgeright
p997
sg351
F0.20000000000000001
sg352
I00
sba(imapping
Tile
p998
(dp999
g347
g355
sg349
VS_edgewright1
p1000
sg351
F0.20000000000000001
sg352
I00
sba(imapping
Tile
p1001
(dp1002
g347
g355
sg349
VS_edgewright2
p1003
sg351
F0.20000000000000001
sg352
I00
sbaa(lp1004
NaNaNaNaNaNaNaNaNaNaNaNaa(lp1005
NaNaNaNaNaNaNaNaNaNaNaNaa(lp1006
NaNaNaNaNaNaNa(imapping
Tile
p1007
(dp1008
g347
g355
sg349
VS_edgeleft
p1009
sg351
F0.20000000000000001
sg352
I00
sba(imapping
Tile
p1010
(dp1011
g347
g355
sg349
VS_edgewleft2
p1012
sg351
F1
sg352
I00
sba(imapping
Tile
p1013
(dp1014
g347
g355
sg349
VS_edgewleft2
p1015
sg351
F1
sg352
I00
sba(imapping
Tile
p1016
(dp1017
g347
g355
sg349
VS_edgewleft1
p1018
sg351
F1
sg352
I00
sba(imapping
Tile
p1019
(dp1020
g347
g355
sg349
VS_edgewleft2
p1021
sg351
F1
sg352
I00
sbaa(lp1022
NaNaNaNaNaNaNa(imapping
Tile
p1023
(dp1024
g347
g355
sg349
VS_Ground1
p1025
sg351
F0.20000000000000001
sg352
I00
sba(imapping
Tile
p1026
(dp1027
g347
g355
sg349
VS_Snow
p1028
sg351
F1
sg352
I00
sba(imapping
Tile
p1029
(dp1030
g347
g355
sg349
VS_Snow2
p1031
sg351
F1
sg352
I00
sba(imapping
Tile
p1032
(dp1033
g347
g355
sg349
VS_Snow
p1034
sg351
F1
sg352
I00
sba(imapping
Tile
p1035
(dp1036
g347
g355
sg349
VS_Snow
p1037
sg351
F1
sg352
I00
sbaa(lp1038
NaNaNaNaNaNaNa(imapping
Tile
p1039
(dp1040
g347
g355
sg349
VS_Ground1
p1041
sg351
F0.20000000000000001
sg352
I00
sba(imapping
Tile
p1042
(dp1043
g347
g355
sg349
VS_Snow
p1044
sg351
F1
sg352
I00
sba(imapping
Tile
p1045
(dp1046
g347
g355
sg349
VS_Snow
p1047
sg351
F1
sg352
I00
sba(imapping
Tile
p1048
(dp1049
g347
g355
sg349
VS_Snow
p1050
sg351
F1
sg352
I00
sba(imapping
Tile
p1051
(dp1052
g347
g355
sg349
VS_Snow2
p1053
sg351
F1
sg352
I00
sbaa(lp1054
NaNaNaNaNaNa(imapping
Tile
p1055
(dp1056
g347
g348
sg349
VS_Tree
p1057
sg351
F1
sg352
I00
sba(imapping
Tile
p1058
(dp1059
g347
g355
sg349
VS_Ground1
p1060
sg351
F0.20000000000000001
sg352
I00
sba(imapping
Tile
p1061
(dp1062
g347
g355
sg349
VS_Snow
p1063
sg351
F1
sg352
I00
sba(imapping
Tile
p1064
(dp1065
g347
g355
sg349
VS_Snow
p1066
sg351
F1
sg352
I00
sba(imapping
Tile
p1067
(dp1068
g347
g355
sg349
VS_Snow2
p1069
sg351
F1
sg352
I00
sba(imapping
Tile
p1070
(dp1071
g347
g355
sg349
VS_Snow
p1072
sg351
F1
sg352
I00
sbaa(lp1073
NaNaNaNaNaNaNa(imapping
Tile
p1074
(dp1075
g347
g355
sg349
VS_Ground1
p1076
sg351
F0.20000000000000001
sg352
I00
sba(imapping
Tile
p1077
(dp1078
g347
g355
sg349
VS_Snow
p1079
sg351
F1
sg352
I00
sba(imapping
Tile
p1080
(dp1081
g347
g355
sg349
VS_Snow2
p1082
sg351
F1
sg352
I00
sba(imapping
Tile
p1083
(dp1084
g347
g355
sg349
VS_Snow
p1085
sg351
F1
sg352
I00
sba(imapping
Tile
p1086
(dp1087
g347
g355
sg349
VS_Snow
p1088
sg351
F1
sg352
I00
sbaa(lp1089
NaNaNaNaNaNa(imapping
Tile
p1090
(dp1091
g347
g514
sg349
VS_RRamp
p1092
sg351
F0.20000000000000001
sg352
I00
sba(imapping
Tile
p1093
(dp1094
g347
g355
sg349
VS_bRRamp
p1095
sg351
F0.20000000000000001
sg352
I00
sba(imapping
Tile
p1096
(dp1097
g347
g355
sg349
VS_Snow
p1098
sg351
F1
sg352
I00
sba(imapping
Tile
p1099
(dp1100
g347
g355
sg349
VS_Snow
p1101
sg351
F1
sg352
I00
sba(imapping
Tile
p1102
(dp1103
g347
g355
sg349
VS_Snow2
p1104
sg351
F1
sg352
I00
sba(imapping
Tile
p1105
(dp1106
g347
g355
sg349
VS_Snow
p1107
sg351
F1
sg352
I00
sbaa(lp1108
NaNaNaNaNaNa(imapping
Tile
p1109
(dp1110
g347
g355
sg349
VS_Ground1
p1111
sg351
F0.20000000000000001
sg352
I00
sba(imapping
Tile
p1112
(dp1113
g347
g355
sg349
VS_Snow2
p1114
sg351
F1
sg352
I00
sba(imapping
Tile
p1115
(dp1116
g347
g355
sg349
VS_Snow
p1117
sg351
F1
sg352
I00
sba(imapping
Tile
p1118
(dp1119
g347
g355
sg349
VS_Snow2
p1120
sg351
F1
sg352
I00
sba(imapping
Tile
p1121
(dp1122
g347
g355
sg349
VS_Snow2
p1123
sg351
F1
sg352
I00
sba(imapping
Tile
p1124
(dp1125
g347
g355
sg349
VS_Snow
p1126
sg351
F1
sg352
I00
sbaa(lp1127
NaNaNaNaNa(imapping
Tile
p1128
(dp1129
g347
g348
sg349
VS_Railing_L
p1130
sg351
F1
sg352
I00
sba(imapping
Tile
p1131
(dp1132
g347
g355
sg349
VS_Ground1
p1133
sg351
F0.20000000000000001
sg352
I00
sba(imapping
Tile
p1134
(dp1135
g347
g355
sg349
VS_Snow2
p1136
sg351
F1
sg352
I00
sba(imapping
Tile
p1137
(dp1138
g347
g355
sg349
VS_Snow
p1139
sg351
F1
sg352
I00
sba(imapping
Tile
p1140
(dp1141
g347
g355
sg349
VS_Snow2
p1142
sg351
F1
sg352
I00
sba(imapping
Tile
p1143
(dp1144
g347
g355
sg349
VS_Snow2
p1145
sg351
F1
sg352
I00
sba(imapping
Tile
p1146
(dp1147
g347
g355
sg349
VS_Snow
p1148
sg351
F1
sg352
I00
sbaa(lp1149
NaNaNaNaNa(imapping
Tile
p1150
(dp1151
g347
g348
sg349
VS_Railing_1
p1152
sg351
F1
sg352
I00
sba(imapping
Tile
p1153
(dp1154
g347
g355
sg349
VS_Ground1
p1155
sg351
F0.20000000000000001
sg352
I00
sba(imapping
Tile
p1156
(dp1157
g347
g355
sg349
VS_Snow2
p1158
sg351
F1
sg352
I00
sba(imapping
Tile
p1159
(dp1160
g347
g355
sg349
VS_Snow
p1161
sg351
F1
sg352
I00
sba(imapping
Tile
p1162
(dp1163
g347
g355
sg349
VS_Snow
p1164
sg351
F1
sg352
I00
sba(imapping
Tile
p1165
(dp1166
g347
g355
sg349
VS_Snow
p1167
sg351
F1
sg352
I00
sba(imapping
Tile
p1168
(dp1169
g347
g355
sg349
VS_Snow
p1170
sg351
F1
sg352
I00
sbaa(lp1171
NaNaNaNaNa(imapping
Tile
p1172
(dp1173
g347
g348
sg349
VS_Railing_R
p1174
sg351
F1
sg352
I00
sba(imapping
Tile
p1175
(dp1176
g347
g355
sg349
VS_edgeright
p1177
sg351
F0.20000000000000001
sg352
I00
sba(imapping
Tile
p1178
(dp1179
g347
g355
sg349
VS_edgewright2
p1180
sg351
F0.20000000000000001
sg352
I00
sba(imapping
Tile
p1181
(dp1182
g347
g355
sg349
VS_edgewright1
p1183
sg351
F0.20000000000000001
sg352
I00
sba(imapping
Tile
p1184
(dp1185
g347
g355
sg349
VS_edgewright1
p1186
sg351
F0.20000000000000001
sg352
I00
sba(imapping
Tile
p1187
(dp1188
g347
g355
sg349
VS_edgewright2
p1189
sg351
F0.20000000000000001
sg352
I00
sba(imapping
Tile
p1190
(dp1191
g347
g355
sg349
VS_edgewright2
p1192
sg351
F0.20000000000000001
sg352
I00
sbaa(lp1193
NaNaNaNaNaNaNaNaNaNaNaNaa(lp1194
NaNaNaNaNaNaNaNaNaNaNaNaa(lp1195
NaNaNaNaNaNaNaNaNaNaNaNaa(lp1196
NaNaNaNaNaNaNaNaNaNaNaNaa(lp1197
NaNaNaNaNaNaNaNaNa(imapping
Tile
p1198
(dp1199
g347
g355
sg349
VS_edgeleft
p1200
sg351
F0.20000000000000001
sg352
I00
sba(imapping
Tile
p1201
(dp1202
g347
g355
sg349
VS_edgewleft1
p1203
sg351
F1
sg352
I00
sba(imapping
Tile
p1204
(dp1205
g347
g355
sg349
VS_edgewleft2
p1206
sg351
F1
sg352
I00
sbaa(lp1207
NaNaNaNaNaNaNaNaNa(imapping
Tile
p1208
(dp1209
g347
g355
sg349
VS_Ground1
p1210
sg351
F0.20000000000000001
sg352
I00
sba(imapping
Tile
p1211
(dp1212
g347
g355
sg349
VS_Snow2
p1213
sg351
F1
sg352
I00
sba(imapping
Tile
p1214
(dp1215
g347
g355
sg349
VS_Snow
p1216
sg351
F1
sg352
I00
sbaa(lp1217
NaNaNaNaNaNaNaNaNa(imapping
Tile
p1218
(dp1219
g347
g685
sg349
VS_LRamp
p1220
sg351
F0.20000000000000001
sg352
I00
sba(imapping
Tile
p1221
(dp1222
g347
g355
sg349
VS_bLRamp
p1223
sg351
F0.20000000000000001
sg352
I00
sba(imapping
Tile
p1224
(dp1225
g347
g355
sg349
VS_Snow2
p1226
sg351
F1
sg352
I00
sbaa(lp1227
NaNaNaNaNaNaNaNaNa(imapping
Tile
p1228
(dp1229
g347
g348
sg349
VS_Pillar
p1230
sg351
F1
sg352
I00
sba(imapping
Tile
p1231
(dp1232
g347
g355
sg349
VS_Ground1
p1233
sg351
F0.20000000000000001
sg352
I00
sba(imapping
Tile
p1234
(dp1235
g347
g355
sg349
VS_Snow2
p1236
sg351
F1
sg352
I00
sbaa(lp1237
NaNaNaNaNaNa(imapping
Tile
p1238
(dp1239
g347
g348
sg349
VS_Pillartop
p1240
sg351
F1
sg352
I00
sbaNaNa(imapping
Tile
p1241
(dp1242
g347
g348
sg349
VS_Pillar
p1243
sg351
F1
sg352
I00
sba(imapping
Tile
p1244
(dp1245
g347
g355
sg349
VS_Ground1
p1246
sg351
F0.20000000000000001
sg352
I00
sba(imapping
Tile
p1247
(dp1248
g347
g355
sg349
VS_Snow2
p1249
sg351
F1
sg352
I00
sbaa(lp1250
NaNaNaNaNaNaNaNaNa(imapping
Tile
p1251
(dp1252
g347
g514
sg349
VS_RRamp
p1253
sg351
F0.20000000000000001
sg352
I00
sba(imapping
Tile
p1254
(dp1255
g347
g355
sg349
VS_bRRamp
p1256
sg351
F0.20000000000000001
sg352
I00
sba(imapping
Tile
p1257
(dp1258
g347
g355
sg349
VS_Snow
p1259
sg351
F1
sg352
I00
sbaa(lp1260
NaNaNaNaNaNaNaNaNa(imapping
Tile
p1261
(dp1262
g347
g355
sg349
VS_Ground1
p1263
sg351
F0.20000000000000001
sg352
I00
sba(imapping
Tile
p1264
(dp1265
g347
g355
sg349
VS_Snow
p1266
sg351
F1
sg352
I00
sba(imapping
Tile
p1267
(dp1268
g347
g355
sg349
VS_Snow2
p1269
sg351
F1
sg352
I00
sbaa(lp1270
NaNaNaNaNaNaNaNa(imapping
Tile
p1271
(dp1272
g347
g514
sg349
VS_RRamp
p1273
sg351
F0.20000000000000001
sg352
I00
sba(imapping
Tile
p1274
(dp1275
g347
g355
sg349
VS_bRRamp
p1276
sg351
F0.20000000000000001
sg352
I00
sba(imapping
Tile
p1277
(dp1278
g347
g355
sg349
VS_Snow
p1279
sg351
F1
sg352
I00
sba(imapping
Tile
p1280
(dp1281
g347
g355
sg349
VS_Snow
p1282
sg351
F1
sg352
I00
sbaa(lp1283
NaNaNaNaNaNaNaNa(imapping
Tile
p1284
(dp1285
g347
g355
sg349
VS_Ground1
p1286
sg351
F0.20000000000000001
sg352
I00
sba(imapping
Tile
p1287
(dp1288
g347
g355
sg349
VS_Snow
p1289
sg351
F1
sg352
I00
sba(imapping
Tile
p1290
(dp1291
g347
g355
sg349
VS_Snow
p1292
sg351
F1
sg352
I00
sba(imapping
Tile
p1293
(dp1294
g347
g355
sg349
VS_Snow
p1295
sg351
F1
sg352
I00
sbaa(lp1296
NaNaNaNaNaNaNaNa(imapping
Tile
p1297
(dp1298
g347
g355
sg349
VS_Ground1
p1299
sg351
F0.20000000000000001
sg352
I00
sba(imapping
Tile
p1300
(dp1301
g347
g355
sg349
VS_Snow
p1302
sg351
F1
sg352
I00
sba(imapping
Tile
p1303
(dp1304
g347
g355
sg349
VS_Snow
p1305
sg351
F1
sg352
I00
sba(imapping
Tile
p1306
(dp1307
g347
g355
sg349
VS_Snow
p1308
sg351
F1
sg352
I00
sbaa(lp1309
NaNaNaNaNaNaNaNa(imapping
Tile
p1310
(dp1311
g347
g355
sg349
VS_Ground1
p1312
sg351
F0.20000000000000001
sg352
I00
sba(imapping
Tile
p1313
(dp1314
g347
g355
sg349
VS_Snow
p1315
sg351
F1
sg352
I00
sba(imapping
Tile
p1316
(dp1317
g347
g355
sg349
VS_Snow
p1318
sg351
F1
sg352
I00
sba(imapping
Tile
p1319
(dp1320
g347
g355
sg349
VS_Snow
p1321
sg351
F1
sg352
I00
sbaa(lp1322
NaNaNaNaNaNaNaNa(imapping
Tile
p1323
(dp1324
g347
g355
sg349
VS_Ground1
p1325
sg351
F0.20000000000000001
sg352
I00
sba(imapping
Tile
p1326
(dp1327
g347
g355
sg349
VS_Snow
p1328
sg351
F1
sg352
I00
sba(imapping
Tile
p1329
(dp1330
g347
g355
sg349
VS_Snow
p1331
sg351
F1
sg352
I00
sba(imapping
Tile
p1332
(dp1333
g347
g355
sg349
VS_Snow
p1334
sg351
F1
sg352
I00
sbaa(lp1335
NaNaNaNaNaNaNaNa(imapping
Tile
p1336
(dp1337
g347
g355
sg349
VS_Ground1
p1338
sg351
F0.20000000000000001
sg352
I00
sba(imapping
Tile
p1339
(dp1340
g347
g355
sg349
VS_Snow
p1341
sg351
F1
sg352
I00
sba(imapping
Tile
p1342
(dp1343
g347
g355
sg349
VS_Snow
p1344
sg351
F1
sg352
I00
sba(imapping
Tile
p1345
(dp1346
g347
g355
sg349
VS_Snow
p1347
sg351
F1
sg352
I00
sbaa(lp1348
NaNaNaNaNaNaNaNa(imapping
Tile
p1349
(dp1350
g347
g355
sg349
VS_Ground1
p1351
sg351
F0.20000000000000001
sg352
I00
sba(imapping
Tile
p1352
(dp1353
g347
g355
sg349
VS_Snow
p1354
sg351
F1
sg352
I00
sba(imapping
Tile
p1355
(dp1356
g347
g355
sg349
VS_Snow
p1357
sg351
F1
sg352
I00
sba(imapping
Tile
p1358
(dp1359
g347
g355
sg349
VS_Snow
p1360
sg351
F1
sg352
I00
sbaa(lp1361
NaNaNaNaNaNaNaNa(imapping
Tile
p1362
(dp1363
g347
g355
sg349
VS_Ground1
p1364
sg351
F0.20000000000000001
sg352
I00
sba(imapping
Tile
p1365
(dp1366
g347
g355
sg349
VS_Snow
p1367
sg351
F1
sg352
I00
sba(imapping
Tile
p1368
(dp1369
g347
g355
sg349
VS_Snow
p1370
sg351
F1
sg352
I00
sba(imapping
Tile
p1371
(dp1372
g347
g355
sg349
VS_Snow
p1373
sg351
F1
sg352
I00
sbaa(lp1374
NaNaNaNaNaNaNaNa(imapping
Tile
p1375
(dp1376
g347
g355
sg349
VS_Ground1
p1377
sg351
F0.20000000000000001
sg352
I00
sba(imapping
Tile
p1378
(dp1379
g347
g355
sg349
VS_Snow
p1380
sg351
F1
sg352
I00
sba(imapping
Tile
p1381
(dp1382
g347
g355
sg349
VS_Snow
p1383
sg351
F1
sg352
I00
sba(imapping
Tile
p1384
(dp1385
g347
g355
sg349
VS_Snow
p1386
sg351
F1
sg352
I00
sbaa(lp1387
NaNaNaNaNaNaNaNa(imapping
Tile
p1388
(dp1389
g347
g355
sg349
VS_Ground1
p1390
sg351
F0.20000000000000001
sg352
I00
sba(imapping
Tile
p1391
(dp1392
g347
g355
sg349
VS_Snow
p1393
sg351
F1
sg352
I00
sba(imapping
Tile
p1394
(dp1395
g347
g355
sg349
VS_Snow
p1396
sg351
F1
sg352
I00
sba(imapping
Tile
p1397
(dp1398
g347
g355
sg349
VS_Snow
p1399
sg351
F1
sg352
I00
sbaa(lp1400
NaNaNaNaNaNaNaNa(imapping
Tile
p1401
(dp1402
g347
g355
sg349
VS_Ground1
p1403
sg351
F0.20000000000000001
sg352
I00
sba(imapping
Tile
p1404
(dp1405
g347
g355
sg349
VS_Snow
p1406
sg351
F1
sg352
I00
sba(imapping
Tile
p1407
(dp1408
g347
g355
sg349
VS_Snow
p1409
sg351
F1
sg352
I00
sba(imapping
Tile
p1410
(dp1411
g347
g355
sg349
VS_Snow
p1412
sg351
F1
sg352
I00
sbaa(lp1413
NaNaNaNaNaNaNaNa(imapping
Tile
p1414
(dp1415
g347
g355
sg349
VS_Ground1
p1416
sg351
F0.20000000000000001
sg352
I00
sba(imapping
Tile
p1417
(dp1418
g347
g355
sg349
VS_Snow
p1419
sg351
F1
sg352
I00
sba(imapping
Tile
p1420
(dp1421
g347
g355
sg349
VS_Snow
p1422
sg351
F1
sg352
I00
sba(imapping
Tile
p1423
(dp1424
g347
g355
sg349
VS_Snow
p1425
sg351
F1
sg352
I00
sbaa(lp1426
NaNaNaNaNaNaNaNa(imapping
Tile
p1427
(dp1428
g347
g355
sg349
VS_Ground1
p1429
sg351
F0.20000000000000001
sg352
I00
sba(imapping
Tile
p1430
(dp1431
g347
g355
sg349
VS_Snow
p1432
sg351
F1
sg352
I00
sba(imapping
Tile
p1433
(dp1434
g347
g355
sg349
VS_Snow
p1435
sg351
F1
sg352
I00
sba(imapping
Tile
p1436
(dp1437
g347
g355
sg349
VS_Snow
p1438
sg351
F1
sg352
I00
sbaa(lp1439
NaNaNaNaNaNaNaNa(imapping
Tile
p1440
(dp1441
g347
g355
sg349
VS_Ground1
p1442
sg351
F0.20000000000000001
sg352
I00
sba(imapping
Tile
p1443
(dp1444
g347
g355
sg349
VS_Snow
p1445
sg351
F1
sg352
I00
sba(imapping
Tile
p1446
(dp1447
g347
g355
sg349
VS_Snow
p1448
sg351
F1
sg352
I00
sba(imapping
Tile
p1449
(dp1450
g347
g355
sg349
VS_Snow
p1451
sg351
F1
sg352
I00
sbaa(lp1452
NaNaNaNaNaNaNaNa(imapping
Tile
p1453
(dp1454
g347
g355
sg349
VS_Ground1
p1455
sg351
F0.20000000000000001
sg352
I00
sba(imapping
Tile
p1456
(dp1457
g347
g355
sg349
VS_Snow
p1458
sg351
F1
sg352
I00
sba(imapping
Tile
p1459
(dp1460
g347
g355
sg349
VS_Snow
p1461
sg351
F1
sg352
I00
sba(imapping
Tile
p1462
(dp1463
g347
g355
sg349
VS_Snow
p1464
sg351
F1
sg352
I00
sbaa(lp1465
NaNaNaNaNaNaNaNa(imapping
Tile
p1466
(dp1467
g347
g355
sg349
VS_Ground1
p1468
sg351
F0.20000000000000001
sg352
I00
sba(imapping
Tile
p1469
(dp1470
g347
g355
sg349
VS_Snow
p1471
sg351
F1
sg352
I00
sba(imapping
Tile
p1472
(dp1473
g347
g355
sg349
VS_Snow
p1474
sg351
F1
sg352
I00
sba(imapping
Tile
p1475
(dp1476
g347
g355
sg349
VS_Snow
p1477
sg351
F1
sg352
I00
sbaa(lp1478
NaNaNaNaNaNaNaNa(imapping
Tile
p1479
(dp1480
g347
g355
sg349
VS_Ground1
p1481
sg351
F0.20000000000000001
sg352
I00
sba(imapping
Tile
p1482
(dp1483
g347
g355
sg349
VS_Snow
p1484
sg351
F1
sg352
I00
sba(imapping
Tile
p1485
(dp1486
g347
g355
sg349
VS_Snow
p1487
sg351
F1
sg352
I00
sba(imapping
Tile
p1488
(dp1489
g347
g355
sg349
VS_Snow
p1490
sg351
F1
sg352
I00
sbaa(lp1491
NaNaNaNaNaNaNaNa(imapping
Tile
p1492
(dp1493
g347
g355
sg349
VS_Ground1
p1494
sg351
F0.20000000000000001
sg352
I00
sba(imapping
Tile
p1495
(dp1496
g347
g355
sg349
VS_Snow
p1497
sg351
F1
sg352
I00
sba(imapping
Tile
p1498
(dp1499
g347
g355
sg349
VS_Snow
p1500
sg351
F1
sg352
I00
sba(imapping
Tile
p1501
(dp1502
g347
g355
sg349
VS_Snow
p1503
sg351
F1
sg352
I00
sbaa(lp1504
NaNaNaNaNaNaNaNa(imapping
Tile
p1505
(dp1506
g347
g355
sg349
VS_Ground1
p1507
sg351
F0.20000000000000001
sg352
I00
sba(imapping
Tile
p1508
(dp1509
g347
g355
sg349
VS_Snow
p1510
sg351
F1
sg352
I00
sba(imapping
Tile
p1511
(dp1512
g347
g355
sg349
VS_Snow
p1513
sg351
F1
sg352
I00
sba(imapping
Tile
p1514
(dp1515
g347
g355
sg349
VS_Snow
p1516
sg351
F1
sg352
I00
sbaa(lp1517
NaNaNaNaNaNaNaNa(imapping
Tile
p1518
(dp1519
g347
g355
sg349
VS_Ground1
p1520
sg351
F0.20000000000000001
sg352
I00
sba(imapping
Tile
p1521
(dp1522
g347
g355
sg349
VS_Snow
p1523
sg351
F1
sg352
I00
sba(imapping
Tile
p1524
(dp1525
g347
g355
sg349
VS_Snow
p1526
sg351
F1
sg352
I00
sba(imapping
Tile
p1527
(dp1528
g347
g355
sg349
VS_Snow
p1529
sg351
F1
sg352
I00
sbaa(lp1530
NaNaNaNaNaNaNaNa(imapping
Tile
p1531
(dp1532
g347
g355
sg349
VS_Ground1
p1533
sg351
F0.20000000000000001
sg352
I00
sba(imapping
Tile
p1534
(dp1535
g347
g355
sg349
VS_Snow
p1536
sg351
F1
sg352
I00
sba(imapping
Tile
p1537
(dp1538
g347
g355
sg349
VS_Snow
p1539
sg351
F1
sg352
I00
sba(imapping
Tile
p1540
(dp1541
g347
g355
sg349
VS_Snow
p1542
sg351
F1
sg352
I00
sbaa(lp1543
NaNaNaNaNaNaNaNa(imapping
Tile
p1544
(dp1545
g347
g355
sg349
VS_Ground1
p1546
sg351
F0.20000000000000001
sg352
I00
sba(imapping
Tile
p1547
(dp1548
g347
g355
sg349
VS_Snow
p1549
sg351
F1
sg352
I00
sba(imapping
Tile
p1550
(dp1551
g347
g355
sg349
VS_Snow
p1552
sg351
F1
sg352
I00
sba(imapping
Tile
p1553
(dp1554
g347
g355
sg349
VS_Snow
p1555
sg351
F1
sg352
I00
sbaa(lp1556
NaNaNaNaNaNaNaNa(imapping
Tile
p1557
(dp1558
g347
g355
sg349
VS_Ground1
p1559
sg351
F0.20000000000000001
sg352
I00
sba(imapping
Tile
p1560
(dp1561
g347
g355
sg349
VS_Snow
p1562
sg351
F1
sg352
I00
sba(imapping
Tile
p1563
(dp1564
g347
g355
sg349
VS_Snow
p1565
sg351
F1
sg352
I00
sba(imapping
Tile
p1566
(dp1567
g347
g355
sg349
VS_Snow
p1568
sg351
F1
sg352
I00
sbaa(lp1569
NaNaNaNaNaNaNaNa(imapping
Tile
p1570
(dp1571
g347
g355
sg349
VS_Ground1
p1572
sg351
F0.20000000000000001
sg352
I00
sba(imapping
Tile
p1573
(dp1574
g347
g355
sg349
VS_Snow
p1575
sg351
F1
sg352
I00
sba(imapping
Tile
p1576
(dp1577
g347
g355
sg349
VS_Snow
p1578
sg351
F1
sg352
I00
sba(imapping
Tile
p1579
(dp1580
g347
g355
sg349
VS_Snow
p1581
sg351
F1
sg352
I00
sbaa(lp1582
NaNaNaNaNaNaNaNaNaNaNaNaa(lp1583
NaNaNaNaNaNaNaNaNaNaNaNaa(lp1584
NaNaNaNaNaNaNaNaNaNaNaNaa(lp1585
NaNaNaNaNaNaNaNaNaNaNaNaa(lp1586
NaNaNaNaNaNaNaNaNaNaNaNaa(lp1587
NaNaNaNaNaNaNaNaNaNaNaNaa(lp1588
NaNaNaNaNaNaNaNaNaNaNaNaa(lp1589
NaNaNaNaNaNaNaNaNaNaNaNaa(lp1590
NaNaNaNaNaNaNaNaNaNaNaNaasS'bgmusic'
p1591
VSnodom.ogg
p1592
sS'theme'
p1593
VSnow
p1594
sS'endef'
p1595
(dp1596
VBoss_Radkelu
p1597
Vboss_radkelu
p1598
sVCSpider
p1599
Vcspider
p1600
sVSnowOgre
p1601
Vsnowogre
p1602
sVWasp
p1603
Vwasp
p1604
sVPoisPod
p1605
Vpoispod
p1606
sVSpider
p1607
Vspider
p1608
sVSnowBat
p1609
Vsnowbat
p1610
sVWorm
p1611
Vworm
p1612
sVGiantJelly
p1613
Vgiantjelly
p1614
sVPod
p1615
Vpod
p1616
sVGiantWorm
p1617
Vgiantworm
p1618
ssS'tiledef'
p1619
(dp1620
VS_bLRamp
p1621
Vsnow_blramp.png
p1622
sViC_Ice
p1623
Vcaveice.png
p1624
sVF_Dirt_R2
p1625
Vdirtr_edge2.png
p1626
sVF_Dirt_R1
p1627
Vdirtr_edge1.png
p1628
sVS_Railing_1
p1629
Vsnow_railing1.png
p1630
sVS_Railing_2
p1631
Vsnow_railing2.png
p1632
sVC_Suit of Armour
p1633
Vsuit_armour.png
p1634
sVS_UCleft
p1635
Vsnow_undercorner_left.png
p1636
sVF_Right_Halframp1
p1637
VR_HR1.png
p1638
sVF_Right_Halframp2
p1639
VR_HR2.png
p1640
sVF_GrassRedge
p1641
Vgrassr_edge.png
p1642
sVS_ECleft
p1643
Vsnow_edgecorner_left.png
p1644
sViC_wr2
p1645
Vcavewr2.png
p1646
sVF_Tuft1
p1647
Vtuft1.png
p1648
sVF_Tuft2
p1649
Vtuft2.png
p1650
sVS_Tree
p1651
Vsnow_tree.png
p1652
sVF_Grass
p1653
Vgrass.png
p1654
sVS_Railing_L
p1655
Vsnow_railing_left.png
p1656
sVC_Castle HRR
p1657
Vcstl_hr_r.png
p1658
sVS_RRamp
p1659
Vsnow_rramp.png
p1660
sVC_Castle HRL
p1661
Vcstl_hr_l.png
p1662
sVS_Pillar
p1663
Vsnow_pillar.png
p1664
sVS_Railing_R
p1665
Vsnow_railing_right.png
p1666
sVS_Tree2
p1667
Vsnow_tree2.png
p1668
sVS_Ground1
p1669
Vsnow_ground1.png
p1670
sVF_Stump
p1671
Vtreestump.png
p1672
sVC_Castle Ground 2
p1673
Vcstl_ground2.png
p1674
sVC_Castle Ground 3
p1675
Vcstl_ground3.png
p1676
sVC_Castle Ground 1
p1677
Vcstl_ground1.png
p1678
sVS_Snow2
p1679
Vsnow_snow2.png
p1680
sVF_Grass_Alt_5
p1681
Vgrassc5.png
p1682
sViC_jl
p1683
Vcavejl.png
p1684
sVS_bRRamp
p1685
Vsnow_brramp.png
p1686
sViC_TopL
p1687
Vcavetl.png
p1688
sViC_Floor 1
p1689
Vcavefloor1.png
p1690
sViC_Floor 3
p1691
Vcavefloor3.png
p1692
sViC_Floor 2
p1693
Vcavefloor2.png
p1694
sViC_TopR
p1695
Vcavetr.png
p1696
sViC_jr
p1697
Vcavejr.png
p1698
sVC_Castle Floor 2
p1699
Vcstl_floor2.png
p1700
sVS_Snow
p1701
Vsnow_snow.png
p1702
sVF_Grass_Alt_2
p1703
Vgrassc2.png
p1704
sVF_ExitSign
p1705
Vexitsign.png
p1706
sVF_Grass->Dirttop
p1707
Vgrassmdirt.png
p1708
sVS_UCright
p1709
Vsnow_undercorner_right.png
p1710
sVS_Pillartop
p1711
Vsnow_pillartop.png
p1712
sViC_wr
p1713
Vcavewr.png
p1714
sVF_Dirttop->Grass
p1715
Vdirtmgrass.png
p1716
sVS_ECright
p1717
Vsnow_edgecorner_right.png
p1718
sVC_Castle HRmL
p1719
Vcstl_hr_m_l.png
p1720
sVC_Castle Wall L
p1721
Vcstl_wleft.png
p1722
sVC_Castle Wall R
p1723
Vcstl_wright.png
p1724
sVC_Castle HRmR
p1725
Vcstl_hr_m_r.png
p1726
sVF_Ice
p1727
Vtile5.png
p1728
sViC_wl
p1729
Vcavewl.png
p1730
sVC_Castle Floor 4
p1731
Vcstl_floor4.png
p1732
sVF_Grass_Alt_4
p1733
Vgrassc4.png
p1734
sVF_Grass_Alt_1
p1735
Vgrassc1.png
p1736
sVC_Castle Floor 1
p1737
Vcstl_floor1.png
p1738
sVF_Grass_Alt_3
p1739
Vgrassc3.png
p1740
sVC_Castle Floor 3
p1741
Vcstl_floor3.png
p1742
sVS_edgewleft1
p1743
Vsnow_edgewall_left1.png
p1744
sVS_edgewleft2
p1745
Vsnow_edgewall_left2.png
p1746
sVS_UCJright
p1747
Vsnow_undercorner_join_right.png
p1748
sVS_LRamp
p1749
Vsnow_lramp.png
p1750
sVC_Castle Floor Edge R
p1751
Vcstl_floor_edge_right.png
p1752
sVF_Dirt_L1
p1753
Vdirtl_edge1.png
p1754
sVF_Dirt_L2
p1755
Vdirtl_edge2.png
p1756
sVC_Castle Floor Edge L
p1757
Vcstl_floor_edge_left.png
p1758
sVF_Left_Halframp2
p1759
VL_HR2.png
p1760
sVF_Left_Halframp1
p1761
VL_HR1.png
p1762
sVF_Shrooms2
p1763
Vshrooms2.png
p1764
sVF_Shrooms3
p1765
Vshrooms3.png
p1766
sVF_Shrooms1
p1767
Vshrooms1.png
p1768
sVF_RampJoinL
p1769
Vramp_mid_dirt_l.png
p1770
sVC_Castle Wall->Floor R
p1771
Vcstl_wfright.png
p1772
sVF_RampJoinR
p1773
Vramp_mid_dirt_r.png
p1774
sVF_GrassLedge
p1775
Vgrassl_edge.png
p1776
sVS_Stones
p1777
Vsnow_stones.png
p1778
sVS_edgeright
p1779
Vsnow_edge_right.png
p1780
sVS_edgewright2
p1781
Vsnow_edgewall_right2.png
p1782
sVS_edgewright1
p1783
Vsnow_edgewall_right1.png
p1784
sVF_Dirtb
p1785
Vdirtb.png
p1786
sVF_Right_Ramp
p1787
VR_R.png
p1788
sVF_HalframpJoinL
p1789
Vhalframp_mid_dirt_l.png
p1790
sVF_Dirt_BL
p1791
Vdirtl_bedge.png
p1792
sVF_HalframpJoinR
p1793
Vhalframp_mid_dirt_r.png
p1794
sVF_Dirt_BR
p1795
Vdirtr_bedge.png
p1796
sVF_Dirtb2
p1797
Vdirtb2.png
p1798
sVF_Left_Ramp
p1799
VL_R.png
p1800
sVC_Castle Wall->Floor L
p1801
Vcstl_wfleft.png
p1802
sVS_UCJleft
p1803
Vsnow_undercorner_join_left.png
p1804
sVF_Dirt
p1805
Vdirt.png
p1806
sVF_Grass->DirtL
p1807
Vgrass_dirt_l.png
p1808
sVS_edgeleft
p1809
Vsnow_edge_left.png
p1810
sVF_Dirttop
p1811
Vdirttop.png
p1812
sVF_Dirt_Alt_4
p1813
Vdirtc4.png
p1814
sVF_Dirt_Alt_3
p1815
Vdirtc3.png
p1816
sVF_Dirt_Alt_2
p1817
Vdirtc2.png
p1818
sVF_Dirt_Alt_1
p1819
Vdirtc1.png
p1820
sVF_Grass->DirtR
p1821
Vgrass_dirt_r.png
p1822
sViC_wl2
p1823
Vcavewl2.png
p1824
ssb.