(imapping
Map
p1
(dp2
S'enemy'
p3
(lp4
(lp5
NaNaNaNaNaNaNaNaNaNaNaNaa(lp6
NaNaNaNaNaNaVPoisPod
p7
aNaNaNaNaNaa(lp8
NaNaNaNaNaNaNaNaNaNaNaNaa(lp9
NaNaNaNaNaNaNaNaNaNaNaNaa(lp10
NaNaNaNaNaNaNaNaNaNaNaNaa(lp11
NaNaNaNaNaNaNaNaNaNaNaNaa(lp12
NaNaNaNaNaNaNaNaNaNaNaNaa(lp13
NaNaNaNaNaNaNaNaNaNaNaNaa(lp14
NaNaNaNaNaNaNaNaNaNaNaNaa(lp15
NaNaNaNaNaNaNaNaNaNaNaNaa(lp16
NaNaNaNaNaNaNaNaNaNaNaNaa(lp17
NaNaNaNaNaNaNaNaNaNaNaNaa(lp18
NaNaNaNaNaNaNaNaNaNaNaNaa(lp19
NaNaNaNaNaNaNaNaNaNaNaNaa(lp20
NaNaNaNaNaNaNaVWorm
p21
aNaNaNaNaa(lp22
NaNaNaNaNaNaNaNaNaNaNaNaa(lp23
NaNaNaNaNaNaVWasp
p24
aNaNaNaNaNaa(lp25
NaNaNaNaNaNaNaNaNaNaNaNaa(lp26
NaNaNaNaNaNaNaNaNaNaNaNaa(lp27
NaNaNaNaNaNaNaNaNaNaNaNaa(lp28
NaNaNaNaNaNaNaNaNaNaNaNaa(lp29
NaNaNaNaNaNaNaNaNaNaNaNaa(lp30
NaNaNaNaNaNaNaNaNaNaNaNaa(lp31
NaNaNaNaNaNaNaNaNaNaNaNaa(lp32
NaNaNaNaNaNaNaNaNaNaNaNaa(lp33
NaNaNaNaNaNaNaNaVWorm
p34
aNaNaNaa(lp35
NaNaNaNaVSnowBat
p36
aNaNaNaNaNaNaNaa(lp37
NaNaNaNaNaNaNaNaNaNaNaNaa(lp38
NaNaNaNaNaNaNaVSnowBat
p39
aNaNaNaNaa(lp40
NaNaNaNaNaNaNaNaNaNaNaNaa(lp41
NaNaNaNaNaNaNaNaNaNaNaNaa(lp42
NaNaNaNaNaNaNaNaNaNaNaNaa(lp43
NaNaNaNaNaNaNaNaNaNaNaNaa(lp44
NaNaNaNaNaNaNaNaNaNaNaNaa(lp45
NaNaNaNaNaNaNaNaNaNaNaNaa(lp46
NaNaNaNaNaNaNaNaNaNaNaNaa(lp47
NaNaNaNaNaNaNaNaNaNaNaNaa(lp48
NaNaNaNaNaNaNaNaVPod
p49
aNaNaNaa(lp50
NaNaNaNaNaVSnowBat
p51
aNaNaNaNaNaNaa(lp52
NaNaNaNaNaNaNaNaVPod
p53
aNaNaNaa(lp54
NaNaNaNaNaNaNaNaNaNaNaNaa(lp55
NaNaNaNaNaNaNaNaNaNaNaNaa(lp56
NaNaNaNaNaNaNaNaNaNaNaNaa(lp57
NaNaNaNaNaNaNaNaNaNaNaNaa(lp58
NaNaNaNaVWorm
p59
aNaNaNaNaNaNaNaa(lp60
NaNaNaNaNaNaNaNaNaNaNaNaa(lp61
NaNaNaNaNaNaNaNaNaNaNaNaa(lp62
NaNaNaNaNaNaNaNaNaNaNaNaa(lp63
NaNaNaNaVGiantJelly
p64
aNaNaNaNaNaNaNaa(lp65
NaNaNaNaNaNaNaNaNaNaNaNaa(lp66
NaNaNaNaNaNaNaNaNaNaNaNaa(lp67
NaNaNaNaNaNaNaNaNaNaNaNaa(lp68
NaNaNaNaNaNaNaNaNaNaNaNaa(lp69
NaNaNaNaNaNaNaNaNaNaNaNaa(lp70
NaNaNaNaNaNaNaNaNaNaNaNaa(lp71
NaNaNaNaNaNaNaNaNaNaNaNaa(lp72
NaNaNaNaNaNaNaNaNaNaNaNaa(lp73
NaNaNaNaNaNaNaNaNaNaNaNaa(lp74
NaNaNaNaNaNaNaNaNaNaNaNaa(lp75
NaNaNaNaNaNaNaNaNaNaNaNaa(lp76
NaNaNaNaNaNaNaNaNaNaNaNaa(lp77
NaNaNaNaNaNaNaNaNaNaNaNaa(lp78
NaNaNaNaNaNaNaNaNaNaNaNaa(lp79
NaNaNaNaNaNaVSnowBat
p80
aNaNaNaNaNaa(lp81
NaNaNaNaNaNaNaNaNaNaNaNaa(lp82
NaNaNaNaNaNaNaNaNaNaNaNaa(lp83
NaNaNaNaNaNaNaNaNaNaNaNaa(lp84
NaNaNaNaNaNaNaNaNaNaNaNaa(lp85
NaNaNaNaNaNaNaNaNaNaNaNaa(lp86
NaNaNaNaNaNaNaNaNaNaNaNaa(lp87
NaNaNaNaNaNaNaNaNaNaNaNaa(lp88
NaNaNaNaNaNaNaNaNaNaNaNaa(lp89
NaNaNaNaNaNaNaNaNaNaNaNaa(lp90
NaNaNaNaNaNaNaNaNaNaNaNaa(lp91
NaNaNaNaNaNaNaNaNaNaNaNaa(lp92
NaNaNaNaNaNaNaNaNaNaNaNaa(lp93
NaNaNaNaNaNaNaNaNaNaNaNaa(lp94
NaNaNaNaNaNaNaNaNaNaNaNaa(lp95
NaNaNaNaNaNaNaNaNaNaNaNaa(lp96
NaNaNaNaNaNaNaNaNaNaNaNaa(lp97
NaNaNaNaNaNaNaNaNaNaNaNaa(lp98
NaNaNaNaNaNaNaNaNaNaNaNaa(lp99
NaNaNaNaNaNaNaNaNaNaNaNaa(lp100
NaNaNaNaNaNaNaNaNaNaNaNaa(lp101
NaNaNaNaNaNaNaNaNaNaNaNaa(lp102
NaNaNaNaNaNaNaNaNaNaNaNaa(lp103
NaNaNaNaNaNaNaNaNaNaNaNaa(lp104
NaNaNaNaNaNaNaNaNaNaNaNaa(lp105
NaNaNaNaNaNaNaNaNaNaNaNaa(lp106
NaNaNaNaNaNaNaNaNaNaNaNaa(lp107
NaNaNaNaNaNaNaNaNaNaNaNaa(lp108
NaNaNaNaNaNaNaNaNaNaVGiantWorm
p109
aNaa(lp110
NaNaNaNaNaNaNaNaNaNaNaNaa(lp111
NaNaNaNaNaNaNaNaNaNaNaNaa(lp112
NaNaNaNaNaNaNaNaNaNaNaNaa(lp113
NaNaNaNaNaNaNaNaNaNaNaNaa(lp114
NaNaNaNaNaNaNaNaNaNaNaNaa(lp115
NaNaNaNaNaNaNaNaNaNaNaNaa(lp116
NaNaNaNaNaNaNaNaNaNaNaNaa(lp117
NaNaNaNaNaNaNaNaNaNaNaNaa(lp118
NaNaNaNaNaNaNaNaNaNaNaNaa(lp119
NaNaNaNaNaNaNaNaNaNaNaNaa(lp120
NaNaNaNaNaNaNaNaNaNaNaNaa(lp121
NaNaNaNaNaNaNaNaNaNaNaNaa(lp122
NaNaNaNaNaNaNaNaNaNaNaNaa(lp123
NaNaNaNaNaNaNaNaNaNaNaNaa(lp124
NaNaNaNaNaNaNaNaNaNaNaNaa(lp125
NaNaNaNaNaNaNaNaNaNaNaNaa(lp126
NaNaNaNaNaNaNaNaNaNaNaNaa(lp127
NaNaNaNaNaNaNaNaNaNaNaNaa(lp128
NaNaNaNaNaNaNaNaNaNaNaNaa(lp129
NaNaNaNaNaNaNaNaNaNaNaNaa(lp130
NaNaNaNaNaNaNaNaNaNaNaNaa(lp131
NaNaNaNaNaNaNaNaNaNaNaNaa(lp132
NaNaNaNaNaNaNaNaNaNaNaNaa(lp133
NaNaNaNaNaNaNaNaNaNaNaNaa(lp134
NaNaNaNaNaNaNaNaNaNaNaNaa(lp135
NaNaNaNaNaNaNaNaNaNaNaNaa(lp136
NaNaNaNaNaNaNaNaNaNaNaNaa(lp137
NaNaNaNaNaNaNaNaNaNaNaNaa(lp138
NaNaNaNaNaNaNaNaNaNaNaNaa(lp139
NaNaNaNaNaNaNaNaNaNaNaNaa(lp140
NaNaNaNaNaNaNaNaNaNaNaNaa(lp141
NaNaNaNaNaNaNaNaNaNaNaNaa(lp142
NaNaNaNaNaNaNaNaNaNaNaNaa(lp143
NaNaNaNaNaNaNaNaNaNaNaNaa(lp144
NaNaNaNaNaNaNaNaNaNaNaNaa(lp145
NaNaNaNaNaNaNaNaNaNaNaNaasS'objdef'
p146
(dp147
VButterfly
p148
VButterfly.png
p149
sVLevel_End
p150
VEnd.png
p151
sVShield
p152
VShield.png
p153
sVPlayer_Start
p154
VStart.png
p155
sVLever_Snow
p156
VLever1.png
p157
sVTorchref
p158
VTorchref.png
p159
sVWalltorch
p160
VWalltorch.png
p161
sVFirepit
p162
VPit.png
p163
sVSign
p164
VSign.png
p165
sVButterflyC
p166
VButterflyC.png
p167
sVButterflyB
p168
VButterflyB.png
p169
sVSword
p170
VSword.png
p171
sVTreasureBoxC
p172
VTreasureC_Closed.png
p173
sVTreasureBoxB
p174
VTreasureB_Closed.png
p175
sVTreasureBox
p176
VTreasure_Closed.png
p177
sVFallingRock
p178
VRock.png
p179
sVObelisk_Snow
p180
VObelisk_Snow.png
p181
ssS'obj'
p182
(lp183
(lp184
NaNaNaNaNaNaNaNaNaNaNaNaa(lp185
NaNaNaNaNaNaNaNaNaNaNaNaa(lp186
NaNaNaNaNaNaNaNaNaNaNaNaa(lp187
NaNaNaNaNaNaVPlayer_Start
p188
aNaNaNaNaNaa(lp189
NaNaNaNaNaNaNaNaNaNaNaNaa(lp190
NaNaNaNaNaVButterfly
p191
aNaNaNaNaNaNaa(lp192
NaNaNaNaNaNaNaNaNaNaNaNaa(lp193
NaNaNaNaNaNaNaNaNaNaNaNaa(lp194
NaNaNaNaNaNaNaNaNaNaNaNaa(lp195
NaNaNaNaNaNaNaNaNaNaNaNaa(lp196
NaNaNaNaNaNaNaNaNaNaNaNaa(lp197
NaNaNaNaNaNaNaNaNaNaNaNaa(lp198
NaNaNaNaNaNaNaNaNaNaNaNaa(lp199
NaNaNaNaNaNaNaNaNaNaNaNaa(lp200
NaNaNaNaNaNaNaNaNaNaNaNaa(lp201
NaNaNaNaNaNaNaNaNaNaNaNaa(lp202
NaNaNaNaNaNaNaNaNaNaNaNaa(lp203
NaNaNaNaNaNaNaNaNaNaNaNaa(lp204
NaNaNaNaNaNaNaNaNaNaNaNaa(lp205
NaNaNaNaNaNaNaNaNaNaNaNaa(lp206
NaNaNaNaNaNaNaNaNaNaNaNaa(lp207
NaNaNaNaNaNaNaNaNaNaNaNaa(lp208
NaNaNaNaNaNaVButterfly
p209
aNaNaNaNaNaa(lp210
NaNaNaNaNaNaNaNaNaNaNaNaa(lp211
NaNaNaNaNaNaNaNaNaNaNaNaa(lp212
NaNaNaNaNaNaNaNaNaNaNaNaa(lp213
NaNaNaNaNaNaNaNaNaNaNaNaa(lp214
NaNaNaNaNaNaNaNaNaNaNaNaa(lp215
NaNaNaNaNaNaNaNaNaNaNaNaa(lp216
NaNaNaNaNaNaNaNaNaNaNaNaa(lp217
NaNaNaNaNaNaNaNaNaNaNaNaa(lp218
NaNaNaNaNaNaNaNaNaNaNaNaa(lp219
NaNaNaNaNaNaNaNaNaNaNaNaa(lp220
NaNaNaNaNaNaNaNaNaNaNaNaa(lp221
NaNaNaNaNaNaNaNaNaNaNaNaa(lp222
NaNaNaNaNaNaNaNaNaNaNaNaa(lp223
NaNaNaNaNaNaNaNaNaNaNaNaa(lp224
NaNaNaNaNaNaNaNaNaNaNaNaa(lp225
NaNaNaNaNaNaNaNaNaNaNaNaa(lp226
NaNaNaNaNaNaNaNaNaNaNaNaa(lp227
NaNaNaNaNaNaNaNaNaNaNaNaa(lp228
NaNaNaNaNaNaNaNaNaNaNaNaa(lp229
NaNaNaNaNaNaNaNaNaNaNaNaa(lp230
NaNaNaNaNaNaNaNaNaNaNaNaa(lp231
NaNaNaNaNaNaNaNaNaNaNaNaa(lp232
NaNaNaNaNaNaNaNaNaNaNaNaa(lp233
NaNaNaNaNaNaNaNaNaNaNaNaa(lp234
NaNaNaNaNaNaNaNaNaNaNaNaa(lp235
NaNaNaNaNaNaNaNaNaNaNaNaa(lp236
NaNaNaNaNaNaNaNaNaNaNaNaa(lp237
NaNaNaNaNaNaNaNaNaNaNaNaa(lp238
NaNaNaNaNaNaNaNaNaNaNaNaa(lp239
NaNaNaNaNaNaNaNaNaNaNaNaa(lp240
NaNaNaNaNaNaNaNaNaNaNaNaa(lp241
NaNaNaNaNaNaNaNaNaVFirepit
p242
aNaNaa(lp243
NaNaNaNaNaNaNaNaNaVFirepit
p244
aNaNaa(lp245
NaNaNaNaNaNaNaNaNaNaNaNaa(lp246
NaNaNaNaVObelisk_Snow
p247
aNaNaNaNaNaNaNaa(lp248
NaNaNaNaNaNaNaNaNaNaNaNaa(lp249
NaNaNaNaNaNaNaNaNaNaNaNaa(lp250
NaNaNaNaNaNaNaNaNaNaNaNaa(lp251
NaNaNaNaNaNaNaNaNaNaNaNaa(lp252
NaNaNaNaNaNaNaNaNaNaNaNaa(lp253
NaNaNaNaNaNaNaNaNaNaNaNaa(lp254
NaNaNaNaNaNaNaNaNaNaNaNaa(lp255
NaNaNaNaNaNaNaNaNaNaNaNaa(lp256
NaNaNaNaNaNaNaNaNaNaNaNaa(lp257
NaNaNaNaNaNaNaNaNaNaNaNaa(lp258
NaNaNaNaNaNaNaNaNaNaNaNaa(lp259
NaNaNaNaNaNaNaNaNaNaNaNaa(lp260
NaNaNaNaNaNaNaNaNaNaNaNaa(lp261
NaNaNaNaNaNaNaNaNaNaNaNaa(lp262
NaNaNaNaNaNaNaNaNaNaNaNaa(lp263
NaNaNaNaNaNaNaNaNaNaNaNaa(lp264
NaNaNaNaNaNaNaNaNaNaNaNaa(lp265
NaNaNaNaNaNaNaNaNaNaNaNaa(lp266
NaNaNaNaNaNaNaNaNaNaNaNaa(lp267
NaNaNaNaNaNaNaNaNaNaNaNaa(lp268
NaNaNaNaNaNaNaNaNaNaNaNaa(lp269
NaNaNaNaNaNaNaNaNaVButterfly
p270
aNaNaa(lp271
NaNaNaNaNaNaNaNaNaNaNaNaa(lp272
NaNaNaNaNaNaNaNaNaNaNaNaa(lp273
NaNaNaNaNaNaNaNaNaNaNaNaa(lp274
NaNaNaNaNaNaNaNaNaNaNaNaa(lp275
NaNaNaNaNaNaNaNaNaNaNaNaa(lp276
NaNaNaNaNaNaNaNaNaNaNaNaa(lp277
NaNaNaNaNaNaNaNaNaNaNaNaa(lp278
NaNaNaNaNaNaNaNaNaNaNaNaa(lp279
NaNaNaNaNaNaNaNaNaNaNaNaa(lp280
NaNaNaNaNaNaNaNaNaNaNaNaa(lp281
NaNaNaNaNaNaNaNaNaNaNaNaa(lp282
NaNaNaNaNaNaNaNaNaNaNaNaa(lp283
NaNaNaNaNaNaNaNaNaNaNaNaa(lp284
NaNaNaNaNaNaNaNaNaNaNaNaa(lp285
NaNaNaNaNaNaNaNaNaNaNaNaa(lp286
NaNaNaNaNaNaNaNaNaNaNaNaa(lp287
NaNaNaNaNaNaNaNaNaNaNaNaa(lp288
NaNaNaNaNaNaNaNaVTreasureBoxC
p289
aNaNaNaa(lp290
NaNaNaNaNaNaNaNaNaNaNaNaa(lp291
NaNaNaNaNaNaNaNaNaNaNaNaa(lp292
NaNaNaNaNaNaNaNaNaNaNaNaa(lp293
NaNaNaNaNaNaNaNaNaNaVLevel_End
p294
aNaa(lp295
NaNaNaNaNaNaNaNaNaNaNaNaa(lp296
NaNaNaNaNaNaNaNaNaNaNaNaa(lp297
NaNaNaNaNaNaNaNaNaNaNaNaa(lp298
NaNaNaNaNaNaNaNaNaNaNaNaa(lp299
NaNaNaNaNaNaNaNaNaNaNaNaa(lp300
NaNaNaNaNaNaNaNaNaNaNaNaa(lp301
NaNaNaNaNaNaNaNaNaNaNaNaa(lp302
NaNaNaNaNaNaNaNaNaNaNaNaa(lp303
NaNaNaNaNaNaNaNaNaNaNaNaa(lp304
NaNaNaNaNaNaNaNaNaNaNaNaa(lp305
NaNaNaNaNaNaNaNaNaNaNaNaa(lp306
NaNaNaNaNaNaNaNaNaNaNaNaa(lp307
NaNaNaNaNaNaNaNaNaNaNaNaa(lp308
NaNaNaNaNaNaNaNaNaNaNaNaa(lp309
NaNaNaNaNaNaNaNaNaNaNaNaa(lp310
NaNaNaNaNaNaNaNaNaNaNaNaa(lp311
NaNaNaNaNaNaNaNaNaNaNaNaa(lp312
NaNaNaNaNaNaNaNaNaNaNaNaa(lp313
NaNaNaNaNaNaNaNaNaNaNaNaa(lp314
NaNaNaNaNaNaNaNaNaNaNaNaa(lp315
NaNaNaNaNaNaNaNaNaNaNaNaa(lp316
NaNaNaNaNaNaNaNaNaNaNaNaa(lp317
NaNaNaNaNaNaNaNaNaNaNaNaa(lp318
NaNaNaNaNaNaNaNaNaNaNaNaa(lp319
NaNaNaNaNaNaNaNaNaNaNaNaa(lp320
NaNaNaNaNaNaNaNaNaNaNaNaasS'name'
p321
VAnother snowy level
p322
sS'map'
p323
(lp324
(lp325
NaNaNaNaNaNa(imapping
Tile
p326
(dp327
S'collidetype'
p328
S'LEFT_INCLINATION'
p329
sS'type'
p330
VS_LRamp
p331
sS'friction'
p332
F0.20000000000000001
sS'overhead'
p333
I00
sba(imapping
Tile
p334
(dp335
g328
S'BOX'
p336
sg330
VS_bLRamp
p337
sg332
F0.20000000000000001
sg333
I00
sba(imapping
Tile
p338
(dp339
g328
g336
sg330
VS_Snow
p340
sg332
F1
sg333
I00
sba(imapping
Tile
p341
(dp342
g328
g336
sg330
VS_Snow2
p343
sg332
F1
sg333
I00
sba(imapping
Tile
p344
(dp345
g328
g336
sg330
VS_Snow
p346
sg332
F1
sg333
I00
sba(imapping
Tile
p347
(dp348
g328
g336
sg330
VS_Snow
p349
sg332
F1
sg333
I00
sbaa(lp350
NaNaNaNaNaNaNa(imapping
Tile
p351
(dp352
g328
g336
sg330
VS_Ground1
p353
sg332
F0.20000000000000001
sg333
I00
sba(imapping
Tile
p354
(dp355
g328
g336
sg330
VS_Snow
p356
sg332
F1
sg333
I00
sba(imapping
Tile
p357
(dp358
g328
g336
sg330
VS_Snow
p359
sg332
F1
sg333
I00
sba(imapping
Tile
p360
(dp361
g328
g336
sg330
VS_Snow2
p362
sg332
F1
sg333
I00
sba(imapping
Tile
p363
(dp364
g328
g336
sg330
VS_Snow2
p365
sg332
F1
sg333
I00
sbaa(lp366
NaNaNaNaNaNaNa(imapping
Tile
p367
(dp368
g328
g336
sg330
VS_Ground1
p369
sg332
F0.20000000000000001
sg333
I00
sba(imapping
Tile
p370
(dp371
g328
g336
sg330
VS_Snow
p372
sg332
F1
sg333
I00
sba(imapping
Tile
p373
(dp374
g328
g336
sg330
VS_Snow2
p375
sg332
F1
sg333
I00
sba(imapping
Tile
p376
(dp377
g328
g336
sg330
VS_Snow2
p378
sg332
F1
sg333
I00
sba(imapping
Tile
p379
(dp380
g328
g336
sg330
VS_Snow
p381
sg332
F1
sg333
I00
sbaa(lp382
NaNaNaNaNaNaNa(imapping
Tile
p383
(dp384
g328
g336
sg330
VS_Ground1
p385
sg332
F0.20000000000000001
sg333
I00
sba(imapping
Tile
p386
(dp387
g328
g336
sg330
VS_Snow
p388
sg332
F1
sg333
I00
sba(imapping
Tile
p389
(dp390
g328
g336
sg330
VS_Snow2
p391
sg332
F1
sg333
I00
sba(imapping
Tile
p392
(dp393
g328
g336
sg330
VS_Snow2
p394
sg332
F1
sg333
I00
sba(imapping
Tile
p395
(dp396
g328
g336
sg330
VS_Snow
p397
sg332
F1
sg333
I00
sbaa(lp398
NaNaNaNaNaNa(imapping
Tile
p399
(dp400
g328
S'NONE'
p401
sg330
VF_Shrooms2
p402
sg332
F1
sg333
I00
sba(imapping
Tile
p403
(dp404
g328
g336
sg330
VS_Ground1
p405
sg332
F0.20000000000000001
sg333
I00
sba(imapping
Tile
p406
(dp407
g328
g336
sg330
VS_Snow2
p408
sg332
F1
sg333
I00
sba(imapping
Tile
p409
(dp410
g328
g336
sg330
VS_Snow
p411
sg332
F1
sg333
I00
sba(imapping
Tile
p412
(dp413
g328
g336
sg330
VS_Snow2
p414
sg332
F1
sg333
I00
sba(imapping
Tile
p415
(dp416
g328
g336
sg330
VS_Snow2
p417
sg332
F1
sg333
I00
sbaa(lp418
NaNaNaNaNaNa(imapping
Tile
p419
(dp420
g328
g401
sg330
VS_Tree2
p421
sg332
F1
sg333
I00
sba(imapping
Tile
p422
(dp423
g328
g336
sg330
VS_Ground1
p424
sg332
F0.20000000000000001
sg333
I00
sba(imapping
Tile
p425
(dp426
g328
g336
sg330
VS_Snow
p427
sg332
F1
sg333
I00
sba(imapping
Tile
p428
(dp429
g328
g336
sg330
VS_Snow
p430
sg332
F1
sg333
I00
sba(imapping
Tile
p431
(dp432
g328
g336
sg330
VS_Snow
p433
sg332
F1
sg333
I00
sba(imapping
Tile
p434
(dp435
g328
g336
sg330
VS_Snow
p436
sg332
F1
sg333
I00
sbaa(lp437
NaNaNaNaNaNaNa(imapping
Tile
p438
(dp439
g328
g336
sg330
VS_Ground1
p440
sg332
F0.20000000000000001
sg333
I00
sba(imapping
Tile
p441
(dp442
g328
g336
sg330
VS_Snow
p443
sg332
F1
sg333
I00
sba(imapping
Tile
p444
(dp445
g328
g336
sg330
VS_Snow
p446
sg332
F1
sg333
I00
sba(imapping
Tile
p447
(dp448
g328
g336
sg330
VS_Snow
p449
sg332
F1
sg333
I00
sba(imapping
Tile
p450
(dp451
g328
g336
sg330
VS_Snow2
p452
sg332
F1
sg333
I00
sbaa(lp453
NaNaNaNaNaNaNa(imapping
Tile
p454
(dp455
g328
g336
sg330
VS_edgeright
p456
sg332
F0.20000000000000001
sg333
I00
sba(imapping
Tile
p457
(dp458
g328
g336
sg330
VS_edgewright1
p459
sg332
F0.20000000000000001
sg333
I00
sba(imapping
Tile
p460
(dp461
g328
g336
sg330
VS_edgewright2
p462
sg332
F0.20000000000000001
sg333
I00
sba(imapping
Tile
p463
(dp464
g328
g336
sg330
VS_edgewright1
p465
sg332
F0.20000000000000001
sg333
I00
sba(imapping
Tile
p466
(dp467
g328
g336
sg330
VS_edgewright2
p468
sg332
F0.20000000000000001
sg333
I00
sbaa(lp469
NaNaNaNaNaNaNaNaNaNaNaNaa(lp470
NaNaNaNaNaNaNaNaNaNaNaNaa(lp471
NaNaNaNaNaNaNaNaNaNaNaNaa(lp472
NaNaNaNaNaNaNaNaNaNa(imapping
Tile
p473
(dp474
g328
g336
sg330
VS_edgeleft
p475
sg332
F0.20000000000000001
sg333
I00
sba(imapping
Tile
p476
(dp477
g328
g336
sg330
VS_edgewleft1
p478
sg332
F1
sg333
I00
sbaa(lp479
NaNaNaNaNaNaNaNaNa(imapping
Tile
p480
(dp481
g328
S'RIGHT_INCLINATION'
p482
sg330
VS_RRamp
p483
sg332
F0.20000000000000001
sg333
I00
sba(imapping
Tile
p484
(dp485
g328
g336
sg330
VS_bRRamp
p486
sg332
F0.20000000000000001
sg333
I00
sba(imapping
Tile
p487
(dp488
g328
g336
sg330
VS_Snow
p489
sg332
F1
sg333
I00
sbaa(lp490
NaNaNaNaNaNaNaNa(imapping
Tile
p491
(dp492
g328
g482
sg330
VS_RRamp
p493
sg332
F0.20000000000000001
sg333
I00
sba(imapping
Tile
p494
(dp495
g328
g336
sg330
VS_bRRamp
p496
sg332
F0.20000000000000001
sg333
I00
sba(imapping
Tile
p497
(dp498
g328
g336
sg330
VS_Snow
p499
sg332
F1
sg333
I00
sba(imapping
Tile
p500
(dp501
g328
g336
sg330
VS_Snow2
p502
sg332
F1
sg333
I00
sbaa(lp503
NaNaNaNaNaNaNaNa(imapping
Tile
p504
(dp505
g328
g336
sg330
VS_edgeright
p506
sg332
F0.20000000000000001
sg333
I00
sba(imapping
Tile
p507
(dp508
g328
g336
sg330
VS_edgewright2
p509
sg332
F0.20000000000000001
sg333
I00
sba(imapping
Tile
p510
(dp511
g328
g336
sg330
VS_edgewright1
p512
sg332
F0.20000000000000001
sg333
I00
sba(imapping
Tile
p513
(dp514
g328
g336
sg330
VS_edgewright1
p515
sg332
F0.20000000000000001
sg333
I00
sbaa(lp516
NaNaNaNaNaNaNaNaNaNaNaNaa(lp517
NaNaNaNaNaNaNaNaNaNaNaNaa(lp518
NaNaNaNaNaNaNaNaNaNaNaNaa(lp519
NaNaNaNaNaNaNaNa(imapping
Tile
p520
(dp521
g328
g336
sg330
VS_edgeleft
p522
sg332
F0.20000000000000001
sg333
I00
sba(imapping
Tile
p523
(dp524
g328
g336
sg330
VS_edgewleft1
p525
sg332
F1
sg333
I00
sba(imapping
Tile
p526
(dp527
g328
g336
sg330
VS_UCleft
p528
sg332
F1
sg333
I00
sbaNaa(lp529
NaNaNaNaNaNaNaNa(imapping
Tile
p530
(dp531
g328
g329
sg330
VS_LRamp
p532
sg332
F0.20000000000000001
sg333
I00
sba(imapping
Tile
p533
(dp534
g328
g336
sg330
VS_bLRamp
p535
sg332
F0.20000000000000001
sg333
I00
sba(imapping
Tile
p536
(dp537
g328
g336
sg330
VS_UCJleft
p538
sg332
F1
sg333
I00
sba(imapping
Tile
p539
(dp540
g328
g336
sg330
VS_edgewleft1
p541
sg332
F1
sg333
I00
sbaa(lp542
NaNaNaNaNaNaNaNaNa(imapping
Tile
p543
(dp544
g328
g336
sg330
VS_Ground1
p545
sg332
F0.20000000000000001
sg333
I00
sba(imapping
Tile
p546
(dp547
g328
g336
sg330
VS_Snow
p548
sg332
F1
sg333
I00
sba(imapping
Tile
p549
(dp550
g328
g336
sg330
VS_Snow
p551
sg332
F1
sg333
I00
sbaa(lp552
NaNaNaNaNaNaNaNa(imapping
Tile
p553
(dp554
g328
g401
sg330
VS_Tree
p555
sg332
F1
sg333
I00
sba(imapping
Tile
p556
(dp557
g328
g336
sg330
VS_Ground1
p558
sg332
F0.20000000000000001
sg333
I00
sba(imapping
Tile
p559
(dp560
g328
g336
sg330
VS_Snow
p561
sg332
F1
sg333
I00
sba(imapping
Tile
p562
(dp563
g328
g336
sg330
VS_Snow2
p564
sg332
F1
sg333
I00
sbaa(lp565
NaNaNaNaNaNaNaNa(imapping
Tile
p566
(dp567
g328
g401
sg330
VS_Tree2
p568
sg332
F1
sg333
I00
sba(imapping
Tile
p569
(dp570
g328
g336
sg330
VS_Ground1
p571
sg332
F0.20000000000000001
sg333
I00
sba(imapping
Tile
p572
(dp573
g328
g336
sg330
VS_Snow2
p574
sg332
F1
sg333
I00
sba(imapping
Tile
p575
(dp576
g328
g336
sg330
VS_Snow
p577
sg332
F1
sg333
I00
sbaa(lp578
NaNaNaNaNaNaNaNaNa(imapping
Tile
p579
(dp580
g328
g336
sg330
VS_Ground1
p581
sg332
F0.20000000000000001
sg333
I00
sba(imapping
Tile
p582
(dp583
g328
g336
sg330
VS_Snow2
p584
sg332
F1
sg333
I00
sba(imapping
Tile
p585
(dp586
g328
g336
sg330
VS_Snow
p587
sg332
F1
sg333
I00
sbaa(lp588
NaNaNaNaNaNaNaNaNa(imapping
Tile
p589
(dp590
g328
g336
sg330
VS_Ground1
p591
sg332
F0.20000000000000001
sg333
I00
sba(imapping
Tile
p592
(dp593
g328
g336
sg330
VS_Snow
p594
sg332
F1
sg333
I00
sba(imapping
Tile
p595
(dp596
g328
g336
sg330
VS_UCJright
p597
sg332
F1
sg333
I00
sbaa(lp598
NaNaNaNaNaNaNaNaNa(imapping
Tile
p599
(dp600
g328
g336
sg330
VS_edgeright
p601
sg332
F0.20000000000000001
sg333
I00
sba(imapping
Tile
p602
(dp603
g328
g336
sg330
VS_edgewright2
p604
sg332
F0.20000000000000001
sg333
I00
sba(imapping
Tile
p605
(dp606
g328
g336
sg330
VS_UCright
p607
sg332
F1
sg333
I00
sbaa(lp608
NaNaNaNaNaNaNaNaNaNaNaNaa(lp609
NaNaNaNaNaNaNaNaNaNaNaNaa(lp610
NaNaNaNaNaNaNaNaNaNaNaNaa(lp611
NaNaNaNaNaNaNa(imapping
Tile
p612
(dp613
g328
g336
sg330
VS_edgeleft
p614
sg332
F0.20000000000000001
sg333
I00
sba(imapping
Tile
p615
(dp616
g328
g336
sg330
VS_edgewleft1
p617
sg332
F1
sg333
I00
sba(imapping
Tile
p618
(dp619
g328
g336
sg330
VS_edgewleft1
p620
sg332
F1
sg333
I00
sba(imapping
Tile
p621
(dp622
g328
g336
sg330
VS_edgewleft2
p623
sg332
F1
sg333
I00
sba(imapping
Tile
p624
(dp625
g328
g336
sg330
VS_edgewleft1
p626
sg332
F1
sg333
I00
sbaa(lp627
NaNaNaNaNaNaNa(imapping
Tile
p628
(dp629
g328
g336
sg330
VS_Ground1
p630
sg332
F0.20000000000000001
sg333
I00
sba(imapping
Tile
p631
(dp632
g328
g336
sg330
VS_Snow2
p633
sg332
F1
sg333
I00
sba(imapping
Tile
p634
(dp635
g328
g336
sg330
VS_Snow
p636
sg332
F1
sg333
I00
sba(imapping
Tile
p637
(dp638
g328
g336
sg330
VS_Snow
p639
sg332
F1
sg333
I00
sba(imapping
Tile
p640
(dp641
g328
g336
sg330
VS_Snow
p642
sg332
F1
sg333
I00
sbaa(lp643
NaNaNaNaNaNaNa(imapping
Tile
p644
(dp645
g328
g336
sg330
VS_Ground1
p646
sg332
F0.20000000000000001
sg333
I00
sba(imapping
Tile
p647
(dp648
g328
g336
sg330
VS_Snow
p649
sg332
F1
sg333
I00
sba(imapping
Tile
p650
(dp651
g328
g336
sg330
VS_Snow
p652
sg332
F1
sg333
I00
sba(imapping
Tile
p653
(dp654
g328
g336
sg330
VS_Snow
p655
sg332
F1
sg333
I00
sba(imapping
Tile
p656
(dp657
g328
g336
sg330
VS_Snow2
p658
sg332
F1
sg333
I00
sbaa(lp659
NaNaNaNaNaNaNa(imapping
Tile
p660
(dp661
g328
g336
sg330
VS_Ground1
p662
sg332
F0.20000000000000001
sg333
I00
sba(imapping
Tile
p663
(dp664
g328
g336
sg330
VS_Snow
p665
sg332
F1
sg333
I00
sba(imapping
Tile
p666
(dp667
g328
g336
sg330
VS_Snow2
p668
sg332
F1
sg333
I00
sba(imapping
Tile
p669
(dp670
g328
g336
sg330
VS_Snow2
p671
sg332
F1
sg333
I00
sba(imapping
Tile
p672
(dp673
g328
g336
sg330
VS_Snow
p674
sg332
F1
sg333
I00
sbaa(lp675
NaNaNaNaNaNaNa(imapping
Tile
p676
(dp677
g328
g336
sg330
VS_Ground1
p678
sg332
F0.20000000000000001
sg333
I00
sba(imapping
Tile
p679
(dp680
g328
g336
sg330
VS_Snow
p681
sg332
F1
sg333
I00
sba(imapping
Tile
p682
(dp683
g328
g336
sg330
VS_Snow
p684
sg332
F1
sg333
I00
sba(imapping
Tile
p685
(dp686
g328
g336
sg330
VS_Snow2
p687
sg332
F1
sg333
I00
sba(imapping
Tile
p688
(dp689
g328
g336
sg330
VS_Snow2
p690
sg332
F1
sg333
I00
sbaa(lp691
NaNaNaNaNaNaNa(imapping
Tile
p692
(dp693
g328
g336
sg330
VS_Ground1
p694
sg332
F0.20000000000000001
sg333
I00
sba(imapping
Tile
p695
(dp696
g328
g336
sg330
VS_Snow
p697
sg332
F1
sg333
I00
sba(imapping
Tile
p698
(dp699
g328
g336
sg330
VS_Snow
p700
sg332
F1
sg333
I00
sba(imapping
Tile
p701
(dp702
g328
g336
sg330
VS_Snow
p703
sg332
F1
sg333
I00
sba(imapping
Tile
p704
(dp705
g328
g336
sg330
VS_Snow
p706
sg332
F1
sg333
I00
sbaa(lp707
NaNaNaNaNaNaNa(imapping
Tile
p708
(dp709
g328
g329
sg330
VS_LRamp
p710
sg332
F0.20000000000000001
sg333
I00
sba(imapping
Tile
p711
(dp712
g328
g336
sg330
VS_bLRamp
p713
sg332
F0.20000000000000001
sg333
I00
sba(imapping
Tile
p714
(dp715
g328
g336
sg330
VS_Snow
p716
sg332
F1
sg333
I00
sba(imapping
Tile
p717
(dp718
g328
g336
sg330
VS_Snow
p719
sg332
F1
sg333
I00
sba(imapping
Tile
p720
(dp721
g328
g336
sg330
VS_Snow
p722
sg332
F1
sg333
I00
sbaa(lp723
NaNaNaNaNaNaNaNa(imapping
Tile
p724
(dp725
g328
g329
sg330
VS_LRamp
p726
sg332
F0.20000000000000001
sg333
I00
sba(imapping
Tile
p727
(dp728
g328
g336
sg330
VS_bLRamp
p729
sg332
F0.20000000000000001
sg333
I00
sba(imapping
Tile
p730
(dp731
g328
g336
sg330
VS_Snow
p732
sg332
F1
sg333
I00
sba(imapping
Tile
p733
(dp734
g328
g336
sg330
VS_Snow
p735
sg332
F1
sg333
I00
sbaa(lp736
NaNaNaNaNaNaNaNaNa(imapping
Tile
p737
(dp738
g328
g336
sg330
VS_Ground1
p739
sg332
F0.20000000000000001
sg333
I00
sba(imapping
Tile
p740
(dp741
g328
g336
sg330
VS_Snow2
p742
sg332
F1
sg333
I00
sba(imapping
Tile
p743
(dp744
g328
g336
sg330
VS_Snow
p745
sg332
F1
sg333
I00
sbaa(lp746
NaNaNaNaNaNaNaNaNa(imapping
Tile
p747
(dp748
g328
g336
sg330
VS_Ground1
p749
sg332
F0.20000000000000001
sg333
I00
sba(imapping
Tile
p750
(dp751
g328
g336
sg330
VS_Snow
p752
sg332
F1
sg333
I00
sba(imapping
Tile
p753
(dp754
g328
g336
sg330
VS_Snow2
p755
sg332
F1
sg333
I00
sbaa(lp756
NaNaNaNaNaNaNaNaNa(imapping
Tile
p757
(dp758
g328
g336
sg330
VS_Ground1
p759
sg332
F0.20000000000000001
sg333
I00
sba(imapping
Tile
p760
(dp761
g328
g336
sg330
VS_Snow
p762
sg332
F1
sg333
I00
sba(imapping
Tile
p763
(dp764
g328
g336
sg330
VS_Snow2
p765
sg332
F1
sg333
I00
sbaa(lp766
NaNaNaNaNaNaNaNa(imapping
Tile
p767
(dp768
g328
g482
sg330
VS_RRamp
p769
sg332
F0.20000000000000001
sg333
I00
sba(imapping
Tile
p770
(dp771
g328
g336
sg330
VS_bRRamp
p772
sg332
F0.20000000000000001
sg333
I00
sba(imapping
Tile
p773
(dp774
g328
g336
sg330
VS_Snow2
p775
sg332
F1
sg333
I00
sba(imapping
Tile
p776
(dp777
g328
g336
sg330
VS_Snow2
p778
sg332
F1
sg333
I00
sbaa(lp779
NaNaNaNaNaNaNa(imapping
Tile
p780
(dp781
g328
g482
sg330
VS_RRamp
p782
sg332
F0.20000000000000001
sg333
I00
sba(imapping
Tile
p783
(dp784
g328
g336
sg330
VS_bRRamp
p785
sg332
F0.20000000000000001
sg333
I00
sba(imapping
Tile
p786
(dp787
g328
g336
sg330
VS_Snow
p788
sg332
F1
sg333
I00
sba(imapping
Tile
p789
(dp790
g328
g336
sg330
VS_Snow
p791
sg332
F1
sg333
I00
sba(imapping
Tile
p792
(dp793
g328
g336
sg330
VS_Snow2
p794
sg332
F1
sg333
I00
sbaa(lp795
NaNaNaNaNaNa(imapping
Tile
p796
(dp797
g328
g482
sg330
VS_RRamp
p798
sg332
F0.20000000000000001
sg333
I00
sba(imapping
Tile
p799
(dp800
g328
g336
sg330
VS_bRRamp
p801
sg332
F0.20000000000000001
sg333
I00
sba(imapping
Tile
p802
(dp803
g328
g336
sg330
VS_Snow
p804
sg332
F1
sg333
I00
sba(imapping
Tile
p805
(dp806
g328
g336
sg330
VS_Snow
p807
sg332
F1
sg333
I00
sba(imapping
Tile
p808
(dp809
g328
g336
sg330
VS_Snow2
p810
sg332
F1
sg333
I00
sba(imapping
Tile
p811
(dp812
g328
g336
sg330
VS_Snow2
p813
sg332
F1
sg333
I00
sbaa(lp814
NaNaNaNaNa(imapping
Tile
p815
(dp816
g328
g482
sg330
VS_RRamp
p817
sg332
F0.20000000000000001
sg333
I00
sba(imapping
Tile
p818
(dp819
g328
g336
sg330
VS_bRRamp
p820
sg332
F0.20000000000000001
sg333
I00
sba(imapping
Tile
p821
(dp822
g328
g336
sg330
VS_Snow
p823
sg332
F1
sg333
I00
sba(imapping
Tile
p824
(dp825
g328
g336
sg330
VS_Snow
p826
sg332
F1
sg333
I00
sba(imapping
Tile
p827
(dp828
g328
g336
sg330
VS_Snow
p829
sg332
F1
sg333
I00
sba(imapping
Tile
p830
(dp831
g328
g336
sg330
VS_Snow
p832
sg332
F1
sg333
I00
sba(imapping
Tile
p833
(dp834
g328
g336
sg330
VS_Snow
p835
sg332
F1
sg333
I00
sbaa(lp836
NaNaNaNaNa(imapping
Tile
p837
(dp838
g328
g336
sg330
VS_Ground1
p839
sg332
F0.20000000000000001
sg333
I00
sba(imapping
Tile
p840
(dp841
g328
g336
sg330
VS_Snow
p842
sg332
F1
sg333
I00
sba(imapping
Tile
p843
(dp844
g328
g336
sg330
VS_Snow
p845
sg332
F1
sg333
I00
sba(imapping
Tile
p846
(dp847
g328
g336
sg330
VS_Snow2
p848
sg332
F1
sg333
I00
sba(imapping
Tile
p849
(dp850
g328
g336
sg330
VS_Snow2
p851
sg332
F1
sg333
I00
sba(imapping
Tile
p852
(dp853
g328
g336
sg330
VS_Snow2
p854
sg332
F1
sg333
I00
sba(imapping
Tile
p855
(dp856
g328
g336
sg330
VS_Snow
p857
sg332
F1
sg333
I00
sbaa(lp858
NaNaNaNaNa(imapping
Tile
p859
(dp860
g328
g336
sg330
VS_Ground1
p861
sg332
F0.20000000000000001
sg333
I00
sba(imapping
Tile
p862
(dp863
g328
g336
sg330
VS_Snow
p864
sg332
F1
sg333
I00
sba(imapping
Tile
p865
(dp866
g328
g336
sg330
VS_Snow
p867
sg332
F1
sg333
I00
sba(imapping
Tile
p868
(dp869
g328
g336
sg330
VS_Snow
p870
sg332
F1
sg333
I00
sba(imapping
Tile
p871
(dp872
g328
g336
sg330
VS_Snow2
p873
sg332
F1
sg333
I00
sba(imapping
Tile
p874
(dp875
g328
g336
sg330
VS_Snow
p876
sg332
F1
sg333
I00
sba(imapping
Tile
p877
(dp878
g328
g336
sg330
VS_Snow
p879
sg332
F1
sg333
I00
sbaa(lp880
NaNaNaNaNa(imapping
Tile
p881
(dp882
g328
g336
sg330
VS_Ground1
p883
sg332
F0.20000000000000001
sg333
I00
sba(imapping
Tile
p884
(dp885
g328
g336
sg330
VS_Snow
p886
sg332
F1
sg333
I00
sba(imapping
Tile
p887
(dp888
g328
g336
sg330
VS_Snow2
p889
sg332
F1
sg333
I00
sba(imapping
Tile
p890
(dp891
g328
g336
sg330
VS_Snow2
p892
sg332
F1
sg333
I00
sba(imapping
Tile
p893
(dp894
g328
g336
sg330
VS_Snow
p895
sg332
F1
sg333
I00
sba(imapping
Tile
p896
(dp897
g328
g336
sg330
VS_Snow
p898
sg332
F1
sg333
I00
sba(imapping
Tile
p899
(dp900
g328
g336
sg330
VS_Snow
p901
sg332
F1
sg333
I00
sbaa(lp902
NaNaNaNaNa(imapping
Tile
p903
(dp904
g328
g336
sg330
VS_Ground1
p905
sg332
F0.20000000000000001
sg333
I00
sba(imapping
Tile
p906
(dp907
g328
g336
sg330
VS_Snow2
p908
sg332
F1
sg333
I00
sba(imapping
Tile
p909
(dp910
g328
g336
sg330
VS_Snow2
p911
sg332
F1
sg333
I00
sba(imapping
Tile
p912
(dp913
g328
g336
sg330
VS_Snow2
p914
sg332
F1
sg333
I00
sba(imapping
Tile
p915
(dp916
g328
g336
sg330
VS_Snow2
p917
sg332
F1
sg333
I00
sba(imapping
Tile
p918
(dp919
g328
g336
sg330
VS_Snow
p920
sg332
F1
sg333
I00
sba(imapping
Tile
p921
(dp922
g328
g336
sg330
VS_Snow
p923
sg332
F1
sg333
I00
sbaa(lp924
NaNaNaNaNa(imapping
Tile
p925
(dp926
g328
g336
sg330
VS_Ground1
p927
sg332
F0.20000000000000001
sg333
I00
sba(imapping
Tile
p928
(dp929
g328
g336
sg330
VS_Snow
p930
sg332
F1
sg333
I00
sba(imapping
Tile
p931
(dp932
g328
g336
sg330
VS_Snow2
p933
sg332
F1
sg333
I00
sba(imapping
Tile
p934
(dp935
g328
g336
sg330
VS_Snow2
p936
sg332
F1
sg333
I00
sba(imapping
Tile
p937
(dp938
g328
g336
sg330
VS_Snow2
p939
sg332
F1
sg333
I00
sba(imapping
Tile
p940
(dp941
g328
g336
sg330
VS_Snow2
p942
sg332
F1
sg333
I00
sba(imapping
Tile
p943
(dp944
g328
g336
sg330
VS_Snow
p945
sg332
F1
sg333
I00
sbaa(lp946
NaNaNaNaNa(imapping
Tile
p947
(dp948
g328
g336
sg330
VS_Ground1
p949
sg332
F0.20000000000000001
sg333
I00
sba(imapping
Tile
p950
(dp951
g328
g336
sg330
VS_Snow
p952
sg332
F1
sg333
I00
sba(imapping
Tile
p953
(dp954
g328
g336
sg330
VS_Snow
p955
sg332
F1
sg333
I00
sba(imapping
Tile
p956
(dp957
g328
g336
sg330
VS_Snow2
p958
sg332
F1
sg333
I00
sba(imapping
Tile
p959
(dp960
g328
g336
sg330
VS_Snow2
p961
sg332
F1
sg333
I00
sba(imapping
Tile
p962
(dp963
g328
g336
sg330
VS_Snow2
p964
sg332
F1
sg333
I00
sba(imapping
Tile
p965
(dp966
g328
g336
sg330
VS_Snow
p967
sg332
F1
sg333
I00
sbaa(lp968
NaNaNaNaNa(imapping
Tile
p969
(dp970
g328
g336
sg330
VS_Ground1
p971
sg332
F0.20000000000000001
sg333
I00
sba(imapping
Tile
p972
(dp973
g328
g336
sg330
VS_Snow
p974
sg332
F1
sg333
I00
sba(imapping
Tile
p975
(dp976
g328
g336
sg330
VS_Snow
p977
sg332
F1
sg333
I00
sba(imapping
Tile
p978
(dp979
g328
g336
sg330
VS_Snow
p980
sg332
F1
sg333
I00
sba(imapping
Tile
p981
(dp982
g328
g336
sg330
VS_Snow
p983
sg332
F1
sg333
I00
sba(imapping
Tile
p984
(dp985
g328
g336
sg330
VS_Snow
p986
sg332
F1
sg333
I00
sba(imapping
Tile
p987
(dp988
g328
g336
sg330
VS_Snow
p989
sg332
F1
sg333
I00
sbaa(lp990
NaNaNaNaNa(imapping
Tile
p991
(dp992
g328
g336
sg330
VS_Ground1
p993
sg332
F0.20000000000000001
sg333
I00
sba(imapping
Tile
p994
(dp995
g328
g336
sg330
VS_Snow
p996
sg332
F1
sg333
I00
sba(imapping
Tile
p997
(dp998
g328
g336
sg330
VS_Snow
p999
sg332
F1
sg333
I00
sba(imapping
Tile
p1000
(dp1001
g328
g336
sg330
VS_Snow2
p1002
sg332
F1
sg333
I00
sba(imapping
Tile
p1003
(dp1004
g328
g336
sg330
VS_Snow
p1005
sg332
F1
sg333
I00
sba(imapping
Tile
p1006
(dp1007
g328
g336
sg330
VS_Snow
p1008
sg332
F1
sg333
I00
sba(imapping
Tile
p1009
(dp1010
g328
g336
sg330
VS_Snow
p1011
sg332
F1
sg333
I00
sbaa(lp1012
NaNaNaNaNa(imapping
Tile
p1013
(dp1014
g328
g336
sg330
VS_Ground1
p1015
sg332
F0.20000000000000001
sg333
I00
sba(imapping
Tile
p1016
(dp1017
g328
g336
sg330
VS_Snow2
p1018
sg332
F1
sg333
I00
sba(imapping
Tile
p1019
(dp1020
g328
g336
sg330
VS_Snow2
p1021
sg332
F1
sg333
I00
sba(imapping
Tile
p1022
(dp1023
g328
g336
sg330
VS_Snow
p1024
sg332
F1
sg333
I00
sba(imapping
Tile
p1025
(dp1026
g328
g336
sg330
VS_Snow
p1027
sg332
F1
sg333
I00
sba(imapping
Tile
p1028
(dp1029
g328
g336
sg330
VS_Snow
p1030
sg332
F1
sg333
I00
sba(imapping
Tile
p1031
(dp1032
g328
g336
sg330
VS_Snow
p1033
sg332
F1
sg333
I00
sbaa(lp1034
NaNaNaNaNa(imapping
Tile
p1035
(dp1036
g328
g336
sg330
VS_edgeright
p1037
sg332
F0.20000000000000001
sg333
I00
sba(imapping
Tile
p1038
(dp1039
g328
g336
sg330
VS_edgewright1
p1040
sg332
F0.20000000000000001
sg333
I00
sba(imapping
Tile
p1041
(dp1042
g328
g336
sg330
VS_edgewright1
p1043
sg332
F0.20000000000000001
sg333
I00
sba(imapping
Tile
p1044
(dp1045
g328
g336
sg330
VS_edgewright2
p1046
sg332
F0.20000000000000001
sg333
I00
sba(imapping
Tile
p1047
(dp1048
g328
g336
sg330
VS_edgewright2
p1049
sg332
F0.20000000000000001
sg333
I00
sba(imapping
Tile
p1050
(dp1051
g328
g336
sg330
VS_ECleft
p1052
sg332
F0.20000000000000001
sg333
I00
sba(imapping
Tile
p1053
(dp1054
g328
g336
sg330
VS_Snow2
p1055
sg332
F1
sg333
I00
sbaa(lp1056
NaNaNaNaNaNaNaNaNaNa(imapping
Tile
p1057
(dp1058
g328
g336
sg330
VS_Ground1
p1059
sg332
F0.20000000000000001
sg333
I00
sba(imapping
Tile
p1060
(dp1061
g328
g336
sg330
VS_Snow2
p1062
sg332
F1
sg333
I00
sbaa(lp1063
NaNaNaNaNaNaNaNaNaNa(imapping
Tile
p1064
(dp1065
g328
g336
sg330
VS_Ground1
p1066
sg332
F0.20000000000000001
sg333
I00
sba(imapping
Tile
p1067
(dp1068
g328
g336
sg330
VS_Snow
p1069
sg332
F1
sg333
I00
sbaa(lp1070
NaNaNaNaNa(imapping
Tile
p1071
(dp1072
g328
g336
sg330
VS_edgeleft
p1073
sg332
F0.20000000000000001
sg333
I00
sba(imapping
Tile
p1074
(dp1075
g328
g336
sg330
VS_edgewleft2
p1076
sg332
F1
sg333
I00
sba(imapping
Tile
p1077
(dp1078
g328
g336
sg330
VS_edgewleft1
p1079
sg332
F1
sg333
I00
sba(imapping
Tile
p1080
(dp1081
g328
g336
sg330
VS_edgewleft2
p1082
sg332
F1
sg333
I00
sba(imapping
Tile
p1083
(dp1084
g328
g336
sg330
VS_edgewleft1
p1085
sg332
F1
sg333
I00
sba(imapping
Tile
p1086
(dp1087
g328
g336
sg330
VS_ECright
p1088
sg332
F0.20000000000000001
sg333
I00
sba(imapping
Tile
p1089
(dp1090
g328
g336
sg330
VS_Snow
p1091
sg332
F1
sg333
I00
sbaa(lp1092
NaNaNaNaNa(imapping
Tile
p1093
(dp1094
g328
g336
sg330
VS_Ground1
p1095
sg332
F0.20000000000000001
sg333
I00
sba(imapping
Tile
p1096
(dp1097
g328
g336
sg330
VS_Snow
p1098
sg332
F1
sg333
I00
sba(imapping
Tile
p1099
(dp1100
g328
g336
sg330
VS_Snow
p1101
sg332
F1
sg333
I00
sba(imapping
Tile
p1102
(dp1103
g328
g336
sg330
VS_Snow
p1104
sg332
F1
sg333
I00
sba(imapping
Tile
p1105
(dp1106
g328
g336
sg330
VS_Snow
p1107
sg332
F1
sg333
I00
sba(imapping
Tile
p1108
(dp1109
g328
g336
sg330
VS_Snow
p1110
sg332
F1
sg333
I00
sba(imapping
Tile
p1111
(dp1112
g328
g336
sg330
VS_Snow
p1113
sg332
F1
sg333
I00
sbaa(lp1114
NaNaNaNaNa(imapping
Tile
p1115
(dp1116
g328
g336
sg330
VS_edgeright
p1117
sg332
F0.20000000000000001
sg333
I00
sba(imapping
Tile
p1118
(dp1119
g328
g336
sg330
VS_edgewright1
p1120
sg332
F0.20000000000000001
sg333
I00
sba(imapping
Tile
p1121
(dp1122
g328
g336
sg330
VS_edgewright1
p1123
sg332
F0.20000000000000001
sg333
I00
sba(imapping
Tile
p1124
(dp1125
g328
g336
sg330
VS_edgewright2
p1126
sg332
F0.20000000000000001
sg333
I00
sba(imapping
Tile
p1127
(dp1128
g328
g336
sg330
VS_edgewright2
p1129
sg332
F0.20000000000000001
sg333
I00
sba(imapping
Tile
p1130
(dp1131
g328
g336
sg330
VS_edgewright1
p1132
sg332
F0.20000000000000001
sg333
I00
sba(imapping
Tile
p1133
(dp1134
g328
g336
sg330
VS_edgewright2
p1135
sg332
F0.20000000000000001
sg333
I00
sbaa(lp1136
NaNaNaNaNaNaNaNaNaNaNaNaa(lp1137
NaNaNaNaNaNaNaNaNaNaNaNaa(lp1138
NaNaNaNaNaNaNaNaNaNaNaNaa(lp1139
NaNaNaNaNaNaNaNaNaNaNaNaa(lp1140
NaNaNaNaNaNaNaNaNaNaNaNaa(lp1141
NaNaNaNaNaNaNaNaNaNa(imapping
Tile
p1142
(dp1143
g328
g336
sg330
VS_edgeleft
p1144
sg332
F0.20000000000000001
sg333
I00
sba(imapping
Tile
p1145
(dp1146
g328
g336
sg330
VS_edgewleft2
p1147
sg332
F1
sg333
I00
sbaa(lp1148
NaNaNaNaNaNaNaNaNaNa(imapping
Tile
p1149
(dp1150
g328
g336
sg330
VS_edgeright
p1151
sg332
F0.20000000000000001
sg333
I00
sba(imapping
Tile
p1152
(dp1153
g328
g336
sg330
VS_edgewright1
p1154
sg332
F0.20000000000000001
sg333
I00
sbaa(lp1155
NaNaNaNaNaNaNaNaNaNaNaNaa(lp1156
NaNaNaNaNaNaNaNaNaNaNaNaa(lp1157
NaNaNaNaNaNaNaNaNaNaNaNaa(lp1158
NaNaNaNaNaNaNaNaNaNaNa(imapping
Tile
p1159
(dp1160
g328
g482
sg330
VS_RRamp
p1161
sg332
F0.20000000000000001
sg333
I00
sbaa(lp1162
NaNaNaNaNaNaNaNaNaNa(imapping
Tile
p1163
(dp1164
g328
g482
sg330
VS_RRamp
p1165
sg332
F0.20000000000000001
sg333
I00
sba(imapping
Tile
p1166
(dp1167
g328
g336
sg330
VS_bRRamp
p1168
sg332
F0.20000000000000001
sg333
I00
sbaa(lp1169
NaNaNaNaNaNaNaNaNa(imapping
Tile
p1170
(dp1171
g328
g482
sg330
VS_RRamp
p1172
sg332
F0.20000000000000001
sg333
I00
sba(imapping
Tile
p1173
(dp1174
g328
g336
sg330
VS_bRRamp
p1175
sg332
F0.20000000000000001
sg333
I00
sba(imapping
Tile
p1176
(dp1177
g328
g336
sg330
VS_Snow
p1178
sg332
F1
sg333
I00
sbaa(lp1179
NaNaNaNaNaNaNaNa(imapping
Tile
p1180
(dp1181
g328
g482
sg330
VS_RRamp
p1182
sg332
F0.20000000000000001
sg333
I00
sba(imapping
Tile
p1183
(dp1184
g328
g336
sg330
VS_bRRamp
p1185
sg332
F0.20000000000000001
sg333
I00
sba(imapping
Tile
p1186
(dp1187
g328
g336
sg330
VS_Snow
p1188
sg332
F1
sg333
I00
sba(imapping
Tile
p1189
(dp1190
g328
g336
sg330
VS_Snow
p1191
sg332
F1
sg333
I00
sbaa(lp1192
NaNaNaNaNaNaNaNa(imapping
Tile
p1193
(dp1194
g328
g336
sg330
VS_Ground1
p1195
sg332
F0.20000000000000001
sg333
I00
sba(imapping
Tile
p1196
(dp1197
g328
g336
sg330
VS_Snow
p1198
sg332
F1
sg333
I00
sba(imapping
Tile
p1199
(dp1200
g328
g336
sg330
VS_Snow
p1201
sg332
F1
sg333
I00
sba(imapping
Tile
p1202
(dp1203
g328
g336
sg330
VS_Snow
p1204
sg332
F1
sg333
I00
sbaa(lp1205
NaNaNaNaNaNaNa(imapping
Tile
p1206
(dp1207
g328
g401
sg330
VS_Tree2
p1208
sg332
F1
sg333
I00
sba(imapping
Tile
p1209
(dp1210
g328
g336
sg330
VS_Ground1
p1211
sg332
F0.20000000000000001
sg333
I00
sba(imapping
Tile
p1212
(dp1213
g328
g336
sg330
VS_Snow
p1214
sg332
F1
sg333
I00
sba(imapping
Tile
p1215
(dp1216
g328
g336
sg330
VS_Snow
p1217
sg332
F1
sg333
I00
sba(imapping
Tile
p1218
(dp1219
g328
g336
sg330
VS_Snow
p1220
sg332
F1
sg333
I00
sbaa(lp1221
NaNaNaNaNaNaNaNa(imapping
Tile
p1222
(dp1223
g328
g336
sg330
VS_edgeright
p1224
sg332
F0.20000000000000001
sg333
I00
sba(imapping
Tile
p1225
(dp1226
g328
g336
sg330
VS_edgewright2
p1227
sg332
F0.20000000000000001
sg333
I00
sba(imapping
Tile
p1228
(dp1229
g328
g336
sg330
VS_edgewright2
p1230
sg332
F0.20000000000000001
sg333
I00
sba(imapping
Tile
p1231
(dp1232
g328
g336
sg330
VS_ECleft
p1233
sg332
F0.20000000000000001
sg333
I00
sbaa(lp1234
NaNaNaNaNaNaNaNaNaNaNa(imapping
Tile
p1235
(dp1236
g328
g336
sg330
VS_Ground1
p1237
sg332
F0.20000000000000001
sg333
I00
sbaa(lp1238
NaNaNaNaNaNaNaNaNaNaNa(imapping
Tile
p1239
(dp1240
g328
g336
sg330
VS_Ground1
p1241
sg332
F0.20000000000000001
sg333
I00
sbaa(lp1242
NaNaNaNaNaNaNaNaNaNaNa(imapping
Tile
p1243
(dp1244
g328
g336
sg330
VS_Ground1
p1245
sg332
F0.20000000000000001
sg333
I00
sbaa(lp1246
NaNaNaNaNaNaNaNaNaNaNa(imapping
Tile
p1247
(dp1248
g328
g336
sg330
VS_Ground1
p1249
sg332
F0.20000000000000001
sg333
I00
sbaa(lp1250
NaNaNaNaNaNaNaNaNaNaNa(imapping
Tile
p1251
(dp1252
g328
g336
sg330
VS_Ground1
p1253
sg332
F0.20000000000000001
sg333
I00
sbaa(lp1254
NaNaNaNaNaNaNaNaNaNaNa(imapping
Tile
p1255
(dp1256
g328
g336
sg330
VS_Ground1
p1257
sg332
F0.20000000000000001
sg333
I00
sbaa(lp1258
NaNaNaNaNaNaNaNaNaNaNa(imapping
Tile
p1259
(dp1260
g328
g336
sg330
VS_Ground1
p1261
sg332
F0.20000000000000001
sg333
I00
sbaa(lp1262
NaNaNaNaNaNaNaNaNaNaNa(imapping
Tile
p1263
(dp1264
g328
g336
sg330
VS_Ground1
p1265
sg332
F0.20000000000000001
sg333
I00
sbaa(lp1266
NaNaNaNaNaNaNaNaNaNaNa(imapping
Tile
p1267
(dp1268
g328
g336
sg330
VS_Ground1
p1269
sg332
F0.20000000000000001
sg333
I00
sbaa(lp1270
NaNaNaNaNaNaNaNaNaNaNa(imapping
Tile
p1271
(dp1272
g328
g336
sg330
VS_Ground1
p1273
sg332
F0.20000000000000001
sg333
I00
sbaa(lp1274
NaNaNaNaNaNaNaNaNaNaNa(imapping
Tile
p1275
(dp1276
g328
g336
sg330
VS_Ground1
p1277
sg332
F0.20000000000000001
sg333
I00
sbaa(lp1278
NaNaNaNaNaNaNaNaNaNaNa(imapping
Tile
p1279
(dp1280
g328
g336
sg330
VS_Ground1
p1281
sg332
F0.20000000000000001
sg333
I00
sbaa(lp1282
NaNaNaNaNaNaNaNaNaNaNa(imapping
Tile
p1283
(dp1284
g328
g336
sg330
VS_Ground1
p1285
sg332
F0.20000000000000001
sg333
I00
sbaa(lp1286
NaNaNaNaNaNaNaNaNaNaNa(imapping
Tile
p1287
(dp1288
g328
g336
sg330
VS_Ground1
p1289
sg332
F0.20000000000000001
sg333
I00
sbaa(lp1290
NaNaNaNaNaNaNaNaNaNaNa(imapping
Tile
p1291
(dp1292
g328
g336
sg330
VS_Ground1
p1293
sg332
F0.20000000000000001
sg333
I00
sbaa(lp1294
NaNaNaNaNaNaNaNaNaNaNa(imapping
Tile
p1295
(dp1296
g328
g336
sg330
VS_Ground1
p1297
sg332
F0.20000000000000001
sg333
I00
sbaa(lp1298
NaNaNaNaNaNaNaNaNaNaNa(imapping
Tile
p1299
(dp1300
g328
g336
sg330
VS_Ground1
p1301
sg332
F0.20000000000000001
sg333
I00
sbaa(lp1302
NaNaNaNaNaNaNaNaNaNaNa(imapping
Tile
p1303
(dp1304
g328
g336
sg330
VS_Ground1
p1305
sg332
F0.20000000000000001
sg333
I00
sbaa(lp1306
NaNaNaNaNaNaNaNaNaNa(imapping
Tile
p1307
(dp1308
g328
g482
sg330
VS_RRamp
p1309
sg332
F0.20000000000000001
sg333
I00
sba(imapping
Tile
p1310
(dp1311
g328
g336
sg330
VS_bRRamp
p1312
sg332
F0.20000000000000001
sg333
I00
sbaa(lp1313
NaNaNaNaNaNaNaNaNa(imapping
Tile
p1314
(dp1315
g328
g482
sg330
VS_RRamp
p1316
sg332
F0.20000000000000001
sg333
I00
sba(imapping
Tile
p1317
(dp1318
g328
g336
sg330
VS_bRRamp
p1319
sg332
F0.20000000000000001
sg333
I00
sba(imapping
Tile
p1320
(dp1321
g328
g336
sg330
VS_Snow2
p1322
sg332
F1
sg333
I00
sbaa(lp1323
NaNaNaNaNaNaNaNaNa(imapping
Tile
p1324
(dp1325
g328
g336
sg330
VS_Ground1
p1326
sg332
F0.20000000000000001
sg333
I00
sba(imapping
Tile
p1327
(dp1328
g328
g336
sg330
VS_Snow
p1329
sg332
F1
sg333
I00
sba(imapping
Tile
p1330
(dp1331
g328
g336
sg330
VS_Snow
p1332
sg332
F1
sg333
I00
sbaa(lp1333
NaNaNaNaNaNaNaNaNa(imapping
Tile
p1334
(dp1335
g328
g336
sg330
VS_Ground1
p1336
sg332
F0.20000000000000001
sg333
I00
sba(imapping
Tile
p1337
(dp1338
g328
g336
sg330
VS_Snow
p1339
sg332
F1
sg333
I00
sba(imapping
Tile
p1340
(dp1341
g328
g336
sg330
VS_Snow
p1342
sg332
F1
sg333
I00
sbaa(lp1343
NaNaNaNaNaNaNaNaNa(imapping
Tile
p1344
(dp1345
g328
g336
sg330
VS_edgeright
p1346
sg332
F0.20000000000000001
sg333
I00
sba(imapping
Tile
p1347
(dp1348
g328
g336
sg330
VS_edgewright2
p1349
sg332
F0.20000000000000001
sg333
I00
sba(imapping
Tile
p1350
(dp1351
g328
g336
sg330
VS_ECleft
p1352
sg332
F0.20000000000000001
sg333
I00
sbaa(lp1353
NaNaNaNaNaNaNaNaNaNaNa(imapping
Tile
p1354
(dp1355
g328
g336
sg330
VS_Ground1
p1356
sg332
F0.20000000000000001
sg333
I00
sbaa(lp1357
NaNaNaNaNaNaNaNaNaNaNa(imapping
Tile
p1358
(dp1359
g328
g336
sg330
VS_Ground1
p1360
sg332
F0.20000000000000001
sg333
I00
sbaa(lp1361
NaNaNaNaNaNaNaNaNaNaNa(imapping
Tile
p1362
(dp1363
g328
g336
sg330
VS_Ground1
p1364
sg332
F0.20000000000000001
sg333
I00
sbaa(lp1365
NaNaNaNaNaNaNaNaNaNaNa(imapping
Tile
p1366
(dp1367
g328
g336
sg330
VS_Ground1
p1368
sg332
F0.20000000000000001
sg333
I00
sbaa(lp1369
NaNaNaNaNaNaNaNaNaNaNa(imapping
Tile
p1370
(dp1371
g328
g336
sg330
VS_Ground1
p1372
sg332
F0.20000000000000001
sg333
I00
sbaa(lp1373
NaNaNaNaNaNaNaNaNaNa(imapping
Tile
p1374
(dp1375
g328
g401
sg330
VS_Tree2
p1376
sg332
F1
sg333
I00
sba(imapping
Tile
p1377
(dp1378
g328
g336
sg330
VS_Ground1
p1379
sg332
F0.20000000000000001
sg333
I00
sbaa(lp1380
NaNaNaNaNaNaNaNaNaNaNa(imapping
Tile
p1381
(dp1382
g328
g336
sg330
VS_Ground1
p1383
sg332
F0.20000000000000001
sg333
I00
sbaa(lp1384
NaNaNaNaNaNaNaNaNaNaNa(imapping
Tile
p1385
(dp1386
g328
g336
sg330
VS_Ground1
p1387
sg332
F0.20000000000000001
sg333
I00
sbaa(lp1388
NaNaNaNaNaNaNaNaNaNaNa(imapping
Tile
p1389
(dp1390
g328
g336
sg330
VS_Ground1
p1391
sg332
F0.20000000000000001
sg333
I00
sbaa(lp1392
NaNaNaNaNaNaNaNaNaNaNa(imapping
Tile
p1393
(dp1394
g328
g336
sg330
VS_Ground1
p1395
sg332
F0.20000000000000001
sg333
I00
sbaa(lp1396
NaNaNaNaNaNaNaNaNaNaNa(imapping
Tile
p1397
(dp1398
g328
g336
sg330
VS_Ground1
p1399
sg332
F0.20000000000000001
sg333
I00
sbaa(lp1400
NaNaNaNaNaNaNaNaNaNaNa(imapping
Tile
p1401
(dp1402
g328
g336
sg330
VS_Ground1
p1403
sg332
F0.20000000000000001
sg333
I00
sbaa(lp1404
NaNaNaNaNaNaNaNaNaNaNa(imapping
Tile
p1405
(dp1406
g328
g336
sg330
VS_Ground1
p1407
sg332
F0.20000000000000001
sg333
I00
sbaa(lp1408
NaNaNaNaNaNaNaNaNaNaNa(imapping
Tile
p1409
(dp1410
g328
g336
sg330
VS_Ground1
p1411
sg332
F0.20000000000000001
sg333
I00
sbaa(lp1412
NaNaNaNaNaNaNaNaNaNaNa(imapping
Tile
p1413
(dp1414
g328
g336
sg330
VS_Ground1
p1415
sg332
F0.20000000000000001
sg333
I00
sbaa(lp1416
NaNaNaNaNaNaNaNaNaNaNa(imapping
Tile
p1417
(dp1418
g328
g336
sg330
VS_Ground1
p1419
sg332
F0.20000000000000001
sg333
I00
sbaa(lp1420
NaNaNaNaNaNaNaNaNaNaNa(imapping
Tile
p1421
(dp1422
g328
g336
sg330
VS_Ground1
p1423
sg332
F0.20000000000000001
sg333
I00
sbaa(lp1424
NaNaNaNaNaNaNaNaNaNaNa(imapping
Tile
p1425
(dp1426
g328
g336
sg330
VS_Ground1
p1427
sg332
F0.20000000000000001
sg333
I00
sbaa(lp1428
NaNaNaNaNaNaNaNaNaNaNa(imapping
Tile
p1429
(dp1430
g328
g336
sg330
VS_Ground1
p1431
sg332
F0.20000000000000001
sg333
I00
sbaa(lp1432
NaNaNaNaNaNaNaNaNaNaNa(imapping
Tile
p1433
(dp1434
g328
g336
sg330
VS_Ground1
p1435
sg332
F0.20000000000000001
sg333
I00
sbaa(lp1436
NaNaNaNaNaNaNaNaNaNaNa(imapping
Tile
p1437
(dp1438
g328
g336
sg330
VS_Ground1
p1439
sg332
F0.20000000000000001
sg333
I00
sbaa(lp1440
NaNaNaNaNaNaNaNaNaNaNa(imapping
Tile
p1441
(dp1442
g328
g336
sg330
VS_Ground1
p1443
sg332
F0.20000000000000001
sg333
I00
sbaa(lp1444
NaNaNaNaNaNaNaNaNaNaNa(imapping
Tile
p1445
(dp1446
g328
g336
sg330
VS_Ground1
p1447
sg332
F0.20000000000000001
sg333
I00
sbaa(lp1448
NaNaNaNaNaNaNaNaNaNaNa(imapping
Tile
p1449
(dp1450
g328
g336
sg330
VS_Ground1
p1451
sg332
F0.20000000000000001
sg333
I00
sbaa(lp1452
NaNaNaNaNaNaNaNaNaNaNa(imapping
Tile
p1453
(dp1454
g328
g336
sg330
VS_Ground1
p1455
sg332
F0.20000000000000001
sg333
I00
sbaa(lp1456
NaNaNaNaNaNaNaNaNaNaNa(imapping
Tile
p1457
(dp1458
g328
g336
sg330
VS_Ground1
p1459
sg332
F0.20000000000000001
sg333
I00
sbaa(lp1460
NaNaNaNaNaNaNaNaNaNaNaNaa(lp1461
NaNaNaNaNaNaNaNaNaNaNaNaa(lp1462
NaNaNaNaNaNaNaNaNaNaNaNaasS'bgmusic'
p1463
VSnodom.ogg
p1464
sS'theme'
p1465
VSnow
p1466
sS'endef'
p1467
(dp1468
VBoss_Radkelu
p1469
Vboss_radkelu
p1470
sVCSpider
p1471
Vcspider
p1472
sVSnowOgre
p1473
Vsnowogre
p1474
sVWasp
p1475
Vwasp
p1476
sVPoisPod
p1477
Vpoispod
p1478
sVSpider
p1479
Vspider
p1480
sVSnowBat
p1481
Vsnowbat
p1482
sVWorm
p1483
Vworm
p1484
sVGiantJelly
p1485
Vgiantjelly
p1486
sVPod
p1487
Vpod
p1488
sVGiantWorm
p1489
Vgiantworm
p1490
ssS'tiledef'
p1491
(dp1492
VS_bLRamp
p1493
Vsnow_blramp.png
p1494
sViC_Ice
p1495
Vcaveice.png
p1496
sVF_Dirt_R2
p1497
Vdirtr_edge2.png
p1498
sVF_Dirt_R1
p1499
Vdirtr_edge1.png
p1500
sVS_Railing_1
p1501
Vsnow_railing1.png
p1502
sVS_Railing_2
p1503
Vsnow_railing2.png
p1504
sVC_Suit of Armour
p1505
Vsuit_armour.png
p1506
sVS_UCleft
p1507
Vsnow_undercorner_left.png
p1508
sVF_Right_Halframp1
p1509
VR_HR1.png
p1510
sVF_Right_Halframp2
p1511
VR_HR2.png
p1512
sVF_GrassRedge
p1513
Vgrassr_edge.png
p1514
sVS_ECleft
p1515
Vsnow_edgecorner_left.png
p1516
sViC_wr2
p1517
Vcavewr2.png
p1518
sVF_Tuft1
p1519
Vtuft1.png
p1520
sVF_Tuft2
p1521
Vtuft2.png
p1522
sVS_Tree
p1523
Vsnow_tree.png
p1524
sVF_Grass
p1525
Vgrass.png
p1526
sVS_Railing_L
p1527
Vsnow_railing_left.png
p1528
sVC_Castle HRR
p1529
Vcstl_hr_r.png
p1530
sVS_RRamp
p1531
Vsnow_rramp.png
p1532
sVC_Castle HRL
p1533
Vcstl_hr_l.png
p1534
sVS_Pillar
p1535
Vsnow_pillar.png
p1536
sVS_Railing_R
p1537
Vsnow_railing_right.png
p1538
sVS_Tree2
p1539
Vsnow_tree2.png
p1540
sVS_Ground1
p1541
Vsnow_ground1.png
p1542
sVF_Stump
p1543
Vtreestump.png
p1544
sVC_Castle Ground 2
p1545
Vcstl_ground2.png
p1546
sVC_Castle Ground 3
p1547
Vcstl_ground3.png
p1548
sVC_Castle Ground 1
p1549
Vcstl_ground1.png
p1550
sVS_Snow2
p1551
Vsnow_snow2.png
p1552
sVF_Grass_Alt_5
p1553
Vgrassc5.png
p1554
sViC_jl
p1555
Vcavejl.png
p1556
sVS_bRRamp
p1557
Vsnow_brramp.png
p1558
sViC_TopL
p1559
Vcavetl.png
p1560
sViC_Floor 1
p1561
Vcavefloor1.png
p1562
sViC_Floor 3
p1563
Vcavefloor3.png
p1564
sViC_Floor 2
p1565
Vcavefloor2.png
p1566
sViC_TopR
p1567
Vcavetr.png
p1568
sViC_jr
p1569
Vcavejr.png
p1570
sVC_Castle Floor 2
p1571
Vcstl_floor2.png
p1572
sVS_Snow
p1573
Vsnow_snow.png
p1574
sVF_Grass_Alt_2
p1575
Vgrassc2.png
p1576
sVF_ExitSign
p1577
Vexitsign.png
p1578
sVF_Grass->Dirttop
p1579
Vgrassmdirt.png
p1580
sVS_UCright
p1581
Vsnow_undercorner_right.png
p1582
sVS_Pillartop
p1583
Vsnow_pillartop.png
p1584
sViC_wr
p1585
Vcavewr.png
p1586
sVF_Dirttop->Grass
p1587
Vdirtmgrass.png
p1588
sVS_ECright
p1589
Vsnow_edgecorner_right.png
p1590
sVC_Castle HRmL
p1591
Vcstl_hr_m_l.png
p1592
sVC_Castle Wall L
p1593
Vcstl_wleft.png
p1594
sVC_Castle Wall R
p1595
Vcstl_wright.png
p1596
sVC_Castle HRmR
p1597
Vcstl_hr_m_r.png
p1598
sVF_Ice
p1599
Vtile5.png
p1600
sViC_wl
p1601
Vcavewl.png
p1602
sVC_Castle Floor 4
p1603
Vcstl_floor4.png
p1604
sVF_Grass_Alt_4
p1605
Vgrassc4.png
p1606
sVF_Grass_Alt_1
p1607
Vgrassc1.png
p1608
sVC_Castle Floor 1
p1609
Vcstl_floor1.png
p1610
sVF_Grass_Alt_3
p1611
Vgrassc3.png
p1612
sVC_Castle Floor 3
p1613
Vcstl_floor3.png
p1614
sVS_edgewleft1
p1615
Vsnow_edgewall_left1.png
p1616
sVS_edgewleft2
p1617
Vsnow_edgewall_left2.png
p1618
sVS_UCJright
p1619
Vsnow_undercorner_join_right.png
p1620
sVS_LRamp
p1621
Vsnow_lramp.png
p1622
sVC_Castle Floor Edge R
p1623
Vcstl_floor_edge_right.png
p1624
sVF_Dirt_L1
p1625
Vdirtl_edge1.png
p1626
sVF_Dirt_L2
p1627
Vdirtl_edge2.png
p1628
sVC_Castle Floor Edge L
p1629
Vcstl_floor_edge_left.png
p1630
sVF_Left_Halframp2
p1631
VL_HR2.png
p1632
sVF_Left_Halframp1
p1633
VL_HR1.png
p1634
sVF_Shrooms2
p1635
Vshrooms2.png
p1636
sVF_Shrooms3
p1637
Vshrooms3.png
p1638
sVF_Shrooms1
p1639
Vshrooms1.png
p1640
sVF_RampJoinL
p1641
Vramp_mid_dirt_l.png
p1642
sVC_Castle Wall->Floor R
p1643
Vcstl_wfright.png
p1644
sVF_RampJoinR
p1645
Vramp_mid_dirt_r.png
p1646
sVF_GrassLedge
p1647
Vgrassl_edge.png
p1648
sVS_Stones
p1649
Vsnow_stones.png
p1650
sVS_edgeright
p1651
Vsnow_edge_right.png
p1652
sVS_edgewright2
p1653
Vsnow_edgewall_right2.png
p1654
sVS_edgewright1
p1655
Vsnow_edgewall_right1.png
p1656
sVF_Dirtb
p1657
Vdirtb.png
p1658
sVF_Right_Ramp
p1659
VR_R.png
p1660
sVF_HalframpJoinL
p1661
Vhalframp_mid_dirt_l.png
p1662
sVF_Dirt_BL
p1663
Vdirtl_bedge.png
p1664
sVF_HalframpJoinR
p1665
Vhalframp_mid_dirt_r.png
p1666
sVF_Dirt_BR
p1667
Vdirtr_bedge.png
p1668
sVF_Dirtb2
p1669
Vdirtb2.png
p1670
sVF_Left_Ramp
p1671
VL_R.png
p1672
sVC_Castle Wall->Floor L
p1673
Vcstl_wfleft.png
p1674
sVS_UCJleft
p1675
Vsnow_undercorner_join_left.png
p1676
sVF_Dirt
p1677
Vdirt.png
p1678
sVF_Grass->DirtL
p1679
Vgrass_dirt_l.png
p1680
sVS_edgeleft
p1681
Vsnow_edge_left.png
p1682
sVF_Dirttop
p1683
Vdirttop.png
p1684
sVF_Dirt_Alt_4
p1685
Vdirtc4.png
p1686
sVF_Dirt_Alt_3
p1687
Vdirtc3.png
p1688
sVF_Dirt_Alt_2
p1689
Vdirtc2.png
p1690
sVF_Dirt_Alt_1
p1691
Vdirtc1.png
p1692
sVF_Grass->DirtR
p1693
Vgrass_dirt_r.png
p1694
sViC_wl2
p1695
Vcavewl2.png
p1696
ssb.